
build/DEBUG/bin/dsrtos_unified.elf:     file format elf32-littlearm

Sections:
Idx Name          Size      VMA       LMA       File off  Algn
  0 .isr_vector   00000040  08000000  08000000  00010000  2**2
                  CONTENTS, ALLOC, LOAD, READONLY, DATA
  1 .text         00007cc0  08000040  08000040  00010040  2**6
                  CONTENTS, ALLOC, LOAD, READONLY, CODE
  2 .rodata       000007d0  08007d00  08007d00  00017d00  2**3
                  CONTENTS, ALLOC, LOAD, READONLY, DATA
  3 .init_array   00000008  080084d0  080084d0  000184d0  2**2
                  CONTENTS, ALLOC, LOAD, DATA
  4 .fini_array   00000004  080084d8  080084d8  000184d8  2**2
                  CONTENTS, ALLOC, LOAD, DATA
  5 .data         00000258  20000000  080084dc  00020000  2**5
                  CONTENTS, ALLOC, LOAD, DATA
  6 .bss          00000238  20000258  08008734  00020258  2**2
                  ALLOC
  7 .noinit       00000250  20000490  08008734  00020490  2**2
                  ALLOC
  8 ._user_heap_stack 00000600  200006e0  08008734  000206e0  2**0
                  ALLOC
  9 .ARM.attributes 00000030  00000000  00000000  00020258  2**0
                  CONTENTS, READONLY
 10 .comment      00000033  00000000  00000000  00020288  2**0
                  CONTENTS, READONLY
 11 .debug_info   0002851c  00000000  00000000  000202bb  2**0
                  CONTENTS, READONLY, DEBUGGING, OCTETS
 12 .debug_abbrev 00007f88  00000000  00000000  000487d7  2**0
                  CONTENTS, READONLY, DEBUGGING, OCTETS
 13 .debug_loc    00013a5d  00000000  00000000  0005075f  2**0
                  CONTENTS, READONLY, DEBUGGING, OCTETS
 14 .debug_aranges 00000ca8  00000000  00000000  000641c0  2**3
                  CONTENTS, READONLY, DEBUGGING, OCTETS
 15 .debug_ranges 00000ce0  00000000  00000000  00064e68  2**0
                  CONTENTS, READONLY, DEBUGGING, OCTETS
 16 .debug_macro  00000e11  00000000  00000000  00065b48  2**0
                  CONTENTS, READONLY, DEBUGGING, OCTETS
 17 .debug_line   00010001  00000000  00000000  00066959  2**0
                  CONTENTS, READONLY, DEBUGGING, OCTETS
 18 .debug_str    00010c6f  00000000  00000000  0007695a  2**0
                  CONTENTS, READONLY, DEBUGGING, OCTETS
 19 .debug_frame  000024e8  00000000  00000000  000875cc  2**2
                  CONTENTS, READONLY, DEBUGGING, OCTETS
 20 .stab         000000cc  00000000  00000000  00089ab4  2**2
                  CONTENTS, READONLY, DEBUGGING
 21 .stabstr      000001b9  00000000  00000000  00089b80  2**0
                  CONTENTS, READONLY, DEBUGGING

Disassembly of section .text:

08000040 <deregister_tm_clones>:
 8000040:	4803      	ldr	r0, [pc, #12]	; (8000050 <deregister_tm_clones+0x10>)
 8000042:	4b04      	ldr	r3, [pc, #16]	; (8000054 <deregister_tm_clones+0x14>)
 8000044:	4283      	cmp	r3, r0
 8000046:	d002      	beq.n	800004e <deregister_tm_clones+0xe>
 8000048:	4b03      	ldr	r3, [pc, #12]	; (8000058 <deregister_tm_clones+0x18>)
 800004a:	b103      	cbz	r3, 800004e <deregister_tm_clones+0xe>
 800004c:	4718      	bx	r3
 800004e:	4770      	bx	lr
 8000050:	20000258 	.word	0x20000258
 8000054:	20000258 	.word	0x20000258
 8000058:	00000000 	.word	0x00000000

0800005c <register_tm_clones>:
 800005c:	4805      	ldr	r0, [pc, #20]	; (8000074 <register_tm_clones+0x18>)
 800005e:	4906      	ldr	r1, [pc, #24]	; (8000078 <register_tm_clones+0x1c>)
 8000060:	1a0b      	subs	r3, r1, r0
 8000062:	0fd9      	lsrs	r1, r3, #31
 8000064:	eb01 01a3 	add.w	r1, r1, r3, asr #2
 8000068:	1049      	asrs	r1, r1, #1
 800006a:	d002      	beq.n	8000072 <register_tm_clones+0x16>
 800006c:	4b03      	ldr	r3, [pc, #12]	; (800007c <register_tm_clones+0x20>)
 800006e:	b103      	cbz	r3, 8000072 <register_tm_clones+0x16>
 8000070:	4718      	bx	r3
 8000072:	4770      	bx	lr
 8000074:	20000258 	.word	0x20000258
 8000078:	20000258 	.word	0x20000258
 800007c:	00000000 	.word	0x00000000

08000080 <__do_global_dtors_aux>:
 8000080:	b510      	push	{r4, lr}
 8000082:	4c06      	ldr	r4, [pc, #24]	; (800009c <__do_global_dtors_aux+0x1c>)
 8000084:	7823      	ldrb	r3, [r4, #0]
 8000086:	b943      	cbnz	r3, 800009a <__do_global_dtors_aux+0x1a>
 8000088:	f7ff ffda 	bl	8000040 <deregister_tm_clones>
 800008c:	4b04      	ldr	r3, [pc, #16]	; (80000a0 <__do_global_dtors_aux+0x20>)
 800008e:	b113      	cbz	r3, 8000096 <__do_global_dtors_aux+0x16>
 8000090:	4804      	ldr	r0, [pc, #16]	; (80000a4 <__do_global_dtors_aux+0x24>)
 8000092:	f3af 8000 	nop.w
 8000096:	2301      	movs	r3, #1
 8000098:	7023      	strb	r3, [r4, #0]
 800009a:	bd10      	pop	{r4, pc}
 800009c:	20000258 	.word	0x20000258
 80000a0:	00000000 	.word	0x00000000
 80000a4:	08007ce8 	.word	0x08007ce8

080000a8 <frame_dummy>:
 80000a8:	b508      	push	{r3, lr}
 80000aa:	4b04      	ldr	r3, [pc, #16]	; (80000bc <frame_dummy+0x14>)
 80000ac:	b11b      	cbz	r3, 80000b6 <frame_dummy+0xe>
 80000ae:	4904      	ldr	r1, [pc, #16]	; (80000c0 <frame_dummy+0x18>)
 80000b0:	4804      	ldr	r0, [pc, #16]	; (80000c4 <frame_dummy+0x1c>)
 80000b2:	f3af 8000 	nop.w
 80000b6:	e8bd 4008 	ldmia.w	sp!, {r3, lr}
 80000ba:	e7cf      	b.n	800005c <register_tm_clones>
 80000bc:	00000000 	.word	0x00000000
 80000c0:	2000025c 	.word	0x2000025c
 80000c4:	08007ce8 	.word	0x08007ce8

080000c8 <memcpy>:
 80000c8:	4684      	mov	ip, r0
 80000ca:	ea41 0300 	orr.w	r3, r1, r0
 80000ce:	f013 0303 	ands.w	r3, r3, #3
 80000d2:	d16d      	bne.n	80001b0 <memcpy+0xe8>
 80000d4:	3a40      	subs	r2, #64	; 0x40
 80000d6:	d341      	bcc.n	800015c <memcpy+0x94>
 80000d8:	f851 3b04 	ldr.w	r3, [r1], #4
 80000dc:	f840 3b04 	str.w	r3, [r0], #4
 80000e0:	f851 3b04 	ldr.w	r3, [r1], #4
 80000e4:	f840 3b04 	str.w	r3, [r0], #4
 80000e8:	f851 3b04 	ldr.w	r3, [r1], #4
 80000ec:	f840 3b04 	str.w	r3, [r0], #4
 80000f0:	f851 3b04 	ldr.w	r3, [r1], #4
 80000f4:	f840 3b04 	str.w	r3, [r0], #4
 80000f8:	f851 3b04 	ldr.w	r3, [r1], #4
 80000fc:	f840 3b04 	str.w	r3, [r0], #4
 8000100:	f851 3b04 	ldr.w	r3, [r1], #4
 8000104:	f840 3b04 	str.w	r3, [r0], #4
 8000108:	f851 3b04 	ldr.w	r3, [r1], #4
 800010c:	f840 3b04 	str.w	r3, [r0], #4
 8000110:	f851 3b04 	ldr.w	r3, [r1], #4
 8000114:	f840 3b04 	str.w	r3, [r0], #4
 8000118:	f851 3b04 	ldr.w	r3, [r1], #4
 800011c:	f840 3b04 	str.w	r3, [r0], #4
 8000120:	f851 3b04 	ldr.w	r3, [r1], #4
 8000124:	f840 3b04 	str.w	r3, [r0], #4
 8000128:	f851 3b04 	ldr.w	r3, [r1], #4
 800012c:	f840 3b04 	str.w	r3, [r0], #4
 8000130:	f851 3b04 	ldr.w	r3, [r1], #4
 8000134:	f840 3b04 	str.w	r3, [r0], #4
 8000138:	f851 3b04 	ldr.w	r3, [r1], #4
 800013c:	f840 3b04 	str.w	r3, [r0], #4
 8000140:	f851 3b04 	ldr.w	r3, [r1], #4
 8000144:	f840 3b04 	str.w	r3, [r0], #4
 8000148:	f851 3b04 	ldr.w	r3, [r1], #4
 800014c:	f840 3b04 	str.w	r3, [r0], #4
 8000150:	f851 3b04 	ldr.w	r3, [r1], #4
 8000154:	f840 3b04 	str.w	r3, [r0], #4
 8000158:	3a40      	subs	r2, #64	; 0x40
 800015a:	d2bd      	bcs.n	80000d8 <memcpy+0x10>
 800015c:	3230      	adds	r2, #48	; 0x30
 800015e:	d311      	bcc.n	8000184 <memcpy+0xbc>
 8000160:	f851 3b04 	ldr.w	r3, [r1], #4
 8000164:	f840 3b04 	str.w	r3, [r0], #4
 8000168:	f851 3b04 	ldr.w	r3, [r1], #4
 800016c:	f840 3b04 	str.w	r3, [r0], #4
 8000170:	f851 3b04 	ldr.w	r3, [r1], #4
 8000174:	f840 3b04 	str.w	r3, [r0], #4
 8000178:	f851 3b04 	ldr.w	r3, [r1], #4
 800017c:	f840 3b04 	str.w	r3, [r0], #4
 8000180:	3a10      	subs	r2, #16
 8000182:	d2ed      	bcs.n	8000160 <memcpy+0x98>
 8000184:	320c      	adds	r2, #12
 8000186:	d305      	bcc.n	8000194 <memcpy+0xcc>
 8000188:	f851 3b04 	ldr.w	r3, [r1], #4
 800018c:	f840 3b04 	str.w	r3, [r0], #4
 8000190:	3a04      	subs	r2, #4
 8000192:	d2f9      	bcs.n	8000188 <memcpy+0xc0>
 8000194:	3204      	adds	r2, #4
 8000196:	d008      	beq.n	80001aa <memcpy+0xe2>
 8000198:	07d2      	lsls	r2, r2, #31
 800019a:	bf1c      	itt	ne
 800019c:	f811 3b01 	ldrbne.w	r3, [r1], #1
 80001a0:	f800 3b01 	strbne.w	r3, [r0], #1
 80001a4:	d301      	bcc.n	80001aa <memcpy+0xe2>
 80001a6:	880b      	ldrh	r3, [r1, #0]
 80001a8:	8003      	strh	r3, [r0, #0]
 80001aa:	4660      	mov	r0, ip
 80001ac:	4770      	bx	lr
 80001ae:	bf00      	nop
 80001b0:	2a08      	cmp	r2, #8
 80001b2:	d313      	bcc.n	80001dc <memcpy+0x114>
 80001b4:	078b      	lsls	r3, r1, #30
 80001b6:	d08d      	beq.n	80000d4 <memcpy+0xc>
 80001b8:	f010 0303 	ands.w	r3, r0, #3
 80001bc:	d08a      	beq.n	80000d4 <memcpy+0xc>
 80001be:	f1c3 0304 	rsb	r3, r3, #4
 80001c2:	1ad2      	subs	r2, r2, r3
 80001c4:	07db      	lsls	r3, r3, #31
 80001c6:	bf1c      	itt	ne
 80001c8:	f811 3b01 	ldrbne.w	r3, [r1], #1
 80001cc:	f800 3b01 	strbne.w	r3, [r0], #1
 80001d0:	d380      	bcc.n	80000d4 <memcpy+0xc>
 80001d2:	f831 3b02 	ldrh.w	r3, [r1], #2
 80001d6:	f820 3b02 	strh.w	r3, [r0], #2
 80001da:	e77b      	b.n	80000d4 <memcpy+0xc>
 80001dc:	3a04      	subs	r2, #4
 80001de:	d3d9      	bcc.n	8000194 <memcpy+0xcc>
 80001e0:	3a01      	subs	r2, #1
 80001e2:	f811 3b01 	ldrb.w	r3, [r1], #1
 80001e6:	f800 3b01 	strb.w	r3, [r0], #1
 80001ea:	d2f9      	bcs.n	80001e0 <memcpy+0x118>
 80001ec:	780b      	ldrb	r3, [r1, #0]
 80001ee:	7003      	strb	r3, [r0, #0]
 80001f0:	784b      	ldrb	r3, [r1, #1]
 80001f2:	7043      	strb	r3, [r0, #1]
 80001f4:	788b      	ldrb	r3, [r1, #2]
 80001f6:	7083      	strb	r3, [r0, #2]
 80001f8:	4660      	mov	r0, ip
 80001fa:	4770      	bx	lr

080001fc <memset>:
 80001fc:	0783      	lsls	r3, r0, #30
 80001fe:	b530      	push	{r4, r5, lr}
 8000200:	d048      	beq.n	8000294 <memset+0x98>
 8000202:	1e54      	subs	r4, r2, #1
 8000204:	2a00      	cmp	r2, #0
 8000206:	d03f      	beq.n	8000288 <memset+0x8c>
 8000208:	b2ca      	uxtb	r2, r1
 800020a:	4603      	mov	r3, r0
 800020c:	e001      	b.n	8000212 <memset+0x16>
 800020e:	3c01      	subs	r4, #1
 8000210:	d33a      	bcc.n	8000288 <memset+0x8c>
 8000212:	f803 2b01 	strb.w	r2, [r3], #1
 8000216:	079d      	lsls	r5, r3, #30
 8000218:	d1f9      	bne.n	800020e <memset+0x12>
 800021a:	2c03      	cmp	r4, #3
 800021c:	d92d      	bls.n	800027a <memset+0x7e>
 800021e:	b2cd      	uxtb	r5, r1
 8000220:	ea45 2505 	orr.w	r5, r5, r5, lsl #8
 8000224:	2c0f      	cmp	r4, #15
 8000226:	ea45 4505 	orr.w	r5, r5, r5, lsl #16
 800022a:	d936      	bls.n	800029a <memset+0x9e>
 800022c:	f1a4 0210 	sub.w	r2, r4, #16
 8000230:	f022 0c0f 	bic.w	ip, r2, #15
 8000234:	f103 0e20 	add.w	lr, r3, #32
 8000238:	44e6      	add	lr, ip
 800023a:	ea4f 1c12 	mov.w	ip, r2, lsr #4
 800023e:	f103 0210 	add.w	r2, r3, #16
 8000242:	e942 5504 	strd	r5, r5, [r2, #-16]
 8000246:	e942 5502 	strd	r5, r5, [r2, #-8]
 800024a:	3210      	adds	r2, #16
 800024c:	4572      	cmp	r2, lr
 800024e:	d1f8      	bne.n	8000242 <memset+0x46>
 8000250:	f10c 0201 	add.w	r2, ip, #1
 8000254:	f014 0f0c 	tst.w	r4, #12
 8000258:	eb03 1202 	add.w	r2, r3, r2, lsl #4
 800025c:	f004 0c0f 	and.w	ip, r4, #15
 8000260:	d013      	beq.n	800028a <memset+0x8e>
 8000262:	f1ac 0304 	sub.w	r3, ip, #4
 8000266:	f023 0303 	bic.w	r3, r3, #3
 800026a:	3304      	adds	r3, #4
 800026c:	4413      	add	r3, r2
 800026e:	f842 5b04 	str.w	r5, [r2], #4
 8000272:	4293      	cmp	r3, r2
 8000274:	d1fb      	bne.n	800026e <memset+0x72>
 8000276:	f00c 0403 	and.w	r4, ip, #3
 800027a:	b12c      	cbz	r4, 8000288 <memset+0x8c>
 800027c:	b2ca      	uxtb	r2, r1
 800027e:	441c      	add	r4, r3
 8000280:	f803 2b01 	strb.w	r2, [r3], #1
 8000284:	429c      	cmp	r4, r3
 8000286:	d1fb      	bne.n	8000280 <memset+0x84>
 8000288:	bd30      	pop	{r4, r5, pc}
 800028a:	4664      	mov	r4, ip
 800028c:	4613      	mov	r3, r2
 800028e:	2c00      	cmp	r4, #0
 8000290:	d1f4      	bne.n	800027c <memset+0x80>
 8000292:	e7f9      	b.n	8000288 <memset+0x8c>
 8000294:	4603      	mov	r3, r0
 8000296:	4614      	mov	r4, r2
 8000298:	e7bf      	b.n	800021a <memset+0x1e>
 800029a:	461a      	mov	r2, r3
 800029c:	46a4      	mov	ip, r4
 800029e:	e7e0      	b.n	8000262 <memset+0x66>

080002a0 <__cvt>:
 80002a0:	e92d 47f0 	stmdb	sp!, {r4, r5, r6, r7, r8, r9, sl, lr}
 80002a4:	ec57 6b10 	vmov	r6, r7, d0
 80002a8:	b084      	sub	sp, #16
 80002aa:	2f00      	cmp	r7, #0
 80002ac:	460c      	mov	r4, r1
 80002ae:	e9dd a90c 	ldrd	sl, r9, [sp, #48]	; 0x30
 80002b2:	4690      	mov	r8, r2
 80002b4:	4619      	mov	r1, r3
 80002b6:	db5f      	blt.n	8000378 <__cvt+0xd8>
 80002b8:	2500      	movs	r5, #0
 80002ba:	f1b9 0f66 	cmp.w	r9, #102	; 0x66
 80002be:	700d      	strb	r5, [r1, #0]
 80002c0:	d01a      	beq.n	80002f8 <__cvt+0x58>
 80002c2:	f1b9 0f46 	cmp.w	r9, #70	; 0x46
 80002c6:	d017      	beq.n	80002f8 <__cvt+0x58>
 80002c8:	f029 0320 	bic.w	r3, r9, #32
 80002cc:	2b45      	cmp	r3, #69	; 0x45
 80002ce:	d036      	beq.n	800033e <__cvt+0x9e>
 80002d0:	aa03      	add	r2, sp, #12
 80002d2:	9201      	str	r2, [sp, #4]
 80002d4:	aa02      	add	r2, sp, #8
 80002d6:	9200      	str	r2, [sp, #0]
 80002d8:	ec47 6b10 	vmov	d0, r6, r7
 80002dc:	4653      	mov	r3, sl
 80002de:	4622      	mov	r2, r4
 80002e0:	2102      	movs	r1, #2
 80002e2:	f002 faed 	bl	80028c0 <_dtoa_r>
 80002e6:	f1b9 0f67 	cmp.w	r9, #103	; 0x67
 80002ea:	4605      	mov	r5, r0
 80002ec:	d134      	bne.n	8000358 <__cvt+0xb8>
 80002ee:	f018 0f01 	tst.w	r8, #1
 80002f2:	d134      	bne.n	800035e <__cvt+0xbe>
 80002f4:	9b03      	ldr	r3, [sp, #12]
 80002f6:	e01b      	b.n	8000330 <__cvt+0x90>
 80002f8:	ab03      	add	r3, sp, #12
 80002fa:	9301      	str	r3, [sp, #4]
 80002fc:	ab02      	add	r3, sp, #8
 80002fe:	9300      	str	r3, [sp, #0]
 8000300:	ec47 6b10 	vmov	d0, r6, r7
 8000304:	4653      	mov	r3, sl
 8000306:	4622      	mov	r2, r4
 8000308:	2103      	movs	r1, #3
 800030a:	f002 fad9 	bl	80028c0 <_dtoa_r>
 800030e:	4605      	mov	r5, r0
 8000310:	eb00 0804 	add.w	r8, r0, r4
 8000314:	782b      	ldrb	r3, [r5, #0]
 8000316:	2b30      	cmp	r3, #48	; 0x30
 8000318:	d033      	beq.n	8000382 <__cvt+0xe2>
 800031a:	f8da 4000 	ldr.w	r4, [sl]
 800031e:	4444      	add	r4, r8
 8000320:	4630      	mov	r0, r6
 8000322:	4639      	mov	r1, r7
 8000324:	2200      	movs	r2, #0
 8000326:	2300      	movs	r3, #0
 8000328:	f006 fdf8 	bl	8006f1c <__aeabi_dcmpeq>
 800032c:	b1c8      	cbz	r0, 8000362 <__cvt+0xc2>
 800032e:	4623      	mov	r3, r4
 8000330:	9a0e      	ldr	r2, [sp, #56]	; 0x38
 8000332:	1b5b      	subs	r3, r3, r5
 8000334:	4628      	mov	r0, r5
 8000336:	6013      	str	r3, [r2, #0]
 8000338:	b004      	add	sp, #16
 800033a:	e8bd 87f0 	ldmia.w	sp!, {r4, r5, r6, r7, r8, r9, sl, pc}
 800033e:	aa03      	add	r2, sp, #12
 8000340:	9201      	str	r2, [sp, #4]
 8000342:	3401      	adds	r4, #1
 8000344:	aa02      	add	r2, sp, #8
 8000346:	9200      	str	r2, [sp, #0]
 8000348:	ec47 6b10 	vmov	d0, r6, r7
 800034c:	4653      	mov	r3, sl
 800034e:	4622      	mov	r2, r4
 8000350:	2102      	movs	r1, #2
 8000352:	f002 fab5 	bl	80028c0 <_dtoa_r>
 8000356:	4605      	mov	r5, r0
 8000358:	f1b9 0f47 	cmp.w	r9, #71	; 0x47
 800035c:	d0c7      	beq.n	80002ee <__cvt+0x4e>
 800035e:	442c      	add	r4, r5
 8000360:	e7de      	b.n	8000320 <__cvt+0x80>
 8000362:	9b03      	ldr	r3, [sp, #12]
 8000364:	429c      	cmp	r4, r3
 8000366:	d9e3      	bls.n	8000330 <__cvt+0x90>
 8000368:	2130      	movs	r1, #48	; 0x30
 800036a:	1c5a      	adds	r2, r3, #1
 800036c:	9203      	str	r2, [sp, #12]
 800036e:	7019      	strb	r1, [r3, #0]
 8000370:	9b03      	ldr	r3, [sp, #12]
 8000372:	42a3      	cmp	r3, r4
 8000374:	d3f9      	bcc.n	800036a <__cvt+0xca>
 8000376:	e7db      	b.n	8000330 <__cvt+0x90>
 8000378:	f107 4300 	add.w	r3, r7, #2147483648	; 0x80000000
 800037c:	252d      	movs	r5, #45	; 0x2d
 800037e:	461f      	mov	r7, r3
 8000380:	e79b      	b.n	80002ba <__cvt+0x1a>
 8000382:	2200      	movs	r2, #0
 8000384:	2300      	movs	r3, #0
 8000386:	4630      	mov	r0, r6
 8000388:	4639      	mov	r1, r7
 800038a:	f006 fdc7 	bl	8006f1c <__aeabi_dcmpeq>
 800038e:	2800      	cmp	r0, #0
 8000390:	d1c3      	bne.n	800031a <__cvt+0x7a>
 8000392:	f1c4 0401 	rsb	r4, r4, #1
 8000396:	f8ca 4000 	str.w	r4, [sl]
 800039a:	e7c0      	b.n	800031e <__cvt+0x7e>

0800039c <__exponent>:
 800039c:	b5f0      	push	{r4, r5, r6, r7, lr}
 800039e:	2900      	cmp	r1, #0
 80003a0:	b083      	sub	sp, #12
 80003a2:	7002      	strb	r2, [r0, #0]
 80003a4:	db3f      	blt.n	8000426 <__exponent+0x8a>
 80003a6:	1c84      	adds	r4, r0, #2
 80003a8:	232b      	movs	r3, #43	; 0x2b
 80003aa:	2909      	cmp	r1, #9
 80003ac:	7043      	strb	r3, [r0, #1]
 80003ae:	dd30      	ble.n	8000412 <__exponent+0x76>
 80003b0:	f10d 0507 	add.w	r5, sp, #7
 80003b4:	4f1f      	ldr	r7, [pc, #124]	; (8000434 <__exponent+0x98>)
 80003b6:	46ac      	mov	ip, r5
 80003b8:	fb87 3201 	smull	r3, r2, r7, r1
 80003bc:	17cb      	asrs	r3, r1, #31
 80003be:	ebc3 03a2 	rsb	r3, r3, r2, asr #2
 80003c2:	eb03 0283 	add.w	r2, r3, r3, lsl #2
 80003c6:	eba1 0242 	sub.w	r2, r1, r2, lsl #1
 80003ca:	460e      	mov	r6, r1
 80003cc:	3230      	adds	r2, #48	; 0x30
 80003ce:	2e63      	cmp	r6, #99	; 0x63
 80003d0:	46e6      	mov	lr, ip
 80003d2:	f80c 2c01 	strb.w	r2, [ip, #-1]
 80003d6:	4619      	mov	r1, r3
 80003d8:	f10c 3cff 	add.w	ip, ip, #4294967295	; 0xffffffff
 80003dc:	dcec      	bgt.n	80003b8 <__exponent+0x1c>
 80003de:	3130      	adds	r1, #48	; 0x30
 80003e0:	f1ae 0302 	sub.w	r3, lr, #2
 80003e4:	b2c9      	uxtb	r1, r1
 80003e6:	429d      	cmp	r5, r3
 80003e8:	f80c 1c01 	strb.w	r1, [ip, #-1]
 80003ec:	d91f      	bls.n	800042e <__exponent+0x92>
 80003ee:	4663      	mov	r3, ip
 80003f0:	4622      	mov	r2, r4
 80003f2:	e001      	b.n	80003f8 <__exponent+0x5c>
 80003f4:	f813 1b01 	ldrb.w	r1, [r3], #1
 80003f8:	f802 1b01 	strb.w	r1, [r2], #1
 80003fc:	42ab      	cmp	r3, r5
 80003fe:	d1f9      	bne.n	80003f4 <__exponent+0x58>
 8000400:	f10d 0309 	add.w	r3, sp, #9
 8000404:	eba3 0e0e 	sub.w	lr, r3, lr
 8000408:	44a6      	add	lr, r4
 800040a:	ebae 0000 	sub.w	r0, lr, r0
 800040e:	b003      	add	sp, #12
 8000410:	bdf0      	pop	{r4, r5, r6, r7, pc}
 8000412:	2330      	movs	r3, #48	; 0x30
 8000414:	46a6      	mov	lr, r4
 8000416:	4419      	add	r1, r3
 8000418:	f80e 3b02 	strb.w	r3, [lr], #2
 800041c:	7061      	strb	r1, [r4, #1]
 800041e:	ebae 0000 	sub.w	r0, lr, r0
 8000422:	b003      	add	sp, #12
 8000424:	bdf0      	pop	{r4, r5, r6, r7, pc}
 8000426:	4249      	negs	r1, r1
 8000428:	1c84      	adds	r4, r0, #2
 800042a:	232d      	movs	r3, #45	; 0x2d
 800042c:	e7bd      	b.n	80003aa <__exponent+0xe>
 800042e:	46a6      	mov	lr, r4
 8000430:	e7f5      	b.n	800041e <__exponent+0x82>
 8000432:	bf00      	nop
 8000434:	66666667 	.word	0x66666667

08000438 <_printf_float>:
 8000438:	e92d 4ff0 	stmdb	sp!, {r4, r5, r6, r7, r8, r9, sl, fp, lr}
 800043c:	ed2d 8b02 	vpush	{d8}
 8000440:	b08d      	sub	sp, #52	; 0x34
 8000442:	460c      	mov	r4, r1
 8000444:	f8dd 8060 	ldr.w	r8, [sp, #96]	; 0x60
 8000448:	4616      	mov	r6, r2
 800044a:	461f      	mov	r7, r3
 800044c:	4605      	mov	r5, r0
 800044e:	f003 ff8d 	bl	800436c <_localeconv_r>
 8000452:	6803      	ldr	r3, [r0, #0]
 8000454:	4618      	mov	r0, r3
 8000456:	ee08 3a10 	vmov	s16, r3
 800045a:	f000 ff91 	bl	8001380 <strlen>
 800045e:	2300      	movs	r3, #0
 8000460:	930a      	str	r3, [sp, #40]	; 0x28
 8000462:	f8d8 3000 	ldr.w	r3, [r8]
 8000466:	9007      	str	r0, [sp, #28]
 8000468:	3307      	adds	r3, #7
 800046a:	f023 0307 	bic.w	r3, r3, #7
 800046e:	f103 0208 	add.w	r2, r3, #8
 8000472:	f8d4 b000 	ldr.w	fp, [r4]
 8000476:	f894 a018 	ldrb.w	sl, [r4, #24]
 800047a:	f8c8 2000 	str.w	r2, [r8]
 800047e:	e9d3 8900 	ldrd	r8, r9, [r3]
 8000482:	f029 4300 	bic.w	r3, r9, #2147483648	; 0x80000000
 8000486:	9305      	str	r3, [sp, #20]
 8000488:	f8cd 8010 	str.w	r8, [sp, #16]
 800048c:	e9c4 8912 	strd	r8, r9, [r4, #72]	; 0x48
 8000490:	e9dd 0104 	ldrd	r0, r1, [sp, #16]
 8000494:	4ba7      	ldr	r3, [pc, #668]	; (8000734 <_printf_float+0x2fc>)
 8000496:	f04f 32ff 	mov.w	r2, #4294967295	; 0xffffffff
 800049a:	f006 fd71 	bl	8006f80 <__aeabi_dcmpun>
 800049e:	b948      	cbnz	r0, 80004b4 <_printf_float+0x7c>
 80004a0:	e9dd 0104 	ldrd	r0, r1, [sp, #16]
 80004a4:	4ba3      	ldr	r3, [pc, #652]	; (8000734 <_printf_float+0x2fc>)
 80004a6:	f04f 32ff 	mov.w	r2, #4294967295	; 0xffffffff
 80004aa:	f006 fd4b 	bl	8006f44 <__aeabi_dcmple>
 80004ae:	2800      	cmp	r0, #0
 80004b0:	f000 8092 	beq.w	80005d8 <_printf_float+0x1a0>
 80004b4:	4642      	mov	r2, r8
 80004b6:	464b      	mov	r3, r9
 80004b8:	4640      	mov	r0, r8
 80004ba:	4649      	mov	r1, r9
 80004bc:	f006 fd60 	bl	8006f80 <__aeabi_dcmpun>
 80004c0:	2800      	cmp	r0, #0
 80004c2:	f040 8234 	bne.w	800092e <_printf_float+0x4f6>
 80004c6:	6861      	ldr	r1, [r4, #4]
 80004c8:	1c4b      	adds	r3, r1, #1
 80004ca:	d02d      	beq.n	8000528 <_printf_float+0xf0>
 80004cc:	f1ba 0f67 	cmp.w	sl, #103	; 0x67
 80004d0:	d068      	beq.n	80005a4 <_printf_float+0x16c>
 80004d2:	f1ba 0f47 	cmp.w	sl, #71	; 0x47
 80004d6:	d065      	beq.n	80005a4 <_printf_float+0x16c>
 80004d8:	f44b 6280 	orr.w	r2, fp, #1024	; 0x400
 80004dc:	2300      	movs	r3, #0
 80004de:	6022      	str	r2, [r4, #0]
 80004e0:	9303      	str	r3, [sp, #12]
 80004e2:	ab0a      	add	r3, sp, #40	; 0x28
 80004e4:	9302      	str	r3, [sp, #8]
 80004e6:	ab09      	add	r3, sp, #36	; 0x24
 80004e8:	ec49 8b10 	vmov	d0, r8, r9
 80004ec:	9300      	str	r3, [sp, #0]
 80004ee:	f8cd a004 	str.w	sl, [sp, #4]
 80004f2:	f10d 0323 	add.w	r3, sp, #35	; 0x23
 80004f6:	4628      	mov	r0, r5
 80004f8:	f7ff fed2 	bl	80002a0 <__cvt>
 80004fc:	4680      	mov	r8, r0
 80004fe:	f1ba 0f65 	cmp.w	sl, #101	; 0x65
 8000502:	9909      	ldr	r1, [sp, #36]	; 0x24
 8000504:	d834      	bhi.n	8000570 <_printf_float+0x138>
 8000506:	3901      	subs	r1, #1
 8000508:	4652      	mov	r2, sl
 800050a:	f104 0050 	add.w	r0, r4, #80	; 0x50
 800050e:	9109      	str	r1, [sp, #36]	; 0x24
 8000510:	f7ff ff44 	bl	800039c <__exponent>
 8000514:	9a0a      	ldr	r2, [sp, #40]	; 0x28
 8000516:	1813      	adds	r3, r2, r0
 8000518:	2a01      	cmp	r2, #1
 800051a:	4681      	mov	r9, r0
 800051c:	6123      	str	r3, [r4, #16]
 800051e:	f340 817e 	ble.w	800081e <_printf_float+0x3e6>
 8000522:	3301      	adds	r3, #1
 8000524:	6123      	str	r3, [r4, #16]
 8000526:	e035      	b.n	8000594 <_printf_float+0x15c>
 8000528:	2106      	movs	r1, #6
 800052a:	6061      	str	r1, [r4, #4]
 800052c:	f44b 6280 	orr.w	r2, fp, #1024	; 0x400
 8000530:	2300      	movs	r3, #0
 8000532:	6022      	str	r2, [r4, #0]
 8000534:	9303      	str	r3, [sp, #12]
 8000536:	ab0a      	add	r3, sp, #40	; 0x28
 8000538:	9302      	str	r3, [sp, #8]
 800053a:	ab09      	add	r3, sp, #36	; 0x24
 800053c:	ec49 8b10 	vmov	d0, r8, r9
 8000540:	9300      	str	r3, [sp, #0]
 8000542:	f8cd a004 	str.w	sl, [sp, #4]
 8000546:	f10d 0323 	add.w	r3, sp, #35	; 0x23
 800054a:	4628      	mov	r0, r5
 800054c:	f7ff fea8 	bl	80002a0 <__cvt>
 8000550:	f00a 03df 	and.w	r3, sl, #223	; 0xdf
 8000554:	2b47      	cmp	r3, #71	; 0x47
 8000556:	4680      	mov	r8, r0
 8000558:	d1d1      	bne.n	80004fe <_printf_float+0xc6>
 800055a:	9909      	ldr	r1, [sp, #36]	; 0x24
 800055c:	1cc8      	adds	r0, r1, #3
 800055e:	f280 80fe 	bge.w	800075e <_printf_float+0x326>
 8000562:	f1aa 0a02 	sub.w	sl, sl, #2
 8000566:	fa5f fa8a 	uxtb.w	sl, sl
 800056a:	f1ba 0f65 	cmp.w	sl, #101	; 0x65
 800056e:	d9ca      	bls.n	8000506 <_printf_float+0xce>
 8000570:	f1ba 0f66 	cmp.w	sl, #102	; 0x66
 8000574:	f000 80fa 	beq.w	800076c <_printf_float+0x334>
 8000578:	9b0a      	ldr	r3, [sp, #40]	; 0x28
 800057a:	428b      	cmp	r3, r1
 800057c:	f340 8101 	ble.w	8000782 <_printf_float+0x34a>
 8000580:	2900      	cmp	r1, #0
 8000582:	bfd4      	ite	le
 8000584:	f1c1 0202 	rsble	r2, r1, #2
 8000588:	2201      	movgt	r2, #1
 800058a:	4413      	add	r3, r2
 800058c:	6123      	str	r3, [r4, #16]
 800058e:	65a1      	str	r1, [r4, #88]	; 0x58
 8000590:	f04f 0900 	mov.w	r9, #0
 8000594:	f89d 3023 	ldrb.w	r3, [sp, #35]	; 0x23
 8000598:	2b00      	cmp	r3, #0
 800059a:	d035      	beq.n	8000608 <_printf_float+0x1d0>
 800059c:	232d      	movs	r3, #45	; 0x2d
 800059e:	f884 3043 	strb.w	r3, [r4, #67]	; 0x43
 80005a2:	e031      	b.n	8000608 <_printf_float+0x1d0>
 80005a4:	2900      	cmp	r1, #0
 80005a6:	f000 8123 	beq.w	80007f0 <_printf_float+0x3b8>
 80005aa:	f44b 6280 	orr.w	r2, fp, #1024	; 0x400
 80005ae:	2300      	movs	r3, #0
 80005b0:	6022      	str	r2, [r4, #0]
 80005b2:	9303      	str	r3, [sp, #12]
 80005b4:	ab0a      	add	r3, sp, #40	; 0x28
 80005b6:	9302      	str	r3, [sp, #8]
 80005b8:	ab09      	add	r3, sp, #36	; 0x24
 80005ba:	ec49 8b10 	vmov	d0, r8, r9
 80005be:	9300      	str	r3, [sp, #0]
 80005c0:	f8cd a004 	str.w	sl, [sp, #4]
 80005c4:	f10d 0323 	add.w	r3, sp, #35	; 0x23
 80005c8:	4628      	mov	r0, r5
 80005ca:	f7ff fe69 	bl	80002a0 <__cvt>
 80005ce:	9909      	ldr	r1, [sp, #36]	; 0x24
 80005d0:	4680      	mov	r8, r0
 80005d2:	1cc8      	adds	r0, r1, #3
 80005d4:	dbc5      	blt.n	8000562 <_printf_float+0x12a>
 80005d6:	e0c2      	b.n	800075e <_printf_float+0x326>
 80005d8:	4640      	mov	r0, r8
 80005da:	4649      	mov	r1, r9
 80005dc:	2200      	movs	r2, #0
 80005de:	2300      	movs	r3, #0
 80005e0:	f006 fca6 	bl	8006f30 <__aeabi_dcmplt>
 80005e4:	b110      	cbz	r0, 80005ec <_printf_float+0x1b4>
 80005e6:	232d      	movs	r3, #45	; 0x2d
 80005e8:	f884 3043 	strb.w	r3, [r4, #67]	; 0x43
 80005ec:	4b52      	ldr	r3, [pc, #328]	; (8000738 <_printf_float+0x300>)
 80005ee:	4853      	ldr	r0, [pc, #332]	; (800073c <_printf_float+0x304>)
 80005f0:	f02b 0204 	bic.w	r2, fp, #4
 80005f4:	f1ba 0f47 	cmp.w	sl, #71	; 0x47
 80005f8:	bf94      	ite	ls
 80005fa:	4698      	movls	r8, r3
 80005fc:	4680      	movhi	r8, r0
 80005fe:	2303      	movs	r3, #3
 8000600:	6022      	str	r2, [r4, #0]
 8000602:	6123      	str	r3, [r4, #16]
 8000604:	f04f 0900 	mov.w	r9, #0
 8000608:	9700      	str	r7, [sp, #0]
 800060a:	4633      	mov	r3, r6
 800060c:	aa0b      	add	r2, sp, #44	; 0x2c
 800060e:	4621      	mov	r1, r4
 8000610:	4628      	mov	r0, r5
 8000612:	f000 f9ab 	bl	800096c <_printf_common>
 8000616:	3001      	adds	r0, #1
 8000618:	d025      	beq.n	8000666 <_printf_float+0x22e>
 800061a:	6823      	ldr	r3, [r4, #0]
 800061c:	0558      	lsls	r0, r3, #21
 800061e:	d431      	bmi.n	8000684 <_printf_float+0x24c>
 8000620:	6923      	ldr	r3, [r4, #16]
 8000622:	4642      	mov	r2, r8
 8000624:	4631      	mov	r1, r6
 8000626:	4628      	mov	r0, r5
 8000628:	47b8      	blx	r7
 800062a:	3001      	adds	r0, #1
 800062c:	d01b      	beq.n	8000666 <_printf_float+0x22e>
 800062e:	6823      	ldr	r3, [r4, #0]
 8000630:	68e0      	ldr	r0, [r4, #12]
 8000632:	f013 0f02 	tst.w	r3, #2
 8000636:	9b0b      	ldr	r3, [sp, #44]	; 0x2c
 8000638:	d01c      	beq.n	8000674 <_printf_float+0x23c>
 800063a:	1ac2      	subs	r2, r0, r3
 800063c:	2a00      	cmp	r2, #0
 800063e:	dd19      	ble.n	8000674 <_printf_float+0x23c>
 8000640:	f104 0919 	add.w	r9, r4, #25
 8000644:	f04f 0800 	mov.w	r8, #0
 8000648:	e004      	b.n	8000654 <_printf_float+0x21c>
 800064a:	68e0      	ldr	r0, [r4, #12]
 800064c:	9b0b      	ldr	r3, [sp, #44]	; 0x2c
 800064e:	1ac2      	subs	r2, r0, r3
 8000650:	4542      	cmp	r2, r8
 8000652:	dd0f      	ble.n	8000674 <_printf_float+0x23c>
 8000654:	2301      	movs	r3, #1
 8000656:	464a      	mov	r2, r9
 8000658:	4631      	mov	r1, r6
 800065a:	4628      	mov	r0, r5
 800065c:	47b8      	blx	r7
 800065e:	3001      	adds	r0, #1
 8000660:	f108 0801 	add.w	r8, r8, #1
 8000664:	d1f1      	bne.n	800064a <_printf_float+0x212>
 8000666:	f04f 30ff 	mov.w	r0, #4294967295	; 0xffffffff
 800066a:	b00d      	add	sp, #52	; 0x34
 800066c:	ecbd 8b02 	vpop	{d8}
 8000670:	e8bd 8ff0 	ldmia.w	sp!, {r4, r5, r6, r7, r8, r9, sl, fp, pc}
 8000674:	4298      	cmp	r0, r3
 8000676:	bfb8      	it	lt
 8000678:	4618      	movlt	r0, r3
 800067a:	b00d      	add	sp, #52	; 0x34
 800067c:	ecbd 8b02 	vpop	{d8}
 8000680:	e8bd 8ff0 	ldmia.w	sp!, {r4, r5, r6, r7, r8, r9, sl, fp, pc}
 8000684:	f1ba 0f65 	cmp.w	sl, #101	; 0x65
 8000688:	d932      	bls.n	80006f0 <_printf_float+0x2b8>
 800068a:	e9d4 0112 	ldrd	r0, r1, [r4, #72]	; 0x48
 800068e:	2200      	movs	r2, #0
 8000690:	2300      	movs	r3, #0
 8000692:	f006 fc43 	bl	8006f1c <__aeabi_dcmpeq>
 8000696:	2800      	cmp	r0, #0
 8000698:	d07b      	beq.n	8000792 <_printf_float+0x35a>
 800069a:	4a29      	ldr	r2, [pc, #164]	; (8000740 <_printf_float+0x308>)
 800069c:	2301      	movs	r3, #1
 800069e:	4631      	mov	r1, r6
 80006a0:	4628      	mov	r0, r5
 80006a2:	47b8      	blx	r7
 80006a4:	3001      	adds	r0, #1
 80006a6:	d0de      	beq.n	8000666 <_printf_float+0x22e>
 80006a8:	e9dd 2309 	ldrd	r2, r3, [sp, #36]	; 0x24
 80006ac:	429a      	cmp	r2, r3
 80006ae:	db02      	blt.n	80006b6 <_printf_float+0x27e>
 80006b0:	6823      	ldr	r3, [r4, #0]
 80006b2:	07d9      	lsls	r1, r3, #31
 80006b4:	d5bc      	bpl.n	8000630 <_printf_float+0x1f8>
 80006b6:	9b07      	ldr	r3, [sp, #28]
 80006b8:	ee18 2a10 	vmov	r2, s16
 80006bc:	4631      	mov	r1, r6
 80006be:	4628      	mov	r0, r5
 80006c0:	47b8      	blx	r7
 80006c2:	3001      	adds	r0, #1
 80006c4:	d0cf      	beq.n	8000666 <_printf_float+0x22e>
 80006c6:	9b0a      	ldr	r3, [sp, #40]	; 0x28
 80006c8:	2b01      	cmp	r3, #1
 80006ca:	ddb0      	ble.n	800062e <_printf_float+0x1f6>
 80006cc:	f104 091a 	add.w	r9, r4, #26
 80006d0:	f04f 0800 	mov.w	r8, #0
 80006d4:	e003      	b.n	80006de <_printf_float+0x2a6>
 80006d6:	9b0a      	ldr	r3, [sp, #40]	; 0x28
 80006d8:	3b01      	subs	r3, #1
 80006da:	4543      	cmp	r3, r8
 80006dc:	dda7      	ble.n	800062e <_printf_float+0x1f6>
 80006de:	2301      	movs	r3, #1
 80006e0:	464a      	mov	r2, r9
 80006e2:	4631      	mov	r1, r6
 80006e4:	4628      	mov	r0, r5
 80006e6:	4498      	add	r8, r3
 80006e8:	47b8      	blx	r7
 80006ea:	3001      	adds	r0, #1
 80006ec:	d1f3      	bne.n	80006d6 <_printf_float+0x29e>
 80006ee:	e7ba      	b.n	8000666 <_printf_float+0x22e>
 80006f0:	9a0a      	ldr	r2, [sp, #40]	; 0x28
 80006f2:	2a01      	cmp	r2, #1
 80006f4:	dd7f      	ble.n	80007f6 <_printf_float+0x3be>
 80006f6:	2301      	movs	r3, #1
 80006f8:	4642      	mov	r2, r8
 80006fa:	4631      	mov	r1, r6
 80006fc:	4628      	mov	r0, r5
 80006fe:	47b8      	blx	r7
 8000700:	3001      	adds	r0, #1
 8000702:	d0b0      	beq.n	8000666 <_printf_float+0x22e>
 8000704:	9b07      	ldr	r3, [sp, #28]
 8000706:	ee18 2a10 	vmov	r2, s16
 800070a:	4631      	mov	r1, r6
 800070c:	4628      	mov	r0, r5
 800070e:	47b8      	blx	r7
 8000710:	3001      	adds	r0, #1
 8000712:	d0a8      	beq.n	8000666 <_printf_float+0x22e>
 8000714:	e9d4 0112 	ldrd	r0, r1, [r4, #72]	; 0x48
 8000718:	2200      	movs	r2, #0
 800071a:	2300      	movs	r3, #0
 800071c:	f006 fbfe 	bl	8006f1c <__aeabi_dcmpeq>
 8000720:	2800      	cmp	r0, #0
 8000722:	d077      	beq.n	8000814 <_printf_float+0x3dc>
 8000724:	9b0a      	ldr	r3, [sp, #40]	; 0x28
 8000726:	2b01      	cmp	r3, #1
 8000728:	dd70      	ble.n	800080c <_printf_float+0x3d4>
 800072a:	f104 0a1a 	add.w	sl, r4, #26
 800072e:	f04f 0800 	mov.w	r8, #0
 8000732:	e00b      	b.n	800074c <_printf_float+0x314>
 8000734:	7fefffff 	.word	0x7fefffff
 8000738:	08008338 	.word	0x08008338
 800073c:	0800833c 	.word	0x0800833c
 8000740:	08008348 	.word	0x08008348
 8000744:	9b0a      	ldr	r3, [sp, #40]	; 0x28
 8000746:	3b01      	subs	r3, #1
 8000748:	4543      	cmp	r3, r8
 800074a:	dd5f      	ble.n	800080c <_printf_float+0x3d4>
 800074c:	2301      	movs	r3, #1
 800074e:	4652      	mov	r2, sl
 8000750:	4631      	mov	r1, r6
 8000752:	4628      	mov	r0, r5
 8000754:	4498      	add	r8, r3
 8000756:	47b8      	blx	r7
 8000758:	3001      	adds	r0, #1
 800075a:	d1f3      	bne.n	8000744 <_printf_float+0x30c>
 800075c:	e783      	b.n	8000666 <_printf_float+0x22e>
 800075e:	6863      	ldr	r3, [r4, #4]
 8000760:	4299      	cmp	r1, r3
 8000762:	f73f aefe 	bgt.w	8000562 <_printf_float+0x12a>
 8000766:	f04f 0a67 	mov.w	sl, #103	; 0x67
 800076a:	e705      	b.n	8000578 <_printf_float+0x140>
 800076c:	2900      	cmp	r1, #0
 800076e:	dd5b      	ble.n	8000828 <_printf_float+0x3f0>
 8000770:	6863      	ldr	r3, [r4, #4]
 8000772:	6121      	str	r1, [r4, #16]
 8000774:	2b00      	cmp	r3, #0
 8000776:	f000 8089 	beq.w	800088c <_printf_float+0x454>
 800077a:	3301      	adds	r3, #1
 800077c:	440b      	add	r3, r1
 800077e:	6123      	str	r3, [r4, #16]
 8000780:	e705      	b.n	800058e <_printf_float+0x156>
 8000782:	6823      	ldr	r3, [r4, #0]
 8000784:	6121      	str	r1, [r4, #16]
 8000786:	07db      	lsls	r3, r3, #31
 8000788:	f57f af01 	bpl.w	800058e <_printf_float+0x156>
 800078c:	1c4b      	adds	r3, r1, #1
 800078e:	6123      	str	r3, [r4, #16]
 8000790:	e6fd      	b.n	800058e <_printf_float+0x156>
 8000792:	9b09      	ldr	r3, [sp, #36]	; 0x24
 8000794:	2b00      	cmp	r3, #0
 8000796:	dd4f      	ble.n	8000838 <_printf_float+0x400>
 8000798:	9b0a      	ldr	r3, [sp, #40]	; 0x28
 800079a:	f8d4 a058 	ldr.w	sl, [r4, #88]	; 0x58
 800079e:	4553      	cmp	r3, sl
 80007a0:	bfa8      	it	ge
 80007a2:	4653      	movge	r3, sl
 80007a4:	2b00      	cmp	r3, #0
 80007a6:	469b      	mov	fp, r3
 80007a8:	dd08      	ble.n	80007bc <_printf_float+0x384>
 80007aa:	4642      	mov	r2, r8
 80007ac:	4631      	mov	r1, r6
 80007ae:	4628      	mov	r0, r5
 80007b0:	47b8      	blx	r7
 80007b2:	3001      	adds	r0, #1
 80007b4:	f43f af57 	beq.w	8000666 <_printf_float+0x22e>
 80007b8:	f8d4 a058 	ldr.w	sl, [r4, #88]	; 0x58
 80007bc:	ea2b 7beb 	bic.w	fp, fp, fp, asr #31
 80007c0:	ebaa 030b 	sub.w	r3, sl, fp
 80007c4:	2b00      	cmp	r3, #0
 80007c6:	dd6e      	ble.n	80008a6 <_printf_float+0x46e>
 80007c8:	f104 021a 	add.w	r2, r4, #26
 80007cc:	f04f 0900 	mov.w	r9, #0
 80007d0:	4692      	mov	sl, r2
 80007d2:	e004      	b.n	80007de <_printf_float+0x3a6>
 80007d4:	6da3      	ldr	r3, [r4, #88]	; 0x58
 80007d6:	eba3 020b 	sub.w	r2, r3, fp
 80007da:	454a      	cmp	r2, r9
 80007dc:	dd62      	ble.n	80008a4 <_printf_float+0x46c>
 80007de:	2301      	movs	r3, #1
 80007e0:	4652      	mov	r2, sl
 80007e2:	4631      	mov	r1, r6
 80007e4:	4628      	mov	r0, r5
 80007e6:	4499      	add	r9, r3
 80007e8:	47b8      	blx	r7
 80007ea:	3001      	adds	r0, #1
 80007ec:	d1f2      	bne.n	80007d4 <_printf_float+0x39c>
 80007ee:	e73a      	b.n	8000666 <_printf_float+0x22e>
 80007f0:	2101      	movs	r1, #1
 80007f2:	6061      	str	r1, [r4, #4]
 80007f4:	e69a      	b.n	800052c <_printf_float+0xf4>
 80007f6:	07db      	lsls	r3, r3, #31
 80007f8:	f53f af7d 	bmi.w	80006f6 <_printf_float+0x2be>
 80007fc:	4642      	mov	r2, r8
 80007fe:	2301      	movs	r3, #1
 8000800:	4631      	mov	r1, r6
 8000802:	4628      	mov	r0, r5
 8000804:	47b8      	blx	r7
 8000806:	3001      	adds	r0, #1
 8000808:	f43f af2d 	beq.w	8000666 <_printf_float+0x22e>
 800080c:	464b      	mov	r3, r9
 800080e:	f104 0250 	add.w	r2, r4, #80	; 0x50
 8000812:	e707      	b.n	8000624 <_printf_float+0x1ec>
 8000814:	9b0a      	ldr	r3, [sp, #40]	; 0x28
 8000816:	f108 0201 	add.w	r2, r8, #1
 800081a:	3b01      	subs	r3, #1
 800081c:	e7f0      	b.n	8000800 <_printf_float+0x3c8>
 800081e:	6822      	ldr	r2, [r4, #0]
 8000820:	07d2      	lsls	r2, r2, #31
 8000822:	f57f aeb7 	bpl.w	8000594 <_printf_float+0x15c>
 8000826:	e67c      	b.n	8000522 <_printf_float+0xea>
 8000828:	6863      	ldr	r3, [r4, #4]
 800082a:	2b00      	cmp	r3, #0
 800082c:	d133      	bne.n	8000896 <_printf_float+0x45e>
 800082e:	6822      	ldr	r2, [r4, #0]
 8000830:	07d2      	lsls	r2, r2, #31
 8000832:	d430      	bmi.n	8000896 <_printf_float+0x45e>
 8000834:	2301      	movs	r3, #1
 8000836:	e6a9      	b.n	800058c <_printf_float+0x154>
 8000838:	4a49      	ldr	r2, [pc, #292]	; (8000960 <_printf_float+0x528>)
 800083a:	2301      	movs	r3, #1
 800083c:	4631      	mov	r1, r6
 800083e:	4628      	mov	r0, r5
 8000840:	47b8      	blx	r7
 8000842:	3001      	adds	r0, #1
 8000844:	f43f af0f 	beq.w	8000666 <_printf_float+0x22e>
 8000848:	e9dd 2309 	ldrd	r2, r3, [sp, #36]	; 0x24
 800084c:	4313      	orrs	r3, r2
 800084e:	d024      	beq.n	800089a <_printf_float+0x462>
 8000850:	9b07      	ldr	r3, [sp, #28]
 8000852:	ee18 2a10 	vmov	r2, s16
 8000856:	4631      	mov	r1, r6
 8000858:	4628      	mov	r0, r5
 800085a:	47b8      	blx	r7
 800085c:	3001      	adds	r0, #1
 800085e:	f43f af02 	beq.w	8000666 <_printf_float+0x22e>
 8000862:	9b09      	ldr	r3, [sp, #36]	; 0x24
 8000864:	2b00      	cmp	r3, #0
 8000866:	da77      	bge.n	8000958 <_printf_float+0x520>
 8000868:	f104 0a1a 	add.w	sl, r4, #26
 800086c:	f04f 0900 	mov.w	r9, #0
 8000870:	e003      	b.n	800087a <_printf_float+0x442>
 8000872:	9b09      	ldr	r3, [sp, #36]	; 0x24
 8000874:	425b      	negs	r3, r3
 8000876:	454b      	cmp	r3, r9
 8000878:	dd6e      	ble.n	8000958 <_printf_float+0x520>
 800087a:	2301      	movs	r3, #1
 800087c:	4652      	mov	r2, sl
 800087e:	4631      	mov	r1, r6
 8000880:	4628      	mov	r0, r5
 8000882:	4499      	add	r9, r3
 8000884:	47b8      	blx	r7
 8000886:	3001      	adds	r0, #1
 8000888:	d1f3      	bne.n	8000872 <_printf_float+0x43a>
 800088a:	e6ec      	b.n	8000666 <_printf_float+0x22e>
 800088c:	6822      	ldr	r2, [r4, #0]
 800088e:	07d0      	lsls	r0, r2, #31
 8000890:	f57f ae7d 	bpl.w	800058e <_printf_float+0x156>
 8000894:	e771      	b.n	800077a <_printf_float+0x342>
 8000896:	3302      	adds	r3, #2
 8000898:	e678      	b.n	800058c <_printf_float+0x154>
 800089a:	6823      	ldr	r3, [r4, #0]
 800089c:	07da      	lsls	r2, r3, #31
 800089e:	f57f aec7 	bpl.w	8000630 <_printf_float+0x1f8>
 80008a2:	e7d5      	b.n	8000850 <_printf_float+0x418>
 80008a4:	469a      	mov	sl, r3
 80008a6:	e9dd 2109 	ldrd	r2, r1, [sp, #36]	; 0x24
 80008aa:	428a      	cmp	r2, r1
 80008ac:	db02      	blt.n	80008b4 <_printf_float+0x47c>
 80008ae:	6823      	ldr	r3, [r4, #0]
 80008b0:	07d8      	lsls	r0, r3, #31
 80008b2:	d50a      	bpl.n	80008ca <_printf_float+0x492>
 80008b4:	9b07      	ldr	r3, [sp, #28]
 80008b6:	ee18 2a10 	vmov	r2, s16
 80008ba:	4631      	mov	r1, r6
 80008bc:	4628      	mov	r0, r5
 80008be:	47b8      	blx	r7
 80008c0:	3001      	adds	r0, #1
 80008c2:	f43f aed0 	beq.w	8000666 <_printf_float+0x22e>
 80008c6:	e9dd 2109 	ldrd	r2, r1, [sp, #36]	; 0x24
 80008ca:	eba1 090a 	sub.w	r9, r1, sl
 80008ce:	1a8a      	subs	r2, r1, r2
 80008d0:	4591      	cmp	r9, r2
 80008d2:	bfa8      	it	ge
 80008d4:	4691      	movge	r9, r2
 80008d6:	f1b9 0f00 	cmp.w	r9, #0
 80008da:	dd0b      	ble.n	80008f4 <_printf_float+0x4bc>
 80008dc:	eb08 020a 	add.w	r2, r8, sl
 80008e0:	464b      	mov	r3, r9
 80008e2:	4631      	mov	r1, r6
 80008e4:	4628      	mov	r0, r5
 80008e6:	47b8      	blx	r7
 80008e8:	3001      	adds	r0, #1
 80008ea:	f43f aebc 	beq.w	8000666 <_printf_float+0x22e>
 80008ee:	e9dd 3209 	ldrd	r3, r2, [sp, #36]	; 0x24
 80008f2:	1ad2      	subs	r2, r2, r3
 80008f4:	ea29 79e9 	bic.w	r9, r9, r9, asr #31
 80008f8:	eba2 0309 	sub.w	r3, r2, r9
 80008fc:	2b00      	cmp	r3, #0
 80008fe:	f77f ae96 	ble.w	800062e <_printf_float+0x1f6>
 8000902:	f104 0a1a 	add.w	sl, r4, #26
 8000906:	f04f 0800 	mov.w	r8, #0
 800090a:	e007      	b.n	800091c <_printf_float+0x4e4>
 800090c:	e9dd 2309 	ldrd	r2, r3, [sp, #36]	; 0x24
 8000910:	1a9b      	subs	r3, r3, r2
 8000912:	eba3 0309 	sub.w	r3, r3, r9
 8000916:	4543      	cmp	r3, r8
 8000918:	f77f ae89 	ble.w	800062e <_printf_float+0x1f6>
 800091c:	2301      	movs	r3, #1
 800091e:	4652      	mov	r2, sl
 8000920:	4631      	mov	r1, r6
 8000922:	4628      	mov	r0, r5
 8000924:	4498      	add	r8, r3
 8000926:	47b8      	blx	r7
 8000928:	3001      	adds	r0, #1
 800092a:	d1ef      	bne.n	800090c <_printf_float+0x4d4>
 800092c:	e69b      	b.n	8000666 <_printf_float+0x22e>
 800092e:	464b      	mov	r3, r9
 8000930:	2b00      	cmp	r3, #0
 8000932:	bfbc      	itt	lt
 8000934:	232d      	movlt	r3, #45	; 0x2d
 8000936:	f884 3043 	strblt.w	r3, [r4, #67]	; 0x43
 800093a:	f02b 0304 	bic.w	r3, fp, #4
 800093e:	4a09      	ldr	r2, [pc, #36]	; (8000964 <_printf_float+0x52c>)
 8000940:	6023      	str	r3, [r4, #0]
 8000942:	4b09      	ldr	r3, [pc, #36]	; (8000968 <_printf_float+0x530>)
 8000944:	f1ba 0f47 	cmp.w	sl, #71	; 0x47
 8000948:	bf94      	ite	ls
 800094a:	4690      	movls	r8, r2
 800094c:	4698      	movhi	r8, r3
 800094e:	2303      	movs	r3, #3
 8000950:	6123      	str	r3, [r4, #16]
 8000952:	f04f 0900 	mov.w	r9, #0
 8000956:	e657      	b.n	8000608 <_printf_float+0x1d0>
 8000958:	9b0a      	ldr	r3, [sp, #40]	; 0x28
 800095a:	4642      	mov	r2, r8
 800095c:	e662      	b.n	8000624 <_printf_float+0x1ec>
 800095e:	bf00      	nop
 8000960:	08008348 	.word	0x08008348
 8000964:	08008340 	.word	0x08008340
 8000968:	08008344 	.word	0x08008344

0800096c <_printf_common>:
 800096c:	e92d 4ff8 	stmdb	sp!, {r3, r4, r5, r6, r7, r8, r9, sl, fp, lr}
 8000970:	4692      	mov	sl, r2
 8000972:	461f      	mov	r7, r3
 8000974:	690a      	ldr	r2, [r1, #16]
 8000976:	688b      	ldr	r3, [r1, #8]
 8000978:	f8dd 9028 	ldr.w	r9, [sp, #40]	; 0x28
 800097c:	429a      	cmp	r2, r3
 800097e:	bfb8      	it	lt
 8000980:	461a      	movlt	r2, r3
 8000982:	f8ca 2000 	str.w	r2, [sl]
 8000986:	f891 3043 	ldrb.w	r3, [r1, #67]	; 0x43
 800098a:	460c      	mov	r4, r1
 800098c:	4606      	mov	r6, r0
 800098e:	b113      	cbz	r3, 8000996 <_printf_common+0x2a>
 8000990:	3201      	adds	r2, #1
 8000992:	f8ca 2000 	str.w	r2, [sl]
 8000996:	6822      	ldr	r2, [r4, #0]
 8000998:	0691      	lsls	r1, r2, #26
 800099a:	d55d      	bpl.n	8000a58 <_printf_common+0xec>
 800099c:	f8da 3000 	ldr.w	r3, [sl]
 80009a0:	3302      	adds	r3, #2
 80009a2:	f8ca 3000 	str.w	r3, [sl]
 80009a6:	6822      	ldr	r2, [r4, #0]
 80009a8:	f012 0f06 	tst.w	r2, #6
 80009ac:	4611      	mov	r1, r2
 80009ae:	d11e      	bne.n	80009ee <_printf_common+0x82>
 80009b0:	68e1      	ldr	r1, [r4, #12]
 80009b2:	1acb      	subs	r3, r1, r3
 80009b4:	2b00      	cmp	r3, #0
 80009b6:	bfd8      	it	le
 80009b8:	4611      	movle	r1, r2
 80009ba:	dd18      	ble.n	80009ee <_printf_common+0x82>
 80009bc:	f104 0b19 	add.w	fp, r4, #25
 80009c0:	f04f 0800 	mov.w	r8, #0
 80009c4:	e005      	b.n	80009d2 <_printf_common+0x66>
 80009c6:	68e5      	ldr	r5, [r4, #12]
 80009c8:	f8da 3000 	ldr.w	r3, [sl]
 80009cc:	1aed      	subs	r5, r5, r3
 80009ce:	4545      	cmp	r5, r8
 80009d0:	dd0c      	ble.n	80009ec <_printf_common+0x80>
 80009d2:	2301      	movs	r3, #1
 80009d4:	465a      	mov	r2, fp
 80009d6:	4639      	mov	r1, r7
 80009d8:	4630      	mov	r0, r6
 80009da:	47c8      	blx	r9
 80009dc:	3001      	adds	r0, #1
 80009de:	f108 0801 	add.w	r8, r8, #1
 80009e2:	d1f0      	bne.n	80009c6 <_printf_common+0x5a>
 80009e4:	f04f 30ff 	mov.w	r0, #4294967295	; 0xffffffff
 80009e8:	e8bd 8ff8 	ldmia.w	sp!, {r3, r4, r5, r6, r7, r8, r9, sl, fp, pc}
 80009ec:	6821      	ldr	r1, [r4, #0]
 80009ee:	f894 3043 	ldrb.w	r3, [r4, #67]	; 0x43
 80009f2:	3b00      	subs	r3, #0
 80009f4:	bf18      	it	ne
 80009f6:	2301      	movne	r3, #1
 80009f8:	068a      	lsls	r2, r1, #26
 80009fa:	d50a      	bpl.n	8000a12 <_printf_common+0xa6>
 80009fc:	18e1      	adds	r1, r4, r3
 80009fe:	1c5a      	adds	r2, r3, #1
 8000a00:	2030      	movs	r0, #48	; 0x30
 8000a02:	f881 0043 	strb.w	r0, [r1, #67]	; 0x43
 8000a06:	4422      	add	r2, r4
 8000a08:	f894 1045 	ldrb.w	r1, [r4, #69]	; 0x45
 8000a0c:	f882 1043 	strb.w	r1, [r2, #67]	; 0x43
 8000a10:	3302      	adds	r3, #2
 8000a12:	f104 0243 	add.w	r2, r4, #67	; 0x43
 8000a16:	4639      	mov	r1, r7
 8000a18:	4630      	mov	r0, r6
 8000a1a:	47c8      	blx	r9
 8000a1c:	3001      	adds	r0, #1
 8000a1e:	d0e1      	beq.n	80009e4 <_printf_common+0x78>
 8000a20:	6823      	ldr	r3, [r4, #0]
 8000a22:	f003 0306 	and.w	r3, r3, #6
 8000a26:	2b04      	cmp	r3, #4
 8000a28:	d01d      	beq.n	8000a66 <_printf_common+0xfa>
 8000a2a:	68a3      	ldr	r3, [r4, #8]
 8000a2c:	6922      	ldr	r2, [r4, #16]
 8000a2e:	4293      	cmp	r3, r2
 8000a30:	dd25      	ble.n	8000a7e <_printf_common+0x112>
 8000a32:	f04f 0800 	mov.w	r8, #0
 8000a36:	1a9b      	subs	r3, r3, r2
 8000a38:	4498      	add	r8, r3
 8000a3a:	341a      	adds	r4, #26
 8000a3c:	2500      	movs	r5, #0
 8000a3e:	e001      	b.n	8000a44 <_printf_common+0xd8>
 8000a40:	4545      	cmp	r5, r8
 8000a42:	da1c      	bge.n	8000a7e <_printf_common+0x112>
 8000a44:	2301      	movs	r3, #1
 8000a46:	4622      	mov	r2, r4
 8000a48:	4639      	mov	r1, r7
 8000a4a:	4630      	mov	r0, r6
 8000a4c:	47c8      	blx	r9
 8000a4e:	3001      	adds	r0, #1
 8000a50:	f105 0501 	add.w	r5, r5, #1
 8000a54:	d1f4      	bne.n	8000a40 <_printf_common+0xd4>
 8000a56:	e7c5      	b.n	80009e4 <_printf_common+0x78>
 8000a58:	f012 0f06 	tst.w	r2, #6
 8000a5c:	d012      	beq.n	8000a84 <_printf_common+0x118>
 8000a5e:	3b00      	subs	r3, #0
 8000a60:	bf18      	it	ne
 8000a62:	2301      	movne	r3, #1
 8000a64:	e7d5      	b.n	8000a12 <_printf_common+0xa6>
 8000a66:	f8da 3000 	ldr.w	r3, [sl]
 8000a6a:	68e1      	ldr	r1, [r4, #12]
 8000a6c:	6922      	ldr	r2, [r4, #16]
 8000a6e:	1ac9      	subs	r1, r1, r3
 8000a70:	68a3      	ldr	r3, [r4, #8]
 8000a72:	4293      	cmp	r3, r2
 8000a74:	ea21 78e1 	bic.w	r8, r1, r1, asr #31
 8000a78:	dcdd      	bgt.n	8000a36 <_printf_common+0xca>
 8000a7a:	2900      	cmp	r1, #0
 8000a7c:	dcdd      	bgt.n	8000a3a <_printf_common+0xce>
 8000a7e:	2000      	movs	r0, #0
 8000a80:	e8bd 8ff8 	ldmia.w	sp!, {r3, r4, r5, r6, r7, r8, r9, sl, fp, pc}
 8000a84:	68e1      	ldr	r1, [r4, #12]
 8000a86:	f8da 3000 	ldr.w	r3, [sl]
 8000a8a:	1acb      	subs	r3, r1, r3
 8000a8c:	2b00      	cmp	r3, #0
 8000a8e:	bfd8      	it	le
 8000a90:	4611      	movle	r1, r2
 8000a92:	dc93      	bgt.n	80009bc <_printf_common+0x50>
 8000a94:	e7ab      	b.n	80009ee <_printf_common+0x82>
 8000a96:	bf00      	nop

08000a98 <_printf_i>:
 8000a98:	e92d 47f0 	stmdb	sp!, {r4, r5, r6, r7, r8, r9, sl, lr}
 8000a9c:	460c      	mov	r4, r1
 8000a9e:	b084      	sub	sp, #16
 8000aa0:	4690      	mov	r8, r2
 8000aa2:	7e22      	ldrb	r2, [r4, #24]
 8000aa4:	990c      	ldr	r1, [sp, #48]	; 0x30
 8000aa6:	4607      	mov	r7, r0
 8000aa8:	4699      	mov	r9, r3
 8000aaa:	f104 0043 	add.w	r0, r4, #67	; 0x43
 8000aae:	2a00      	cmp	r2, #0
 8000ab0:	d033      	beq.n	8000b1a <_printf_i+0x82>
 8000ab2:	f1a2 0358 	sub.w	r3, r2, #88	; 0x58
 8000ab6:	b2dd      	uxtb	r5, r3
 8000ab8:	2d20      	cmp	r5, #32
 8000aba:	d867      	bhi.n	8000b8c <_printf_i+0xf4>
 8000abc:	2b20      	cmp	r3, #32
 8000abe:	d865      	bhi.n	8000b8c <_printf_i+0xf4>
 8000ac0:	e8df f013 	tbh	[pc, r3, lsl #1]
 8000ac4:	006400de 	.word	0x006400de
 8000ac8:	00640064 	.word	0x00640064
 8000acc:	00640064 	.word	0x00640064
 8000ad0:	00640064 	.word	0x00640064
 8000ad4:	00640064 	.word	0x00640064
 8000ad8:	00a30064 	.word	0x00a30064
 8000adc:	0064006e 	.word	0x0064006e
 8000ae0:	00640064 	.word	0x00640064
 8000ae4:	006e0064 	.word	0x006e0064
 8000ae8:	00640064 	.word	0x00640064
 8000aec:	00640064 	.word	0x00640064
 8000af0:	007f0021 	.word	0x007f0021
 8000af4:	006400c0 	.word	0x006400c0
 8000af8:	00ae0064 	.word	0x00ae0064
 8000afc:	007f0064 	.word	0x007f0064
 8000b00:	00640064 	.word	0x00640064
 8000b04:	00e5      	.short	0x00e5
 8000b06:	6823      	ldr	r3, [r4, #0]
 8000b08:	061a      	lsls	r2, r3, #24
 8000b0a:	f140 8104 	bpl.w	8000d16 <_printf_i+0x27e>
 8000b0e:	680b      	ldr	r3, [r1, #0]
 8000b10:	6962      	ldr	r2, [r4, #20]
 8000b12:	1d1d      	adds	r5, r3, #4
 8000b14:	600d      	str	r5, [r1, #0]
 8000b16:	681b      	ldr	r3, [r3, #0]
 8000b18:	601a      	str	r2, [r3, #0]
 8000b1a:	2300      	movs	r3, #0
 8000b1c:	4682      	mov	sl, r0
 8000b1e:	6123      	str	r3, [r4, #16]
 8000b20:	f8cd 9000 	str.w	r9, [sp]
 8000b24:	4643      	mov	r3, r8
 8000b26:	aa03      	add	r2, sp, #12
 8000b28:	4621      	mov	r1, r4
 8000b2a:	4638      	mov	r0, r7
 8000b2c:	f7ff ff1e 	bl	800096c <_printf_common>
 8000b30:	3001      	adds	r0, #1
 8000b32:	d020      	beq.n	8000b76 <_printf_i+0xde>
 8000b34:	6923      	ldr	r3, [r4, #16]
 8000b36:	4652      	mov	r2, sl
 8000b38:	4641      	mov	r1, r8
 8000b3a:	4638      	mov	r0, r7
 8000b3c:	47c8      	blx	r9
 8000b3e:	3001      	adds	r0, #1
 8000b40:	d019      	beq.n	8000b76 <_printf_i+0xde>
 8000b42:	6823      	ldr	r3, [r4, #0]
 8000b44:	68e0      	ldr	r0, [r4, #12]
 8000b46:	9e03      	ldr	r6, [sp, #12]
 8000b48:	079b      	lsls	r3, r3, #30
 8000b4a:	d519      	bpl.n	8000b80 <_printf_i+0xe8>
 8000b4c:	1b83      	subs	r3, r0, r6
 8000b4e:	2b00      	cmp	r3, #0
 8000b50:	dd16      	ble.n	8000b80 <_printf_i+0xe8>
 8000b52:	f104 0a19 	add.w	sl, r4, #25
 8000b56:	2500      	movs	r5, #0
 8000b58:	e004      	b.n	8000b64 <_printf_i+0xcc>
 8000b5a:	68e0      	ldr	r0, [r4, #12]
 8000b5c:	9e03      	ldr	r6, [sp, #12]
 8000b5e:	1b83      	subs	r3, r0, r6
 8000b60:	42ab      	cmp	r3, r5
 8000b62:	dd0d      	ble.n	8000b80 <_printf_i+0xe8>
 8000b64:	2301      	movs	r3, #1
 8000b66:	4652      	mov	r2, sl
 8000b68:	4641      	mov	r1, r8
 8000b6a:	4638      	mov	r0, r7
 8000b6c:	47c8      	blx	r9
 8000b6e:	3001      	adds	r0, #1
 8000b70:	f105 0501 	add.w	r5, r5, #1
 8000b74:	d1f1      	bne.n	8000b5a <_printf_i+0xc2>
 8000b76:	f04f 30ff 	mov.w	r0, #4294967295	; 0xffffffff
 8000b7a:	b004      	add	sp, #16
 8000b7c:	e8bd 87f0 	ldmia.w	sp!, {r4, r5, r6, r7, r8, r9, sl, pc}
 8000b80:	42b0      	cmp	r0, r6
 8000b82:	bfb8      	it	lt
 8000b84:	4630      	movlt	r0, r6
 8000b86:	b004      	add	sp, #16
 8000b88:	e8bd 87f0 	ldmia.w	sp!, {r4, r5, r6, r7, r8, r9, sl, pc}
 8000b8c:	2301      	movs	r3, #1
 8000b8e:	f884 2042 	strb.w	r2, [r4, #66]	; 0x42
 8000b92:	6123      	str	r3, [r4, #16]
 8000b94:	f104 0a42 	add.w	sl, r4, #66	; 0x42
 8000b98:	2300      	movs	r3, #0
 8000b9a:	f884 3043 	strb.w	r3, [r4, #67]	; 0x43
 8000b9e:	e7bf      	b.n	8000b20 <_printf_i+0x88>
 8000ba0:	6823      	ldr	r3, [r4, #0]
 8000ba2:	061a      	lsls	r2, r3, #24
 8000ba4:	d402      	bmi.n	8000bac <_printf_i+0x114>
 8000ba6:	065e      	lsls	r6, r3, #25
 8000ba8:	f100 80c1 	bmi.w	8000d2e <_printf_i+0x296>
 8000bac:	680d      	ldr	r5, [r1, #0]
 8000bae:	682a      	ldr	r2, [r5, #0]
 8000bb0:	3504      	adds	r5, #4
 8000bb2:	600d      	str	r5, [r1, #0]
 8000bb4:	4615      	mov	r5, r2
 8000bb6:	2a00      	cmp	r2, #0
 8000bb8:	db6b      	blt.n	8000c92 <_printf_i+0x1fa>
 8000bba:	f8df c184 	ldr.w	ip, [pc, #388]	; 8000d40 <_printf_i+0x2a8>
 8000bbe:	260a      	movs	r6, #10
 8000bc0:	e010      	b.n	8000be4 <_printf_i+0x14c>
 8000bc2:	6823      	ldr	r3, [r4, #0]
 8000bc4:	061d      	lsls	r5, r3, #24
 8000bc6:	f140 809c 	bpl.w	8000d02 <_printf_i+0x26a>
 8000bca:	680b      	ldr	r3, [r1, #0]
 8000bcc:	1d1d      	adds	r5, r3, #4
 8000bce:	600d      	str	r5, [r1, #0]
 8000bd0:	681d      	ldr	r5, [r3, #0]
 8000bd2:	f8df c16c 	ldr.w	ip, [pc, #364]	; 8000d40 <_printf_i+0x2a8>
 8000bd6:	2a6f      	cmp	r2, #111	; 0x6f
 8000bd8:	bf0c      	ite	eq
 8000bda:	2608      	moveq	r6, #8
 8000bdc:	260a      	movne	r6, #10
 8000bde:	2300      	movs	r3, #0
 8000be0:	f884 3043 	strb.w	r3, [r4, #67]	; 0x43
 8000be4:	6862      	ldr	r2, [r4, #4]
 8000be6:	60a2      	str	r2, [r4, #8]
 8000be8:	2a00      	cmp	r2, #0
 8000bea:	db7f      	blt.n	8000cec <_printf_i+0x254>
 8000bec:	6823      	ldr	r3, [r4, #0]
 8000bee:	f023 0304 	bic.w	r3, r3, #4
 8000bf2:	6023      	str	r3, [r4, #0]
 8000bf4:	2d00      	cmp	r5, #0
 8000bf6:	d15b      	bne.n	8000cb0 <_printf_i+0x218>
 8000bf8:	2a00      	cmp	r2, #0
 8000bfa:	d179      	bne.n	8000cf0 <_printf_i+0x258>
 8000bfc:	4682      	mov	sl, r0
 8000bfe:	2e08      	cmp	r6, #8
 8000c00:	d065      	beq.n	8000cce <_printf_i+0x236>
 8000c02:	eba0 000a 	sub.w	r0, r0, sl
 8000c06:	6120      	str	r0, [r4, #16]
 8000c08:	e78a      	b.n	8000b20 <_printf_i+0x88>
 8000c0a:	680b      	ldr	r3, [r1, #0]
 8000c0c:	2201      	movs	r2, #1
 8000c0e:	6818      	ldr	r0, [r3, #0]
 8000c10:	3304      	adds	r3, #4
 8000c12:	600b      	str	r3, [r1, #0]
 8000c14:	f104 0a42 	add.w	sl, r4, #66	; 0x42
 8000c18:	f884 0042 	strb.w	r0, [r4, #66]	; 0x42
 8000c1c:	6122      	str	r2, [r4, #16]
 8000c1e:	e7bb      	b.n	8000b98 <_printf_i+0x100>
 8000c20:	680b      	ldr	r3, [r1, #0]
 8000c22:	6862      	ldr	r2, [r4, #4]
 8000c24:	1d18      	adds	r0, r3, #4
 8000c26:	6008      	str	r0, [r1, #0]
 8000c28:	f8d3 a000 	ldr.w	sl, [r3]
 8000c2c:	2100      	movs	r1, #0
 8000c2e:	4650      	mov	r0, sl
 8000c30:	f003 fbd6 	bl	80043e0 <memchr>
 8000c34:	2800      	cmp	r0, #0
 8000c36:	f000 8081 	beq.w	8000d3c <_printf_i+0x2a4>
 8000c3a:	eba0 000a 	sub.w	r0, r0, sl
 8000c3e:	6060      	str	r0, [r4, #4]
 8000c40:	6120      	str	r0, [r4, #16]
 8000c42:	e7a9      	b.n	8000b98 <_printf_i+0x100>
 8000c44:	6823      	ldr	r3, [r4, #0]
 8000c46:	f043 0320 	orr.w	r3, r3, #32
 8000c4a:	6023      	str	r3, [r4, #0]
 8000c4c:	2278      	movs	r2, #120	; 0x78
 8000c4e:	f8df c0f4 	ldr.w	ip, [pc, #244]	; 8000d44 <_printf_i+0x2ac>
 8000c52:	f884 2045 	strb.w	r2, [r4, #69]	; 0x45
 8000c56:	680a      	ldr	r2, [r1, #0]
 8000c58:	1d15      	adds	r5, r2, #4
 8000c5a:	600d      	str	r5, [r1, #0]
 8000c5c:	061d      	lsls	r5, r3, #24
 8000c5e:	d443      	bmi.n	8000ce8 <_printf_i+0x250>
 8000c60:	0659      	lsls	r1, r3, #25
 8000c62:	d541      	bpl.n	8000ce8 <_printf_i+0x250>
 8000c64:	8815      	ldrh	r5, [r2, #0]
 8000c66:	07de      	lsls	r6, r3, #31
 8000c68:	bf44      	itt	mi
 8000c6a:	f043 0320 	orrmi.w	r3, r3, #32
 8000c6e:	6023      	strmi	r3, [r4, #0]
 8000c70:	2d00      	cmp	r5, #0
 8000c72:	d144      	bne.n	8000cfe <_printf_i+0x266>
 8000c74:	6823      	ldr	r3, [r4, #0]
 8000c76:	f023 0320 	bic.w	r3, r3, #32
 8000c7a:	6023      	str	r3, [r4, #0]
 8000c7c:	2610      	movs	r6, #16
 8000c7e:	e7ae      	b.n	8000bde <_printf_i+0x146>
 8000c80:	2358      	movs	r3, #88	; 0x58
 8000c82:	f884 3045 	strb.w	r3, [r4, #69]	; 0x45
 8000c86:	f8df c0b8 	ldr.w	ip, [pc, #184]	; 8000d40 <_printf_i+0x2a8>
 8000c8a:	6823      	ldr	r3, [r4, #0]
 8000c8c:	e7e3      	b.n	8000c56 <_printf_i+0x1be>
 8000c8e:	6823      	ldr	r3, [r4, #0]
 8000c90:	e7dc      	b.n	8000c4c <_printf_i+0x1b4>
 8000c92:	6862      	ldr	r2, [r4, #4]
 8000c94:	60a2      	str	r2, [r4, #8]
 8000c96:	212d      	movs	r1, #45	; 0x2d
 8000c98:	2a00      	cmp	r2, #0
 8000c9a:	f1c5 0500 	rsb	r5, r5, #0
 8000c9e:	f884 1043 	strb.w	r1, [r4, #67]	; 0x43
 8000ca2:	db02      	blt.n	8000caa <_printf_i+0x212>
 8000ca4:	f023 0304 	bic.w	r3, r3, #4
 8000ca8:	6023      	str	r3, [r4, #0]
 8000caa:	f8df c094 	ldr.w	ip, [pc, #148]	; 8000d40 <_printf_i+0x2a8>
 8000cae:	260a      	movs	r6, #10
 8000cb0:	4682      	mov	sl, r0
 8000cb2:	fbb5 f3f6 	udiv	r3, r5, r6
 8000cb6:	fb06 5113 	mls	r1, r6, r3, r5
 8000cba:	462a      	mov	r2, r5
 8000cbc:	f81c 1001 	ldrb.w	r1, [ip, r1]
 8000cc0:	f80a 1d01 	strb.w	r1, [sl, #-1]!
 8000cc4:	42b2      	cmp	r2, r6
 8000cc6:	461d      	mov	r5, r3
 8000cc8:	d2f3      	bcs.n	8000cb2 <_printf_i+0x21a>
 8000cca:	2e08      	cmp	r6, #8
 8000ccc:	d199      	bne.n	8000c02 <_printf_i+0x16a>
 8000cce:	6823      	ldr	r3, [r4, #0]
 8000cd0:	07d9      	lsls	r1, r3, #31
 8000cd2:	d596      	bpl.n	8000c02 <_printf_i+0x16a>
 8000cd4:	6862      	ldr	r2, [r4, #4]
 8000cd6:	6923      	ldr	r3, [r4, #16]
 8000cd8:	429a      	cmp	r2, r3
 8000cda:	dc92      	bgt.n	8000c02 <_printf_i+0x16a>
 8000cdc:	2330      	movs	r3, #48	; 0x30
 8000cde:	f80a 3c01 	strb.w	r3, [sl, #-1]
 8000ce2:	f10a 3aff 	add.w	sl, sl, #4294967295	; 0xffffffff
 8000ce6:	e78c      	b.n	8000c02 <_printf_i+0x16a>
 8000ce8:	6815      	ldr	r5, [r2, #0]
 8000cea:	e7bc      	b.n	8000c66 <_printf_i+0x1ce>
 8000cec:	2d00      	cmp	r5, #0
 8000cee:	d1df      	bne.n	8000cb0 <_printf_i+0x218>
 8000cf0:	f89c 3000 	ldrb.w	r3, [ip]
 8000cf4:	f884 3042 	strb.w	r3, [r4, #66]	; 0x42
 8000cf8:	f104 0a42 	add.w	sl, r4, #66	; 0x42
 8000cfc:	e77f      	b.n	8000bfe <_printf_i+0x166>
 8000cfe:	2610      	movs	r6, #16
 8000d00:	e76d      	b.n	8000bde <_printf_i+0x146>
 8000d02:	f013 0f40 	tst.w	r3, #64	; 0x40
 8000d06:	680b      	ldr	r3, [r1, #0]
 8000d08:	f103 0504 	add.w	r5, r3, #4
 8000d0c:	600d      	str	r5, [r1, #0]
 8000d0e:	bf0c      	ite	eq
 8000d10:	681d      	ldreq	r5, [r3, #0]
 8000d12:	881d      	ldrhne	r5, [r3, #0]
 8000d14:	e75d      	b.n	8000bd2 <_printf_i+0x13a>
 8000d16:	f013 0f40 	tst.w	r3, #64	; 0x40
 8000d1a:	680b      	ldr	r3, [r1, #0]
 8000d1c:	6962      	ldr	r2, [r4, #20]
 8000d1e:	f103 0504 	add.w	r5, r3, #4
 8000d22:	600d      	str	r5, [r1, #0]
 8000d24:	681b      	ldr	r3, [r3, #0]
 8000d26:	bf14      	ite	ne
 8000d28:	801a      	strhne	r2, [r3, #0]
 8000d2a:	601a      	streq	r2, [r3, #0]
 8000d2c:	e6f5      	b.n	8000b1a <_printf_i+0x82>
 8000d2e:	680a      	ldr	r2, [r1, #0]
 8000d30:	f9b2 5000 	ldrsh.w	r5, [r2]
 8000d34:	3204      	adds	r2, #4
 8000d36:	600a      	str	r2, [r1, #0]
 8000d38:	462a      	mov	r2, r5
 8000d3a:	e73c      	b.n	8000bb6 <_printf_i+0x11e>
 8000d3c:	6860      	ldr	r0, [r4, #4]
 8000d3e:	e77f      	b.n	8000c40 <_printf_i+0x1a8>
 8000d40:	0800834c 	.word	0x0800834c
 8000d44:	08008360 	.word	0x08008360

08000d48 <_scanf_float>:
 8000d48:	e92d 4ff0 	stmdb	sp!, {r4, r5, r6, r7, r8, r9, sl, fp, lr}
 8000d4c:	460c      	mov	r4, r1
 8000d4e:	b087      	sub	sp, #28
 8000d50:	6889      	ldr	r1, [r1, #8]
 8000d52:	9305      	str	r3, [sp, #20]
 8000d54:	1e4b      	subs	r3, r1, #1
 8000d56:	f5b3 7fae 	cmp.w	r3, #348	; 0x15c
 8000d5a:	4606      	mov	r6, r0
 8000d5c:	4690      	mov	r8, r2
 8000d5e:	f240 8197 	bls.w	8001090 <_scanf_float+0x348>
 8000d62:	f46f 75ae 	mvn.w	r5, #348	; 0x15c
 8000d66:	194b      	adds	r3, r1, r5
 8000d68:	9303      	str	r3, [sp, #12]
 8000d6a:	6823      	ldr	r3, [r4, #0]
 8000d6c:	4627      	mov	r7, r4
 8000d6e:	f443 63f0 	orr.w	r3, r3, #1920	; 0x780
 8000d72:	f240 115d 	movw	r1, #349	; 0x15d
 8000d76:	60a1      	str	r1, [r4, #8]
 8000d78:	f847 3b1c 	str.w	r3, [r7], #28
 8000d7c:	f04f 0b00 	mov.w	fp, #0
 8000d80:	463d      	mov	r5, r7
 8000d82:	46da      	mov	sl, fp
 8000d84:	f8cd b010 	str.w	fp, [sp, #16]
 8000d88:	f8cd b008 	str.w	fp, [sp, #8]
 8000d8c:	46d9      	mov	r9, fp
 8000d8e:	f8cd b004 	str.w	fp, [sp, #4]
 8000d92:	f8d8 3000 	ldr.w	r3, [r8]
 8000d96:	781a      	ldrb	r2, [r3, #0]
 8000d98:	f1a2 032b 	sub.w	r3, r2, #43	; 0x2b
 8000d9c:	2b4e      	cmp	r3, #78	; 0x4e
 8000d9e:	d872      	bhi.n	8000e86 <_scanf_float+0x13e>
 8000da0:	e8df f013 	tbh	[pc, r3, lsl #1]
 8000da4:	0071012d 	.word	0x0071012d
 8000da8:	015f012d 	.word	0x015f012d
 8000dac:	004f0071 	.word	0x004f0071
 8000db0:	00530053 	.word	0x00530053
 8000db4:	00530053 	.word	0x00530053
 8000db8:	00530053 	.word	0x00530053
 8000dbc:	00530053 	.word	0x00530053
 8000dc0:	00710053 	.word	0x00710053
 8000dc4:	00710071 	.word	0x00710071
 8000dc8:	00710071 	.word	0x00710071
 8000dcc:	00710071 	.word	0x00710071
 8000dd0:	00710158 	.word	0x00710158
 8000dd4:	00710071 	.word	0x00710071
 8000dd8:	0135013c 	.word	0x0135013c
 8000ddc:	00710071 	.word	0x00710071
 8000de0:	007100e6 	.word	0x007100e6
 8000de4:	00710071 	.word	0x00710071
 8000de8:	011a0071 	.word	0x011a0071
 8000dec:	00710071 	.word	0x00710071
 8000df0:	00710071 	.word	0x00710071
 8000df4:	01130071 	.word	0x01130071
 8000df8:	00710071 	.word	0x00710071
 8000dfc:	00710071 	.word	0x00710071
 8000e00:	0071010c 	.word	0x0071010c
 8000e04:	00710071 	.word	0x00710071
 8000e08:	00710071 	.word	0x00710071
 8000e0c:	00710071 	.word	0x00710071
 8000e10:	00710158 	.word	0x00710158
 8000e14:	00710071 	.word	0x00710071
 8000e18:	0135013c 	.word	0x0135013c
 8000e1c:	00710071 	.word	0x00710071
 8000e20:	007100e6 	.word	0x007100e6
 8000e24:	00710071 	.word	0x00710071
 8000e28:	011a0071 	.word	0x011a0071
 8000e2c:	00710071 	.word	0x00710071
 8000e30:	00710071 	.word	0x00710071
 8000e34:	01130071 	.word	0x01130071
 8000e38:	00710071 	.word	0x00710071
 8000e3c:	00710071 	.word	0x00710071
 8000e40:	010c      	.short	0x010c
 8000e42:	6823      	ldr	r3, [r4, #0]
 8000e44:	05d8      	lsls	r0, r3, #23
 8000e46:	f100 813d 	bmi.w	80010c4 <_scanf_float+0x37c>
 8000e4a:	eb1a 0f0b 	cmn.w	sl, fp
 8000e4e:	d11a      	bne.n	8000e86 <_scanf_float+0x13e>
 8000e50:	6823      	ldr	r3, [r4, #0]
 8000e52:	f423 73c0 	bic.w	r3, r3, #384	; 0x180
 8000e56:	6023      	str	r3, [r4, #0]
 8000e58:	f805 2b01 	strb.w	r2, [r5], #1
 8000e5c:	68a1      	ldr	r1, [r4, #8]
 8000e5e:	3901      	subs	r1, #1
 8000e60:	6923      	ldr	r3, [r4, #16]
 8000e62:	60a1      	str	r1, [r4, #8]
 8000e64:	3301      	adds	r3, #1
 8000e66:	6123      	str	r3, [r4, #16]
 8000e68:	f8d8 3004 	ldr.w	r3, [r8, #4]
 8000e6c:	3b01      	subs	r3, #1
 8000e6e:	2b00      	cmp	r3, #0
 8000e70:	f8c8 3004 	str.w	r3, [r8, #4]
 8000e74:	f340 80ff 	ble.w	8001076 <_scanf_float+0x32e>
 8000e78:	f8d8 3000 	ldr.w	r3, [r8]
 8000e7c:	3301      	adds	r3, #1
 8000e7e:	f8c8 3000 	str.w	r3, [r8]
 8000e82:	2900      	cmp	r1, #0
 8000e84:	d185      	bne.n	8000d92 <_scanf_float+0x4a>
 8000e86:	f1b9 0f00 	cmp.w	r9, #0
 8000e8a:	d179      	bne.n	8000f80 <_scanf_float+0x238>
 8000e8c:	f10a 3aff 	add.w	sl, sl, #4294967295	; 0xffffffff
 8000e90:	f1ba 0f01 	cmp.w	sl, #1
 8000e94:	d97d      	bls.n	8000f92 <_scanf_float+0x24a>
 8000e96:	f10b 33ff 	add.w	r3, fp, #4294967295	; 0xffffffff
 8000e9a:	2b06      	cmp	r3, #6
 8000e9c:	d81a      	bhi.n	8000ed4 <_scanf_float+0x18c>
 8000e9e:	f1bb 0f02 	cmp.w	fp, #2
 8000ea2:	f240 8158 	bls.w	8001156 <_scanf_float+0x40e>
 8000ea6:	f1bb 0f03 	cmp.w	fp, #3
 8000eaa:	d013      	beq.n	8000ed4 <_scanf_float+0x18c>
 8000eac:	f1ab 0a04 	sub.w	sl, fp, #4
 8000eb0:	fa5f fa8a 	uxtb.w	sl, sl
 8000eb4:	ea6f 0a0a 	mvn.w	sl, sl
 8000eb8:	44aa      	add	sl, r5
 8000eba:	f8d4 317c 	ldr.w	r3, [r4, #380]	; 0x17c
 8000ebe:	f815 1d01 	ldrb.w	r1, [r5, #-1]!
 8000ec2:	4642      	mov	r2, r8
 8000ec4:	4630      	mov	r0, r6
 8000ec6:	4798      	blx	r3
 8000ec8:	6923      	ldr	r3, [r4, #16]
 8000eca:	45aa      	cmp	sl, r5
 8000ecc:	f103 33ff 	add.w	r3, r3, #4294967295	; 0xffffffff
 8000ed0:	6123      	str	r3, [r4, #16]
 8000ed2:	d1f2      	bne.n	8000eba <_scanf_float+0x172>
 8000ed4:	6823      	ldr	r3, [r4, #0]
 8000ed6:	05d8      	lsls	r0, r3, #23
 8000ed8:	461a      	mov	r2, r3
 8000eda:	d51f      	bpl.n	8000f1c <_scanf_float+0x1d4>
 8000edc:	0559      	lsls	r1, r3, #21
 8000ede:	f100 814b 	bmi.w	8001178 <_scanf_float+0x430>
 8000ee2:	6923      	ldr	r3, [r4, #16]
 8000ee4:	f815 1c01 	ldrb.w	r1, [r5, #-1]
 8000ee8:	3b01      	subs	r3, #1
 8000eea:	2965      	cmp	r1, #101	; 0x65
 8000eec:	6123      	str	r3, [r4, #16]
 8000eee:	f105 33ff 	add.w	r3, r5, #4294967295	; 0xffffffff
 8000ef2:	d00c      	beq.n	8000f0e <_scanf_float+0x1c6>
 8000ef4:	2945      	cmp	r1, #69	; 0x45
 8000ef6:	d00a      	beq.n	8000f0e <_scanf_float+0x1c6>
 8000ef8:	f8d4 317c 	ldr.w	r3, [r4, #380]	; 0x17c
 8000efc:	4642      	mov	r2, r8
 8000efe:	4630      	mov	r0, r6
 8000f00:	4798      	blx	r3
 8000f02:	6923      	ldr	r3, [r4, #16]
 8000f04:	f815 1c02 	ldrb.w	r1, [r5, #-2]
 8000f08:	3b01      	subs	r3, #1
 8000f0a:	6123      	str	r3, [r4, #16]
 8000f0c:	1eab      	subs	r3, r5, #2
 8000f0e:	4642      	mov	r2, r8
 8000f10:	461d      	mov	r5, r3
 8000f12:	4630      	mov	r0, r6
 8000f14:	f8d4 317c 	ldr.w	r3, [r4, #380]	; 0x17c
 8000f18:	4798      	blx	r3
 8000f1a:	6822      	ldr	r2, [r4, #0]
 8000f1c:	f012 0810 	ands.w	r8, r2, #16
 8000f20:	f040 80dd 	bne.w	80010de <_scanf_float+0x396>
 8000f24:	f885 8000 	strb.w	r8, [r5]
 8000f28:	6823      	ldr	r3, [r4, #0]
 8000f2a:	f403 63c0 	and.w	r3, r3, #1536	; 0x600
 8000f2e:	f5b3 6f80 	cmp.w	r3, #1024	; 0x400
 8000f32:	f000 80f4 	beq.w	800111e <_scanf_float+0x3d6>
 8000f36:	9b02      	ldr	r3, [sp, #8]
 8000f38:	2b00      	cmp	r3, #0
 8000f3a:	f040 813e 	bne.w	80011ba <_scanf_float+0x472>
 8000f3e:	4639      	mov	r1, r7
 8000f40:	4630      	mov	r0, r6
 8000f42:	2200      	movs	r2, #0
 8000f44:	f001 fa74 	bl	8002430 <_strtod_r>
 8000f48:	6823      	ldr	r3, [r4, #0]
 8000f4a:	9905      	ldr	r1, [sp, #20]
 8000f4c:	079a      	lsls	r2, r3, #30
 8000f4e:	ec57 6b10 	vmov	r6, r7, d0
 8000f52:	f140 80f5 	bpl.w	8001140 <_scanf_float+0x3f8>
 8000f56:	680b      	ldr	r3, [r1, #0]
 8000f58:	1d1a      	adds	r2, r3, #4
 8000f5a:	600a      	str	r2, [r1, #0]
 8000f5c:	681b      	ldr	r3, [r3, #0]
 8000f5e:	ed83 0b00 	vstr	d0, [r3]
 8000f62:	68e3      	ldr	r3, [r4, #12]
 8000f64:	4640      	mov	r0, r8
 8000f66:	3301      	adds	r3, #1
 8000f68:	60e3      	str	r3, [r4, #12]
 8000f6a:	b007      	add	sp, #28
 8000f6c:	e8bd 8ff0 	ldmia.w	sp!, {r4, r5, r6, r7, r8, r9, sl, fp, pc}
 8000f70:	f1bb 0f00 	cmp.w	fp, #0
 8000f74:	f040 8095 	bne.w	80010a2 <_scanf_float+0x35a>
 8000f78:	f1b9 0f00 	cmp.w	r9, #0
 8000f7c:	f000 80c2 	beq.w	8001104 <_scanf_float+0x3bc>
 8000f80:	6823      	ldr	r3, [r4, #0]
 8000f82:	f10a 3aff 	add.w	sl, sl, #4294967295	; 0xffffffff
 8000f86:	f423 7380 	bic.w	r3, r3, #256	; 0x100
 8000f8a:	f1ba 0f01 	cmp.w	sl, #1
 8000f8e:	6023      	str	r3, [r4, #0]
 8000f90:	d881      	bhi.n	8000e96 <_scanf_float+0x14e>
 8000f92:	42af      	cmp	r7, r5
 8000f94:	d20c      	bcs.n	8000fb0 <_scanf_float+0x268>
 8000f96:	f8d4 317c 	ldr.w	r3, [r4, #380]	; 0x17c
 8000f9a:	f815 1d01 	ldrb.w	r1, [r5, #-1]!
 8000f9e:	4642      	mov	r2, r8
 8000fa0:	4630      	mov	r0, r6
 8000fa2:	4798      	blx	r3
 8000fa4:	6923      	ldr	r3, [r4, #16]
 8000fa6:	42bd      	cmp	r5, r7
 8000fa8:	f103 33ff 	add.w	r3, r3, #4294967295	; 0xffffffff
 8000fac:	6123      	str	r3, [r4, #16]
 8000fae:	d1f2      	bne.n	8000f96 <_scanf_float+0x24e>
 8000fb0:	f04f 0801 	mov.w	r8, #1
 8000fb4:	4640      	mov	r0, r8
 8000fb6:	b007      	add	sp, #28
 8000fb8:	e8bd 8ff0 	ldmia.w	sp!, {r4, r5, r6, r7, r8, r9, sl, fp, pc}
 8000fbc:	f1bb 0f07 	cmp.w	fp, #7
 8000fc0:	f47f af61 	bne.w	8000e86 <_scanf_float+0x13e>
 8000fc4:	f04f 0b08 	mov.w	fp, #8
 8000fc8:	e746      	b.n	8000e58 <_scanf_float+0x110>
 8000fca:	f1bb 0f06 	cmp.w	fp, #6
 8000fce:	f47f af5a 	bne.w	8000e86 <_scanf_float+0x13e>
 8000fd2:	f04f 0b07 	mov.w	fp, #7
 8000fd6:	e73f      	b.n	8000e58 <_scanf_float+0x110>
 8000fd8:	f1ba 0f00 	cmp.w	sl, #0
 8000fdc:	d16c      	bne.n	80010b8 <_scanf_float+0x370>
 8000fde:	f1b9 0f00 	cmp.w	r9, #0
 8000fe2:	f000 8082 	beq.w	80010ea <_scanf_float+0x3a2>
 8000fe6:	f1bb 0f01 	cmp.w	fp, #1
 8000fea:	d003      	beq.n	8000ff4 <_scanf_float+0x2ac>
 8000fec:	f1bb 0f04 	cmp.w	fp, #4
 8000ff0:	f47f af49 	bne.w	8000e86 <_scanf_float+0x13e>
 8000ff4:	f10b 0b01 	add.w	fp, fp, #1
 8000ff8:	fa5f fb8b 	uxtb.w	fp, fp
 8000ffc:	e72c      	b.n	8000e58 <_scanf_float+0x110>
 8000ffe:	6823      	ldr	r3, [r4, #0]
 8001000:	0618      	lsls	r0, r3, #24
 8001002:	f57f af40 	bpl.w	8000e86 <_scanf_float+0x13e>
 8001006:	f023 0380 	bic.w	r3, r3, #128	; 0x80
 800100a:	6023      	str	r3, [r4, #0]
 800100c:	e724      	b.n	8000e58 <_scanf_float+0x110>
 800100e:	f1bb 0f02 	cmp.w	fp, #2
 8001012:	f47f af38 	bne.w	8000e86 <_scanf_float+0x13e>
 8001016:	f04f 0b03 	mov.w	fp, #3
 800101a:	e71d      	b.n	8000e58 <_scanf_float+0x110>
 800101c:	6823      	ldr	r3, [r4, #0]
 800101e:	f403 61a0 	and.w	r1, r3, #1280	; 0x500
 8001022:	f5b1 6f80 	cmp.w	r1, #1024	; 0x400
 8001026:	d006      	beq.n	8001036 <_scanf_float+0x2ee>
 8001028:	0558      	lsls	r0, r3, #21
 800102a:	f57f af2c 	bpl.w	8000e86 <_scanf_float+0x13e>
 800102e:	f1b9 0f00 	cmp.w	r9, #0
 8001032:	f43f af2b 	beq.w	8000e8c <_scanf_float+0x144>
 8001036:	0599      	lsls	r1, r3, #22
 8001038:	d404      	bmi.n	8001044 <_scanf_float+0x2fc>
 800103a:	9901      	ldr	r1, [sp, #4]
 800103c:	9504      	str	r5, [sp, #16]
 800103e:	eba9 0101 	sub.w	r1, r9, r1
 8001042:	9102      	str	r1, [sp, #8]
 8001044:	f423 63f0 	bic.w	r3, r3, #1920	; 0x780
 8001048:	f443 73c0 	orr.w	r3, r3, #384	; 0x180
 800104c:	6023      	str	r3, [r4, #0]
 800104e:	f04f 0900 	mov.w	r9, #0
 8001052:	e701      	b.n	8000e58 <_scanf_float+0x110>
 8001054:	f1ba 0f01 	cmp.w	sl, #1
 8001058:	f47f af15 	bne.w	8000e86 <_scanf_float+0x13e>
 800105c:	f04f 0a02 	mov.w	sl, #2
 8001060:	e6fa      	b.n	8000e58 <_scanf_float+0x110>
 8001062:	6823      	ldr	r3, [r4, #0]
 8001064:	0599      	lsls	r1, r3, #22
 8001066:	f57f af0e 	bpl.w	8000e86 <_scanf_float+0x13e>
 800106a:	f423 7320 	bic.w	r3, r3, #640	; 0x280
 800106e:	6023      	str	r3, [r4, #0]
 8001070:	f8cd 9004 	str.w	r9, [sp, #4]
 8001074:	e6f0      	b.n	8000e58 <_scanf_float+0x110>
 8001076:	f8d4 3180 	ldr.w	r3, [r4, #384]	; 0x180
 800107a:	4641      	mov	r1, r8
 800107c:	4630      	mov	r0, r6
 800107e:	4798      	blx	r3
 8001080:	2800      	cmp	r0, #0
 8001082:	f47f af00 	bne.w	8000e86 <_scanf_float+0x13e>
 8001086:	68a1      	ldr	r1, [r4, #8]
 8001088:	2900      	cmp	r1, #0
 800108a:	f47f ae82 	bne.w	8000d92 <_scanf_float+0x4a>
 800108e:	e6fa      	b.n	8000e86 <_scanf_float+0x13e>
 8001090:	6823      	ldr	r3, [r4, #0]
 8001092:	4627      	mov	r7, r4
 8001094:	f443 63f0 	orr.w	r3, r3, #1920	; 0x780
 8001098:	f847 3b1c 	str.w	r3, [r7], #28
 800109c:	2300      	movs	r3, #0
 800109e:	9303      	str	r3, [sp, #12]
 80010a0:	e66c      	b.n	8000d7c <_scanf_float+0x34>
 80010a2:	f1bb 0f03 	cmp.w	fp, #3
 80010a6:	d0a5      	beq.n	8000ff4 <_scanf_float+0x2ac>
 80010a8:	f1bb 0f05 	cmp.w	fp, #5
 80010ac:	d0a2      	beq.n	8000ff4 <_scanf_float+0x2ac>
 80010ae:	f1b9 0f00 	cmp.w	r9, #0
 80010b2:	f43f aeeb 	beq.w	8000e8c <_scanf_float+0x144>
 80010b6:	e763      	b.n	8000f80 <_scanf_float+0x238>
 80010b8:	f1ba 0f02 	cmp.w	sl, #2
 80010bc:	d193      	bne.n	8000fe6 <_scanf_float+0x29e>
 80010be:	f04f 0a03 	mov.w	sl, #3
 80010c2:	e6c9      	b.n	8000e58 <_scanf_float+0x110>
 80010c4:	f023 0380 	bic.w	r3, r3, #128	; 0x80
 80010c8:	6023      	str	r3, [r4, #0]
 80010ca:	9b03      	ldr	r3, [sp, #12]
 80010cc:	f109 0901 	add.w	r9, r9, #1
 80010d0:	2b00      	cmp	r3, #0
 80010d2:	f43f aec3 	beq.w	8000e5c <_scanf_float+0x114>
 80010d6:	9b03      	ldr	r3, [sp, #12]
 80010d8:	3b01      	subs	r3, #1
 80010da:	9303      	str	r3, [sp, #12]
 80010dc:	e6c0      	b.n	8000e60 <_scanf_float+0x118>
 80010de:	f04f 0800 	mov.w	r8, #0
 80010e2:	4640      	mov	r0, r8
 80010e4:	b007      	add	sp, #28
 80010e6:	e8bd 8ff0 	ldmia.w	sp!, {r4, r5, r6, r7, r8, r9, sl, fp, pc}
 80010ea:	6823      	ldr	r3, [r4, #0]
 80010ec:	f403 61e0 	and.w	r1, r3, #1792	; 0x700
 80010f0:	f5b1 6fe0 	cmp.w	r1, #1792	; 0x700
 80010f4:	f47f af77 	bne.w	8000fe6 <_scanf_float+0x29e>
 80010f8:	f423 63f0 	bic.w	r3, r3, #1920	; 0x780
 80010fc:	6023      	str	r3, [r4, #0]
 80010fe:	f04f 0a01 	mov.w	sl, #1
 8001102:	e6a9      	b.n	8000e58 <_scanf_float+0x110>
 8001104:	6823      	ldr	r3, [r4, #0]
 8001106:	f403 61e0 	and.w	r1, r3, #1792	; 0x700
 800110a:	f5b1 6fe0 	cmp.w	r1, #1792	; 0x700
 800110e:	d05f      	beq.n	80011d0 <_scanf_float+0x488>
 8001110:	f10a 3aff 	add.w	sl, sl, #4294967295	; 0xffffffff
 8001114:	f1ba 0f01 	cmp.w	sl, #1
 8001118:	f63f aedd 	bhi.w	8000ed6 <_scanf_float+0x18e>
 800111c:	e739      	b.n	8000f92 <_scanf_float+0x24a>
 800111e:	9b01      	ldr	r3, [sp, #4]
 8001120:	454b      	cmp	r3, r9
 8001122:	eba3 0209 	sub.w	r2, r3, r9
 8001126:	f43f af0a 	beq.w	8000f3e <_scanf_float+0x1f6>
 800112a:	f204 136f 	addw	r3, r4, #367	; 0x16f
 800112e:	429d      	cmp	r5, r3
 8001130:	bf28      	it	cs
 8001132:	f504 75b7 	addcs.w	r5, r4, #366	; 0x16e
 8001136:	492c      	ldr	r1, [pc, #176]	; (80011e8 <_scanf_float+0x4a0>)
 8001138:	4628      	mov	r0, r5
 800113a:	f000 f8ff 	bl	800133c <siprintf>
 800113e:	e6fe      	b.n	8000f3e <_scanf_float+0x1f6>
 8001140:	f013 0f04 	tst.w	r3, #4
 8001144:	680b      	ldr	r3, [r1, #0]
 8001146:	f103 0204 	add.w	r2, r3, #4
 800114a:	600a      	str	r2, [r1, #0]
 800114c:	d025      	beq.n	800119a <_scanf_float+0x452>
 800114e:	681b      	ldr	r3, [r3, #0]
 8001150:	ed83 0b00 	vstr	d0, [r3]
 8001154:	e705      	b.n	8000f62 <_scanf_float+0x21a>
 8001156:	42af      	cmp	r7, r5
 8001158:	f4bf af2a 	bcs.w	8000fb0 <_scanf_float+0x268>
 800115c:	f8d4 317c 	ldr.w	r3, [r4, #380]	; 0x17c
 8001160:	f815 1d01 	ldrb.w	r1, [r5, #-1]!
 8001164:	4642      	mov	r2, r8
 8001166:	4630      	mov	r0, r6
 8001168:	4798      	blx	r3
 800116a:	6923      	ldr	r3, [r4, #16]
 800116c:	42bd      	cmp	r5, r7
 800116e:	f103 33ff 	add.w	r3, r3, #4294967295	; 0xffffffff
 8001172:	6123      	str	r3, [r4, #16]
 8001174:	d1f2      	bne.n	800115c <_scanf_float+0x414>
 8001176:	e71b      	b.n	8000fb0 <_scanf_float+0x268>
 8001178:	42bd      	cmp	r5, r7
 800117a:	f67f af19 	bls.w	8000fb0 <_scanf_float+0x268>
 800117e:	f8d4 317c 	ldr.w	r3, [r4, #380]	; 0x17c
 8001182:	f815 1d01 	ldrb.w	r1, [r5, #-1]!
 8001186:	4642      	mov	r2, r8
 8001188:	4630      	mov	r0, r6
 800118a:	4798      	blx	r3
 800118c:	6923      	ldr	r3, [r4, #16]
 800118e:	42af      	cmp	r7, r5
 8001190:	f103 33ff 	add.w	r3, r3, #4294967295	; 0xffffffff
 8001194:	6123      	str	r3, [r4, #16]
 8001196:	d1f2      	bne.n	800117e <_scanf_float+0x436>
 8001198:	e70a      	b.n	8000fb0 <_scanf_float+0x268>
 800119a:	681d      	ldr	r5, [r3, #0]
 800119c:	ee10 2a10 	vmov	r2, s0
 80011a0:	ee10 0a10 	vmov	r0, s0
 80011a4:	463b      	mov	r3, r7
 80011a6:	4639      	mov	r1, r7
 80011a8:	f005 feea 	bl	8006f80 <__aeabi_dcmpun>
 80011ac:	b9b0      	cbnz	r0, 80011dc <_scanf_float+0x494>
 80011ae:	4630      	mov	r0, r6
 80011b0:	4639      	mov	r1, r7
 80011b2:	f005 ff43 	bl	800703c <__aeabi_d2f>
 80011b6:	6028      	str	r0, [r5, #0]
 80011b8:	e6d3      	b.n	8000f62 <_scanf_float+0x21a>
 80011ba:	9d04      	ldr	r5, [sp, #16]
 80011bc:	4629      	mov	r1, r5
 80011be:	230a      	movs	r3, #10
 80011c0:	4642      	mov	r2, r8
 80011c2:	3101      	adds	r1, #1
 80011c4:	4630      	mov	r0, r6
 80011c6:	f001 fa9d 	bl	8002704 <_strtol_r>
 80011ca:	9b02      	ldr	r3, [sp, #8]
 80011cc:	1ac2      	subs	r2, r0, r3
 80011ce:	e7ac      	b.n	800112a <_scanf_float+0x3e2>
 80011d0:	f423 63f0 	bic.w	r3, r3, #1920	; 0x780
 80011d4:	6023      	str	r3, [r4, #0]
 80011d6:	f04f 0b01 	mov.w	fp, #1
 80011da:	e63d      	b.n	8000e58 <_scanf_float+0x110>
 80011dc:	4803      	ldr	r0, [pc, #12]	; (80011ec <_scanf_float+0x4a4>)
 80011de:	f000 f807 	bl	80011f0 <nanf>
 80011e2:	ed85 0a00 	vstr	s0, [r5]
 80011e6:	e6bc      	b.n	8000f62 <_scanf_float+0x21a>
 80011e8:	08008374 	.word	0x08008374
 80011ec:	0800849c 	.word	0x0800849c

080011f0 <nanf>:
 80011f0:	ed9f 0a01 	vldr	s0, [pc, #4]	; 80011f8 <nanf+0x8>
 80011f4:	4770      	bx	lr
 80011f6:	bf00      	nop
 80011f8:	7fc00000 	.word	0x7fc00000

080011fc <_sniprintf_r>:
 80011fc:	b408      	push	{r3}
 80011fe:	b510      	push	{r4, lr}
 8001200:	2a00      	cmp	r2, #0
 8001202:	b09d      	sub	sp, #116	; 0x74
 8001204:	4604      	mov	r4, r0
 8001206:	db33      	blt.n	8001270 <_sniprintf_r+0x74>
 8001208:	f44f 7302 	mov.w	r3, #520	; 0x208
 800120c:	f8ad 3014 	strh.w	r3, [sp, #20]
 8001210:	9102      	str	r1, [sp, #8]
 8001212:	9106      	str	r1, [sp, #24]
 8001214:	ab20      	add	r3, sp, #128	; 0x80
 8001216:	d017      	beq.n	8001248 <_sniprintf_r+0x4c>
 8001218:	3a01      	subs	r2, #1
 800121a:	f64f 71ff 	movw	r1, #65535	; 0xffff
 800121e:	9204      	str	r2, [sp, #16]
 8001220:	9207      	str	r2, [sp, #28]
 8001222:	f8ad 1016 	strh.w	r1, [sp, #22]
 8001226:	9a1f      	ldr	r2, [sp, #124]	; 0x7c
 8001228:	9301      	str	r3, [sp, #4]
 800122a:	a902      	add	r1, sp, #8
 800122c:	f004 f846 	bl	80052bc <_svfiprintf_r>
 8001230:	1c42      	adds	r2, r0, #1
 8001232:	da01      	bge.n	8001238 <_sniprintf_r+0x3c>
 8001234:	238b      	movs	r3, #139	; 0x8b
 8001236:	6023      	str	r3, [r4, #0]
 8001238:	9b02      	ldr	r3, [sp, #8]
 800123a:	2200      	movs	r2, #0
 800123c:	701a      	strb	r2, [r3, #0]
 800123e:	b01d      	add	sp, #116	; 0x74
 8001240:	e8bd 4010 	ldmia.w	sp!, {r4, lr}
 8001244:	b001      	add	sp, #4
 8001246:	4770      	bx	lr
 8001248:	f64f 71ff 	movw	r1, #65535	; 0xffff
 800124c:	9204      	str	r2, [sp, #16]
 800124e:	9207      	str	r2, [sp, #28]
 8001250:	f8ad 1016 	strh.w	r1, [sp, #22]
 8001254:	9a1f      	ldr	r2, [sp, #124]	; 0x7c
 8001256:	9301      	str	r3, [sp, #4]
 8001258:	a902      	add	r1, sp, #8
 800125a:	f004 f82f 	bl	80052bc <_svfiprintf_r>
 800125e:	1c43      	adds	r3, r0, #1
 8001260:	da01      	bge.n	8001266 <_sniprintf_r+0x6a>
 8001262:	238b      	movs	r3, #139	; 0x8b
 8001264:	6023      	str	r3, [r4, #0]
 8001266:	b01d      	add	sp, #116	; 0x74
 8001268:	e8bd 4010 	ldmia.w	sp!, {r4, lr}
 800126c:	b001      	add	sp, #4
 800126e:	4770      	bx	lr
 8001270:	238b      	movs	r3, #139	; 0x8b
 8001272:	6003      	str	r3, [r0, #0]
 8001274:	f04f 30ff 	mov.w	r0, #4294967295	; 0xffffffff
 8001278:	e7f5      	b.n	8001266 <_sniprintf_r+0x6a>
 800127a:	bf00      	nop

0800127c <sniprintf>:
 800127c:	b40c      	push	{r2, r3}
 800127e:	b510      	push	{r4, lr}
 8001280:	4b1f      	ldr	r3, [pc, #124]	; (8001300 <sniprintf+0x84>)
 8001282:	2900      	cmp	r1, #0
 8001284:	681c      	ldr	r4, [r3, #0]
 8001286:	b09c      	sub	sp, #112	; 0x70
 8001288:	db35      	blt.n	80012f6 <sniprintf+0x7a>
 800128a:	f44f 7302 	mov.w	r3, #520	; 0x208
 800128e:	f8ad 3014 	strh.w	r3, [sp, #20]
 8001292:	9002      	str	r0, [sp, #8]
 8001294:	9006      	str	r0, [sp, #24]
 8001296:	ab1f      	add	r3, sp, #124	; 0x7c
 8001298:	d018      	beq.n	80012cc <sniprintf+0x50>
 800129a:	3901      	subs	r1, #1
 800129c:	f64f 72ff 	movw	r2, #65535	; 0xffff
 80012a0:	9104      	str	r1, [sp, #16]
 80012a2:	9107      	str	r1, [sp, #28]
 80012a4:	f8ad 2016 	strh.w	r2, [sp, #22]
 80012a8:	a902      	add	r1, sp, #8
 80012aa:	9a1e      	ldr	r2, [sp, #120]	; 0x78
 80012ac:	9301      	str	r3, [sp, #4]
 80012ae:	4620      	mov	r0, r4
 80012b0:	f004 f804 	bl	80052bc <_svfiprintf_r>
 80012b4:	1c42      	adds	r2, r0, #1
 80012b6:	da01      	bge.n	80012bc <sniprintf+0x40>
 80012b8:	238b      	movs	r3, #139	; 0x8b
 80012ba:	6023      	str	r3, [r4, #0]
 80012bc:	9b02      	ldr	r3, [sp, #8]
 80012be:	2200      	movs	r2, #0
 80012c0:	701a      	strb	r2, [r3, #0]
 80012c2:	b01c      	add	sp, #112	; 0x70
 80012c4:	e8bd 4010 	ldmia.w	sp!, {r4, lr}
 80012c8:	b002      	add	sp, #8
 80012ca:	4770      	bx	lr
 80012cc:	f64f 72ff 	movw	r2, #65535	; 0xffff
 80012d0:	9104      	str	r1, [sp, #16]
 80012d2:	9107      	str	r1, [sp, #28]
 80012d4:	f8ad 2016 	strh.w	r2, [sp, #22]
 80012d8:	a902      	add	r1, sp, #8
 80012da:	9a1e      	ldr	r2, [sp, #120]	; 0x78
 80012dc:	9301      	str	r3, [sp, #4]
 80012de:	4620      	mov	r0, r4
 80012e0:	f003 ffec 	bl	80052bc <_svfiprintf_r>
 80012e4:	1c43      	adds	r3, r0, #1
 80012e6:	da01      	bge.n	80012ec <sniprintf+0x70>
 80012e8:	238b      	movs	r3, #139	; 0x8b
 80012ea:	6023      	str	r3, [r4, #0]
 80012ec:	b01c      	add	sp, #112	; 0x70
 80012ee:	e8bd 4010 	ldmia.w	sp!, {r4, lr}
 80012f2:	b002      	add	sp, #8
 80012f4:	4770      	bx	lr
 80012f6:	238b      	movs	r3, #139	; 0x8b
 80012f8:	6023      	str	r3, [r4, #0]
 80012fa:	f04f 30ff 	mov.w	r0, #4294967295	; 0xffffffff
 80012fe:	e7f5      	b.n	80012ec <sniprintf+0x70>
 8001300:	20000000 	.word	0x20000000

08001304 <_siprintf_r>:
 8001304:	b40c      	push	{r2, r3}
 8001306:	b510      	push	{r4, lr}
 8001308:	b09c      	sub	sp, #112	; 0x70
 800130a:	ab1e      	add	r3, sp, #120	; 0x78
 800130c:	f06f 4400 	mvn.w	r4, #2147483648	; 0x80000000
 8001310:	e9cd 1406 	strd	r1, r4, [sp, #24]
 8001314:	9102      	str	r1, [sp, #8]
 8001316:	4908      	ldr	r1, [pc, #32]	; (8001338 <_siprintf_r+0x34>)
 8001318:	f853 2b04 	ldr.w	r2, [r3], #4
 800131c:	9105      	str	r1, [sp, #20]
 800131e:	a902      	add	r1, sp, #8
 8001320:	9301      	str	r3, [sp, #4]
 8001322:	9404      	str	r4, [sp, #16]
 8001324:	f003 ffca 	bl	80052bc <_svfiprintf_r>
 8001328:	9b02      	ldr	r3, [sp, #8]
 800132a:	2200      	movs	r2, #0
 800132c:	701a      	strb	r2, [r3, #0]
 800132e:	b01c      	add	sp, #112	; 0x70
 8001330:	e8bd 4010 	ldmia.w	sp!, {r4, lr}
 8001334:	b002      	add	sp, #8
 8001336:	4770      	bx	lr
 8001338:	ffff0208 	.word	0xffff0208

0800133c <siprintf>:
 800133c:	b40e      	push	{r1, r2, r3}
 800133e:	b510      	push	{r4, lr}
 8001340:	b09d      	sub	sp, #116	; 0x74
 8001342:	f06f 4100 	mvn.w	r1, #2147483648	; 0x80000000
 8001346:	ab1f      	add	r3, sp, #124	; 0x7c
 8001348:	e9cd 0106 	strd	r0, r1, [sp, #24]
 800134c:	9104      	str	r1, [sp, #16]
 800134e:	4909      	ldr	r1, [pc, #36]	; (8001374 <siprintf+0x38>)
 8001350:	f853 2b04 	ldr.w	r2, [r3], #4
 8001354:	9002      	str	r0, [sp, #8]
 8001356:	4c08      	ldr	r4, [pc, #32]	; (8001378 <siprintf+0x3c>)
 8001358:	6808      	ldr	r0, [r1, #0]
 800135a:	9301      	str	r3, [sp, #4]
 800135c:	a902      	add	r1, sp, #8
 800135e:	9405      	str	r4, [sp, #20]
 8001360:	f003 ffac 	bl	80052bc <_svfiprintf_r>
 8001364:	9b02      	ldr	r3, [sp, #8]
 8001366:	2200      	movs	r2, #0
 8001368:	701a      	strb	r2, [r3, #0]
 800136a:	b01d      	add	sp, #116	; 0x74
 800136c:	e8bd 4010 	ldmia.w	sp!, {r4, lr}
 8001370:	b003      	add	sp, #12
 8001372:	4770      	bx	lr
 8001374:	20000000 	.word	0x20000000
 8001378:	ffff0208 	.word	0xffff0208
 800137c:	00000000 	.word	0x00000000

08001380 <strlen>:
 8001380:	f890 f000 	pld	[r0]
 8001384:	e96d 4502 	strd	r4, r5, [sp, #-8]!
 8001388:	f020 0107 	bic.w	r1, r0, #7
 800138c:	f06f 0c00 	mvn.w	ip, #0
 8001390:	f010 0407 	ands.w	r4, r0, #7
 8001394:	f891 f020 	pld	[r1, #32]
 8001398:	f040 8049 	bne.w	800142e <strlen+0xae>
 800139c:	f04f 0400 	mov.w	r4, #0
 80013a0:	f06f 0007 	mvn.w	r0, #7
 80013a4:	e9d1 2300 	ldrd	r2, r3, [r1]
 80013a8:	f891 f040 	pld	[r1, #64]	; 0x40
 80013ac:	f100 0008 	add.w	r0, r0, #8
 80013b0:	fa82 f24c 	uadd8	r2, r2, ip
 80013b4:	faa4 f28c 	sel	r2, r4, ip
 80013b8:	fa83 f34c 	uadd8	r3, r3, ip
 80013bc:	faa2 f38c 	sel	r3, r2, ip
 80013c0:	bb4b      	cbnz	r3, 8001416 <strlen+0x96>
 80013c2:	e9d1 2302 	ldrd	r2, r3, [r1, #8]
 80013c6:	fa82 f24c 	uadd8	r2, r2, ip
 80013ca:	f100 0008 	add.w	r0, r0, #8
 80013ce:	faa4 f28c 	sel	r2, r4, ip
 80013d2:	fa83 f34c 	uadd8	r3, r3, ip
 80013d6:	faa2 f38c 	sel	r3, r2, ip
 80013da:	b9e3      	cbnz	r3, 8001416 <strlen+0x96>
 80013dc:	e9d1 2304 	ldrd	r2, r3, [r1, #16]
 80013e0:	fa82 f24c 	uadd8	r2, r2, ip
 80013e4:	f100 0008 	add.w	r0, r0, #8
 80013e8:	faa4 f28c 	sel	r2, r4, ip
 80013ec:	fa83 f34c 	uadd8	r3, r3, ip
 80013f0:	faa2 f38c 	sel	r3, r2, ip
 80013f4:	b97b      	cbnz	r3, 8001416 <strlen+0x96>
 80013f6:	e9d1 2306 	ldrd	r2, r3, [r1, #24]
 80013fa:	f101 0120 	add.w	r1, r1, #32
 80013fe:	fa82 f24c 	uadd8	r2, r2, ip
 8001402:	f100 0008 	add.w	r0, r0, #8
 8001406:	faa4 f28c 	sel	r2, r4, ip
 800140a:	fa83 f34c 	uadd8	r3, r3, ip
 800140e:	faa2 f38c 	sel	r3, r2, ip
 8001412:	2b00      	cmp	r3, #0
 8001414:	d0c6      	beq.n	80013a4 <strlen+0x24>
 8001416:	2a00      	cmp	r2, #0
 8001418:	bf04      	itt	eq
 800141a:	3004      	addeq	r0, #4
 800141c:	461a      	moveq	r2, r3
 800141e:	ba12      	rev	r2, r2
 8001420:	fab2 f282 	clz	r2, r2
 8001424:	e8fd 4502 	ldrd	r4, r5, [sp], #8
 8001428:	eb00 00d2 	add.w	r0, r0, r2, lsr #3
 800142c:	4770      	bx	lr
 800142e:	e9d1 2300 	ldrd	r2, r3, [r1]
 8001432:	f004 0503 	and.w	r5, r4, #3
 8001436:	f1c4 0000 	rsb	r0, r4, #0
 800143a:	ea4f 05c5 	mov.w	r5, r5, lsl #3
 800143e:	f014 0f04 	tst.w	r4, #4
 8001442:	f891 f040 	pld	[r1, #64]	; 0x40
 8001446:	fa0c f505 	lsl.w	r5, ip, r5
 800144a:	ea62 0205 	orn	r2, r2, r5
 800144e:	bf1c      	itt	ne
 8001450:	ea63 0305 	ornne	r3, r3, r5
 8001454:	4662      	movne	r2, ip
 8001456:	f04f 0400 	mov.w	r4, #0
 800145a:	e7a9      	b.n	80013b0 <strlen+0x30>

0800145c <strncmp>:
 800145c:	b3a2      	cbz	r2, 80014c8 <strncmp+0x6c>
 800145e:	b530      	push	{r4, r5, lr}
 8001460:	ea40 0401 	orr.w	r4, r0, r1
 8001464:	07a4      	lsls	r4, r4, #30
 8001466:	4684      	mov	ip, r0
 8001468:	460b      	mov	r3, r1
 800146a:	d02a      	beq.n	80014c2 <strncmp+0x66>
 800146c:	f89c 0000 	ldrb.w	r0, [ip]
 8001470:	780c      	ldrb	r4, [r1, #0]
 8001472:	4284      	cmp	r4, r0
 8001474:	d12f      	bne.n	80014d6 <strncmp+0x7a>
 8001476:	2a01      	cmp	r2, #1
 8001478:	d00d      	beq.n	8001496 <strncmp+0x3a>
 800147a:	46e6      	mov	lr, ip
 800147c:	b160      	cbz	r0, 8001498 <strncmp+0x3c>
 800147e:	f81e 0f01 	ldrb.w	r0, [lr, #1]!
 8001482:	f811 4f01 	ldrb.w	r4, [r1, #1]!
 8001486:	ea6f 030e 	mvn.w	r3, lr
 800148a:	42a0      	cmp	r0, r4
 800148c:	4413      	add	r3, r2
 800148e:	d122      	bne.n	80014d6 <strncmp+0x7a>
 8001490:	eb1c 0303 	adds.w	r3, ip, r3
 8001494:	d1f2      	bne.n	800147c <strncmp+0x20>
 8001496:	2000      	movs	r0, #0
 8001498:	bd30      	pop	{r4, r5, pc}
 800149a:	6804      	ldr	r4, [r0, #0]
 800149c:	4619      	mov	r1, r3
 800149e:	f853 5b04 	ldr.w	r5, [r3], #4
 80014a2:	f1a4 3e01 	sub.w	lr, r4, #16843009	; 0x1010101
 80014a6:	42ac      	cmp	r4, r5
 80014a8:	4684      	mov	ip, r0
 80014aa:	ea2e 0e04 	bic.w	lr, lr, r4
 80014ae:	f100 0004 	add.w	r0, r0, #4
 80014b2:	d10b      	bne.n	80014cc <strncmp+0x70>
 80014b4:	3a04      	subs	r2, #4
 80014b6:	4684      	mov	ip, r0
 80014b8:	4619      	mov	r1, r3
 80014ba:	d0ec      	beq.n	8001496 <strncmp+0x3a>
 80014bc:	f01e 3f80 	tst.w	lr, #2155905152	; 0x80808080
 80014c0:	d1e9      	bne.n	8001496 <strncmp+0x3a>
 80014c2:	2a03      	cmp	r2, #3
 80014c4:	d8e9      	bhi.n	800149a <strncmp+0x3e>
 80014c6:	e7d1      	b.n	800146c <strncmp+0x10>
 80014c8:	4610      	mov	r0, r2
 80014ca:	4770      	bx	lr
 80014cc:	f89c 0000 	ldrb.w	r0, [ip]
 80014d0:	780c      	ldrb	r4, [r1, #0]
 80014d2:	42a0      	cmp	r0, r4
 80014d4:	d0d1      	beq.n	800147a <strncmp+0x1e>
 80014d6:	1b00      	subs	r0, r0, r4
 80014d8:	bd30      	pop	{r4, r5, pc}
 80014da:	bf00      	nop
 80014dc:	0000      	movs	r0, r0
	...

080014e0 <_strtod_l>:
 80014e0:	e92d 4ff0 	stmdb	sp!, {r4, r5, r6, r7, r8, r9, sl, fp, lr}
 80014e4:	461c      	mov	r4, r3
 80014e6:	ed2d 8b04 	vpush	{d8-d9}
 80014ea:	4b9d      	ldr	r3, [pc, #628]	; (8001760 <_strtod_l+0x280>)
 80014ec:	681b      	ldr	r3, [r3, #0]
 80014ee:	b09f      	sub	sp, #124	; 0x7c
 80014f0:	2500      	movs	r5, #0
 80014f2:	4682      	mov	sl, r0
 80014f4:	4618      	mov	r0, r3
 80014f6:	4688      	mov	r8, r1
 80014f8:	9207      	str	r2, [sp, #28]
 80014fa:	951a      	str	r5, [sp, #104]	; 0x68
 80014fc:	9308      	str	r3, [sp, #32]
 80014fe:	f7ff ff3f 	bl	8001380 <strlen>
 8001502:	2100      	movs	r1, #0
 8001504:	4683      	mov	fp, r0
 8001506:	2000      	movs	r0, #0
 8001508:	e9cd 0104 	strd	r0, r1, [sp, #16]
 800150c:	f8cd 8064 	str.w	r8, [sp, #100]	; 0x64
 8001510:	4642      	mov	r2, r8
 8001512:	4617      	mov	r7, r2
 8001514:	f812 3b01 	ldrb.w	r3, [r2], #1
 8001518:	2b2d      	cmp	r3, #45	; 0x2d
 800151a:	d82f      	bhi.n	800157c <_strtod_l+0x9c>
 800151c:	e8df f013 	tbh	[pc, r3, lsl #1]
 8001520:	002e00a4 	.word	0x002e00a4
 8001524:	002e002e 	.word	0x002e002e
 8001528:	002e002e 	.word	0x002e002e
 800152c:	002e002e 	.word	0x002e002e
 8001530:	00b4002e 	.word	0x00b4002e
 8001534:	00b400b4 	.word	0x00b400b4
 8001538:	00b400b4 	.word	0x00b400b4
 800153c:	002e002e 	.word	0x002e002e
 8001540:	002e002e 	.word	0x002e002e
 8001544:	002e002e 	.word	0x002e002e
 8001548:	002e002e 	.word	0x002e002e
 800154c:	002e002e 	.word	0x002e002e
 8001550:	002e002e 	.word	0x002e002e
 8001554:	002e002e 	.word	0x002e002e
 8001558:	002e002e 	.word	0x002e002e
 800155c:	002e002e 	.word	0x002e002e
 8001560:	002e00b4 	.word	0x002e00b4
 8001564:	002e002e 	.word	0x002e002e
 8001568:	002e002e 	.word	0x002e002e
 800156c:	002e002e 	.word	0x002e002e
 8001570:	002e002e 	.word	0x002e002e
 8001574:	040e002e 	.word	0x040e002e
 8001578:	0404002e 	.word	0x0404002e
 800157c:	2200      	movs	r2, #0
 800157e:	9209      	str	r2, [sp, #36]	; 0x24
 8001580:	2b30      	cmp	r3, #48	; 0x30
 8001582:	f000 8083 	beq.w	800168c <_strtod_l+0x1ac>
 8001586:	2200      	movs	r2, #0
 8001588:	920c      	str	r2, [sp, #48]	; 0x30
 800158a:	2b2f      	cmp	r3, #47	; 0x2f
 800158c:	461c      	mov	r4, r3
 800158e:	f240 854d 	bls.w	800202c <_strtod_l+0xb4c>
 8001592:	f04f 0900 	mov.w	r9, #0
 8001596:	4638      	mov	r0, r7
 8001598:	464e      	mov	r6, r9
 800159a:	464d      	mov	r5, r9
 800159c:	e012      	b.n	80015c4 <_strtod_l+0xe4>
 800159e:	3001      	adds	r0, #1
 80015a0:	2d08      	cmp	r5, #8
 80015a2:	9019      	str	r0, [sp, #100]	; 0x64
 80015a4:	bfc8      	it	gt
 80015a6:	eb09 0989 	addgt.w	r9, r9, r9, lsl #2
 80015aa:	7804      	ldrb	r4, [r0, #0]
 80015ac:	bfc6      	itte	gt
 80015ae:	eb03 0349 	addgt.w	r3, r3, r9, lsl #1
 80015b2:	f1a3 0930 	subgt.w	r9, r3, #48	; 0x30
 80015b6:	f1a2 0630 	suble.w	r6, r2, #48	; 0x30
 80015ba:	2c2f      	cmp	r4, #47	; 0x2f
 80015bc:	f105 0501 	add.w	r5, r5, #1
 80015c0:	4623      	mov	r3, r4
 80015c2:	dd74      	ble.n	80016ae <_strtod_l+0x1ce>
 80015c4:	eb06 0286 	add.w	r2, r6, r6, lsl #2
 80015c8:	2c39      	cmp	r4, #57	; 0x39
 80015ca:	eb03 0242 	add.w	r2, r3, r2, lsl #1
 80015ce:	dde6      	ble.n	800159e <_strtod_l+0xbe>
 80015d0:	9908      	ldr	r1, [sp, #32]
 80015d2:	465a      	mov	r2, fp
 80015d4:	f7ff ff42 	bl	800145c <strncmp>
 80015d8:	4603      	mov	r3, r0
 80015da:	2800      	cmp	r0, #0
 80015dc:	d135      	bne.n	800164a <_strtod_l+0x16a>
 80015de:	9a19      	ldr	r2, [sp, #100]	; 0x64
 80015e0:	4611      	mov	r1, r2
 80015e2:	445a      	add	r2, fp
 80015e4:	9219      	str	r2, [sp, #100]	; 0x64
 80015e6:	f811 400b 	ldrb.w	r4, [r1, fp]
 80015ea:	2d00      	cmp	r5, #0
 80015ec:	f040 85a9 	bne.w	8002142 <_strtod_l+0xc62>
 80015f0:	2c30      	cmp	r4, #48	; 0x30
 80015f2:	f040 8561 	bne.w	80020b8 <_strtod_l+0xbd8>
 80015f6:	f1c2 0101 	rsb	r1, r2, #1
 80015fa:	1853      	adds	r3, r2, r1
 80015fc:	3201      	adds	r2, #1
 80015fe:	9219      	str	r2, [sp, #100]	; 0x64
 8001600:	7814      	ldrb	r4, [r2, #0]
 8001602:	2c30      	cmp	r4, #48	; 0x30
 8001604:	d0f9      	beq.n	80015fa <_strtod_l+0x11a>
 8001606:	f1a4 0231 	sub.w	r2, r4, #49	; 0x31
 800160a:	2a08      	cmp	r2, #8
 800160c:	f200 8343 	bhi.w	8001c96 <_strtod_l+0x7b6>
 8001610:	f1a4 0e30 	sub.w	lr, r4, #48	; 0x30
 8001614:	9c19      	ldr	r4, [sp, #100]	; 0x64
 8001616:	f103 0b01 	add.w	fp, r3, #1
 800161a:	2300      	movs	r3, #0
 800161c:	2501      	movs	r5, #1
 800161e:	4627      	mov	r7, r4
 8001620:	930a      	str	r3, [sp, #40]	; 0x28
 8001622:	eb06 0686 	add.w	r6, r6, r6, lsl #2
 8001626:	eb0e 0646 	add.w	r6, lr, r6, lsl #1
 800162a:	2300      	movs	r3, #0
 800162c:	1c62      	adds	r2, r4, #1
 800162e:	9219      	str	r2, [sp, #100]	; 0x64
 8001630:	7864      	ldrb	r4, [r4, #1]
 8001632:	f1a4 0130 	sub.w	r1, r4, #48	; 0x30
 8001636:	2909      	cmp	r1, #9
 8001638:	f200 82f1 	bhi.w	8001c1e <_strtod_l+0x73e>
 800163c:	3301      	adds	r3, #1
 800163e:	468e      	mov	lr, r1
 8001640:	2900      	cmp	r1, #0
 8001642:	f040 84d2 	bne.w	8001fea <_strtod_l+0xb0a>
 8001646:	9c19      	ldr	r4, [sp, #100]	; 0x64
 8001648:	e7f0      	b.n	800162c <_strtod_l+0x14c>
 800164a:	2300      	movs	r3, #0
 800164c:	2c65      	cmp	r4, #101	; 0x65
 800164e:	950a      	str	r5, [sp, #40]	; 0x28
 8001650:	469b      	mov	fp, r3
 8001652:	469e      	mov	lr, r3
 8001654:	d001      	beq.n	800165a <_strtod_l+0x17a>
 8001656:	2c45      	cmp	r4, #69	; 0x45
 8001658:	d136      	bne.n	80016c8 <_strtod_l+0x1e8>
 800165a:	2d00      	cmp	r5, #0
 800165c:	f040 8085 	bne.w	800176a <_strtod_l+0x28a>
 8001660:	9a0c      	ldr	r2, [sp, #48]	; 0x30
 8001662:	431a      	orrs	r2, r3
 8001664:	f040 8080 	bne.w	8001768 <_strtod_l+0x288>
 8001668:	9b07      	ldr	r3, [sp, #28]
 800166a:	ed9f 8b3b 	vldr	d8, [pc, #236]	; 8001758 <_strtod_l+0x278>
 800166e:	b113      	cbz	r3, 8001676 <_strtod_l+0x196>
 8001670:	9b07      	ldr	r3, [sp, #28]
 8001672:	f8c3 8000 	str.w	r8, [r3]
 8001676:	eeb0 0a48 	vmov.f32	s0, s16
 800167a:	eef0 0a68 	vmov.f32	s1, s17
 800167e:	b01f      	add	sp, #124	; 0x7c
 8001680:	ecbd 8b04 	vpop	{d8-d9}
 8001684:	e8bd 8ff0 	ldmia.w	sp!, {r4, r5, r6, r7, r8, r9, sl, fp, pc}
 8001688:	9219      	str	r2, [sp, #100]	; 0x64
 800168a:	e742      	b.n	8001512 <_strtod_l+0x32>
 800168c:	787b      	ldrb	r3, [r7, #1]
 800168e:	f003 03df 	and.w	r3, r3, #223	; 0xdf
 8001692:	2b58      	cmp	r3, #88	; 0x58
 8001694:	f000 848d 	beq.w	8001fb2 <_strtod_l+0xad2>
 8001698:	3701      	adds	r7, #1
 800169a:	9719      	str	r7, [sp, #100]	; 0x64
 800169c:	783b      	ldrb	r3, [r7, #0]
 800169e:	2b30      	cmp	r3, #48	; 0x30
 80016a0:	d0fa      	beq.n	8001698 <_strtod_l+0x1b8>
 80016a2:	2b00      	cmp	r3, #0
 80016a4:	f000 80d3 	beq.w	800184e <_strtod_l+0x36e>
 80016a8:	2201      	movs	r2, #1
 80016aa:	920c      	str	r2, [sp, #48]	; 0x30
 80016ac:	e76d      	b.n	800158a <_strtod_l+0xaa>
 80016ae:	9908      	ldr	r1, [sp, #32]
 80016b0:	465a      	mov	r2, fp
 80016b2:	f7ff fed3 	bl	800145c <strncmp>
 80016b6:	4603      	mov	r3, r0
 80016b8:	2800      	cmp	r0, #0
 80016ba:	f000 80db 	beq.w	8001874 <_strtod_l+0x394>
 80016be:	950a      	str	r5, [sp, #40]	; 0x28
 80016c0:	f04f 0b00 	mov.w	fp, #0
 80016c4:	465b      	mov	r3, fp
 80016c6:	46de      	mov	lr, fp
 80016c8:	2200      	movs	r2, #0
 80016ca:	920d      	str	r2, [sp, #52]	; 0x34
 80016cc:	2d00      	cmp	r5, #0
 80016ce:	f000 8098 	beq.w	8001802 <_strtod_l+0x322>
 80016d2:	9a0a      	ldr	r2, [sp, #40]	; 0x28
 80016d4:	4613      	mov	r3, r2
 80016d6:	2a00      	cmp	r2, #0
 80016d8:	bf08      	it	eq
 80016da:	462b      	moveq	r3, r5
 80016dc:	4630      	mov	r0, r6
 80016de:	930a      	str	r3, [sp, #40]	; 0x28
 80016e0:	f005 f93a 	bl	8006958 <__aeabi_ui2d>
 80016e4:	460b      	mov	r3, r1
 80016e6:	4602      	mov	r2, r0
 80016e8:	e9cd 2304 	strd	r2, r3, [sp, #16]
 80016ec:	9b0d      	ldr	r3, [sp, #52]	; 0x34
 80016ee:	2d10      	cmp	r5, #16
 80016f0:	eba3 030b 	sub.w	r3, r3, fp
 80016f4:	462c      	mov	r4, r5
 80016f6:	bfa8      	it	ge
 80016f8:	2410      	movge	r4, #16
 80016fa:	2d09      	cmp	r5, #9
 80016fc:	930c      	str	r3, [sp, #48]	; 0x30
 80016fe:	dd14      	ble.n	800172a <_strtod_l+0x24a>
 8001700:	4b18      	ldr	r3, [pc, #96]	; (8001764 <_strtod_l+0x284>)
 8001702:	eb03 03c4 	add.w	r3, r3, r4, lsl #3
 8001706:	e953 2312 	ldrd	r2, r3, [r3, #-72]	; 0x48
 800170a:	f005 f99f 	bl	8006a4c <__aeabi_dmul>
 800170e:	4602      	mov	r2, r0
 8001710:	4648      	mov	r0, r9
 8001712:	4690      	mov	r8, r2
 8001714:	4689      	mov	r9, r1
 8001716:	f005 f91f 	bl	8006958 <__aeabi_ui2d>
 800171a:	4602      	mov	r2, r0
 800171c:	460b      	mov	r3, r1
 800171e:	4640      	mov	r0, r8
 8001720:	4649      	mov	r1, r9
 8001722:	f004 ffdd 	bl	80066e0 <__adddf3>
 8001726:	e9cd 0104 	strd	r0, r1, [sp, #16]
 800172a:	2d0f      	cmp	r5, #15
 800172c:	f300 80ab 	bgt.w	8001886 <_strtod_l+0x3a6>
 8001730:	9b0c      	ldr	r3, [sp, #48]	; 0x30
 8001732:	2b00      	cmp	r3, #0
 8001734:	f000 8434 	beq.w	8001fa0 <_strtod_l+0xac0>
 8001738:	9b0c      	ldr	r3, [sp, #48]	; 0x30
 800173a:	f340 8382 	ble.w	8001e42 <_strtod_l+0x962>
 800173e:	2b16      	cmp	r3, #22
 8001740:	f340 84f1 	ble.w	8002126 <_strtod_l+0xc46>
 8001744:	9a0c      	ldr	r2, [sp, #48]	; 0x30
 8001746:	f1c5 0325 	rsb	r3, r5, #37	; 0x25
 800174a:	4293      	cmp	r3, r2
 800174c:	f280 8504 	bge.w	8002158 <_strtod_l+0xc78>
 8001750:	9b0c      	ldr	r3, [sp, #48]	; 0x30
 8001752:	1b2c      	subs	r4, r5, r4
 8001754:	441c      	add	r4, r3
 8001756:	e09c      	b.n	8001892 <_strtod_l+0x3b2>
	...
 8001760:	08008204 	.word	0x08008204
 8001764:	08008220 	.word	0x08008220
 8001768:	2500      	movs	r5, #0
 800176a:	f8dd 8064 	ldr.w	r8, [sp, #100]	; 0x64
 800176e:	f108 0201 	add.w	r2, r8, #1
 8001772:	9219      	str	r2, [sp, #100]	; 0x64
 8001774:	f898 4001 	ldrb.w	r4, [r8, #1]
 8001778:	2c2b      	cmp	r4, #43	; 0x2b
 800177a:	f000 8289 	beq.w	8001c90 <_strtod_l+0x7b0>
 800177e:	2c2d      	cmp	r4, #45	; 0x2d
 8001780:	f000 821d 	beq.w	8001bbe <_strtod_l+0x6de>
 8001784:	2200      	movs	r2, #0
 8001786:	9208      	str	r2, [sp, #32]
 8001788:	f1a4 0230 	sub.w	r2, r4, #48	; 0x30
 800178c:	2a09      	cmp	r2, #9
 800178e:	f200 8211 	bhi.w	8001bb4 <_strtod_l+0x6d4>
 8001792:	2c30      	cmp	r4, #48	; 0x30
 8001794:	d105      	bne.n	80017a2 <_strtod_l+0x2c2>
 8001796:	9a19      	ldr	r2, [sp, #100]	; 0x64
 8001798:	3201      	adds	r2, #1
 800179a:	9219      	str	r2, [sp, #100]	; 0x64
 800179c:	7814      	ldrb	r4, [r2, #0]
 800179e:	2c30      	cmp	r4, #48	; 0x30
 80017a0:	d0fa      	beq.n	8001798 <_strtod_l+0x2b8>
 80017a2:	f1a4 0231 	sub.w	r2, r4, #49	; 0x31
 80017a6:	2a08      	cmp	r2, #8
 80017a8:	d88e      	bhi.n	80016c8 <_strtod_l+0x1e8>
 80017aa:	9919      	ldr	r1, [sp, #100]	; 0x64
 80017ac:	910d      	str	r1, [sp, #52]	; 0x34
 80017ae:	1c4a      	adds	r2, r1, #1
 80017b0:	9219      	str	r2, [sp, #100]	; 0x64
 80017b2:	f1a4 0030 	sub.w	r0, r4, #48	; 0x30
 80017b6:	784c      	ldrb	r4, [r1, #1]
 80017b8:	2c2f      	cmp	r4, #47	; 0x2f
 80017ba:	dc09      	bgt.n	80017d0 <_strtod_l+0x2f0>
 80017bc:	f000 bc44 	b.w	8002048 <_strtod_l+0xb68>
 80017c0:	3201      	adds	r2, #1
 80017c2:	9219      	str	r2, [sp, #100]	; 0x64
 80017c4:	f89c 4001 	ldrb.w	r4, [ip, #1]
 80017c8:	2c2f      	cmp	r4, #47	; 0x2f
 80017ca:	f1a1 0030 	sub.w	r0, r1, #48	; 0x30
 80017ce:	dd06      	ble.n	80017de <_strtod_l+0x2fe>
 80017d0:	eb00 0180 	add.w	r1, r0, r0, lsl #2
 80017d4:	2c39      	cmp	r4, #57	; 0x39
 80017d6:	4694      	mov	ip, r2
 80017d8:	eb04 0141 	add.w	r1, r4, r1, lsl #1
 80017dc:	ddf0      	ble.n	80017c0 <_strtod_l+0x2e0>
 80017de:	990d      	ldr	r1, [sp, #52]	; 0x34
 80017e0:	1a52      	subs	r2, r2, r1
 80017e2:	2a08      	cmp	r2, #8
 80017e4:	f340 8430 	ble.w	8002048 <_strtod_l+0xb68>
 80017e8:	f644 621f 	movw	r2, #19999	; 0x4e1f
 80017ec:	920d      	str	r2, [sp, #52]	; 0x34
 80017ee:	9a08      	ldr	r2, [sp, #32]
 80017f0:	2a00      	cmp	r2, #0
 80017f2:	f43f af6b 	beq.w	80016cc <_strtod_l+0x1ec>
 80017f6:	9a0d      	ldr	r2, [sp, #52]	; 0x34
 80017f8:	4252      	negs	r2, r2
 80017fa:	920d      	str	r2, [sp, #52]	; 0x34
 80017fc:	2d00      	cmp	r5, #0
 80017fe:	f47f af68 	bne.w	80016d2 <_strtod_l+0x1f2>
 8001802:	9a0c      	ldr	r2, [sp, #48]	; 0x30
 8001804:	4313      	orrs	r3, r2
 8001806:	d122      	bne.n	800184e <_strtod_l+0x36e>
 8001808:	f1be 0f00 	cmp.w	lr, #0
 800180c:	f47f af2c 	bne.w	8001668 <_strtod_l+0x188>
 8001810:	2c69      	cmp	r4, #105	; 0x69
 8001812:	f000 8431 	beq.w	8002078 <_strtod_l+0xb98>
 8001816:	f300 8352 	bgt.w	8001ebe <_strtod_l+0x9de>
 800181a:	2c49      	cmp	r4, #73	; 0x49
 800181c:	f000 842c 	beq.w	8002078 <_strtod_l+0xb98>
 8001820:	2c4e      	cmp	r4, #78	; 0x4e
 8001822:	f47f af21 	bne.w	8001668 <_strtod_l+0x188>
 8001826:	49b8      	ldr	r1, [pc, #736]	; (8001b08 <_strtod_l+0x628>)
 8001828:	a819      	add	r0, sp, #100	; 0x64
 800182a:	f002 fcab 	bl	8004184 <__match>
 800182e:	2800      	cmp	r0, #0
 8001830:	f43f af1a 	beq.w	8001668 <_strtod_l+0x188>
 8001834:	9b19      	ldr	r3, [sp, #100]	; 0x64
 8001836:	781b      	ldrb	r3, [r3, #0]
 8001838:	2b28      	cmp	r3, #40	; 0x28
 800183a:	f000 8571 	beq.w	8002320 <_strtod_l+0xe40>
 800183e:	48b3      	ldr	r0, [pc, #716]	; (8001b0c <_strtod_l+0x62c>)
 8001840:	f003 ffea 	bl	8005818 <nan>
 8001844:	eeb0 8a40 	vmov.f32	s16, s0
 8001848:	eef0 8a60 	vmov.f32	s17, s1
 800184c:	e001      	b.n	8001852 <_strtod_l+0x372>
 800184e:	ed9f 8baa 	vldr	d8, [pc, #680]	; 8001af8 <_strtod_l+0x618>
 8001852:	9a07      	ldr	r2, [sp, #28]
 8001854:	b10a      	cbz	r2, 800185a <_strtod_l+0x37a>
 8001856:	9b19      	ldr	r3, [sp, #100]	; 0x64
 8001858:	6013      	str	r3, [r2, #0]
 800185a:	9b09      	ldr	r3, [sp, #36]	; 0x24
 800185c:	2b00      	cmp	r3, #0
 800185e:	f43f af0a 	beq.w	8001676 <_strtod_l+0x196>
 8001862:	ee18 1a90 	vmov	r1, s17
 8001866:	ee18 2a10 	vmov	r2, s16
 800186a:	f101 4300 	add.w	r3, r1, #2147483648	; 0x80000000
 800186e:	ec43 2b18 	vmov	d8, r2, r3
 8001872:	e700      	b.n	8001676 <_strtod_l+0x196>
 8001874:	9a19      	ldr	r2, [sp, #100]	; 0x64
 8001876:	950a      	str	r5, [sp, #40]	; 0x28
 8001878:	eb02 010b 	add.w	r1, r2, fp
 800187c:	9119      	str	r1, [sp, #100]	; 0x64
 800187e:	f812 400b 	ldrb.w	r4, [r2, fp]
 8001882:	469b      	mov	fp, r3
 8001884:	e6d5      	b.n	8001632 <_strtod_l+0x152>
 8001886:	9b0c      	ldr	r3, [sp, #48]	; 0x30
 8001888:	1b2c      	subs	r4, r5, r4
 800188a:	441c      	add	r4, r3
 800188c:	2c00      	cmp	r4, #0
 800188e:	f340 831b 	ble.w	8001ec8 <_strtod_l+0x9e8>
 8001892:	f014 000f 	ands.w	r0, r4, #15
 8001896:	d00a      	beq.n	80018ae <_strtod_l+0x3ce>
 8001898:	499d      	ldr	r1, [pc, #628]	; (8001b10 <_strtod_l+0x630>)
 800189a:	eb01 01c0 	add.w	r1, r1, r0, lsl #3
 800189e:	e9dd 2304 	ldrd	r2, r3, [sp, #16]
 80018a2:	e9d1 0100 	ldrd	r0, r1, [r1]
 80018a6:	f005 f8d1 	bl	8006a4c <__aeabi_dmul>
 80018aa:	e9cd 0104 	strd	r0, r1, [sp, #16]
 80018ae:	f034 030f 	bics.w	r3, r4, #15
 80018b2:	f040 8270 	bne.w	8001d96 <_strtod_l+0x8b6>
 80018b6:	2300      	movs	r3, #0
 80018b8:	9308      	str	r3, [sp, #32]
 80018ba:	9a0a      	ldr	r2, [sp, #40]	; 0x28
 80018bc:	9600      	str	r6, [sp, #0]
 80018be:	462b      	mov	r3, r5
 80018c0:	4639      	mov	r1, r7
 80018c2:	4650      	mov	r0, sl
 80018c4:	f002 fe92 	bl	80045ec <__s2b>
 80018c8:	9011      	str	r0, [sp, #68]	; 0x44
 80018ca:	2800      	cmp	r0, #0
 80018cc:	f000 836b 	beq.w	8001fa6 <_strtod_l+0xac6>
 80018d0:	9b0d      	ldr	r3, [sp, #52]	; 0x34
 80018d2:	ebab 0003 	sub.w	r0, fp, r3
 80018d6:	9b0c      	ldr	r3, [sp, #48]	; 0x30
 80018d8:	2b00      	cmp	r3, #0
 80018da:	bfb4      	ite	lt
 80018dc:	4602      	movlt	r2, r0
 80018de:	2200      	movge	r2, #0
 80018e0:	f04f 0800 	mov.w	r8, #0
 80018e4:	ea23 73e3 	bic.w	r3, r3, r3, asr #31
 80018e8:	920d      	str	r2, [sp, #52]	; 0x34
 80018ea:	9310      	str	r3, [sp, #64]	; 0x40
 80018ec:	46c3      	mov	fp, r8
 80018ee:	9c11      	ldr	r4, [sp, #68]	; 0x44
 80018f0:	4650      	mov	r0, sl
 80018f2:	6861      	ldr	r1, [r4, #4]
 80018f4:	f002 fdc4 	bl	8004480 <_Balloc>
 80018f8:	4681      	mov	r9, r0
 80018fa:	2800      	cmp	r0, #0
 80018fc:	f000 8147 	beq.w	8001b8e <_strtod_l+0x6ae>
 8001900:	6922      	ldr	r2, [r4, #16]
 8001902:	ed9d 8b04 	vldr	d8, [sp, #16]
 8001906:	3202      	adds	r2, #2
 8001908:	0092      	lsls	r2, r2, #2
 800190a:	f104 010c 	add.w	r1, r4, #12
 800190e:	300c      	adds	r0, #12
 8001910:	f7fe fbda 	bl	80000c8 <memcpy>
 8001914:	eeb0 0a48 	vmov.f32	s0, s16
 8001918:	eef0 0a68 	vmov.f32	s1, s17
 800191c:	aa1c      	add	r2, sp, #112	; 0x70
 800191e:	a91b      	add	r1, sp, #108	; 0x6c
 8001920:	4650      	mov	r0, sl
 8001922:	f003 fa0d 	bl	8004d40 <__d2b>
 8001926:	901a      	str	r0, [sp, #104]	; 0x68
 8001928:	2800      	cmp	r0, #0
 800192a:	f000 811d 	beq.w	8001b68 <_strtod_l+0x688>
 800192e:	2101      	movs	r1, #1
 8001930:	4650      	mov	r0, sl
 8001932:	f002 ff05 	bl	8004740 <__i2b>
 8001936:	4683      	mov	fp, r0
 8001938:	2800      	cmp	r0, #0
 800193a:	f000 8128 	beq.w	8001b8e <_strtod_l+0x6ae>
 800193e:	9b1b      	ldr	r3, [sp, #108]	; 0x6c
 8001940:	2b00      	cmp	r3, #0
 8001942:	f2c0 8117 	blt.w	8001b74 <_strtod_l+0x694>
 8001946:	9a0d      	ldr	r2, [sp, #52]	; 0x34
 8001948:	9d10      	ldr	r5, [sp, #64]	; 0x40
 800194a:	189e      	adds	r6, r3, r2
 800194c:	9a08      	ldr	r2, [sp, #32]
 800194e:	9c1c      	ldr	r4, [sp, #112]	; 0x70
 8001950:	1a9b      	subs	r3, r3, r2
 8001952:	4423      	add	r3, r4
 8001954:	4a6f      	ldr	r2, [pc, #444]	; (8001b14 <_strtod_l+0x634>)
 8001956:	3b01      	subs	r3, #1
 8001958:	4293      	cmp	r3, r2
 800195a:	f1c4 0436 	rsb	r4, r4, #54	; 0x36
 800195e:	f280 80b0 	bge.w	8001ac2 <_strtod_l+0x5e2>
 8001962:	1ad2      	subs	r2, r2, r3
 8001964:	2a1f      	cmp	r2, #31
 8001966:	eba4 0402 	sub.w	r4, r4, r2
 800196a:	f300 811c 	bgt.w	8001ba6 <_strtod_l+0x6c6>
 800196e:	2301      	movs	r3, #1
 8001970:	4093      	lsls	r3, r2
 8001972:	930a      	str	r3, [sp, #40]	; 0x28
 8001974:	2700      	movs	r7, #0
 8001976:	9b08      	ldr	r3, [sp, #32]
 8001978:	4425      	add	r5, r4
 800197a:	4434      	add	r4, r6
 800197c:	42a6      	cmp	r6, r4
 800197e:	441d      	add	r5, r3
 8001980:	4633      	mov	r3, r6
 8001982:	bfa8      	it	ge
 8001984:	4623      	movge	r3, r4
 8001986:	42ab      	cmp	r3, r5
 8001988:	bfa8      	it	ge
 800198a:	462b      	movge	r3, r5
 800198c:	2b00      	cmp	r3, #0
 800198e:	dd02      	ble.n	8001996 <_strtod_l+0x4b6>
 8001990:	1ae4      	subs	r4, r4, r3
 8001992:	1aed      	subs	r5, r5, r3
 8001994:	1af6      	subs	r6, r6, r3
 8001996:	9b0d      	ldr	r3, [sp, #52]	; 0x34
 8001998:	2b00      	cmp	r3, #0
 800199a:	f300 80c5 	bgt.w	8001b28 <_strtod_l+0x648>
 800199e:	2c00      	cmp	r4, #0
 80019a0:	f300 80d9 	bgt.w	8001b56 <_strtod_l+0x676>
 80019a4:	9b0c      	ldr	r3, [sp, #48]	; 0x30
 80019a6:	2b00      	cmp	r3, #0
 80019a8:	f300 80e8 	bgt.w	8001b7c <_strtod_l+0x69c>
 80019ac:	2d00      	cmp	r5, #0
 80019ae:	f300 80f0 	bgt.w	8001b92 <_strtod_l+0x6b2>
 80019b2:	2e00      	cmp	r6, #0
 80019b4:	dd08      	ble.n	80019c8 <_strtod_l+0x4e8>
 80019b6:	4659      	mov	r1, fp
 80019b8:	4632      	mov	r2, r6
 80019ba:	4650      	mov	r0, sl
 80019bc:	f002 fff4 	bl	80049a8 <__lshift>
 80019c0:	4683      	mov	fp, r0
 80019c2:	2800      	cmp	r0, #0
 80019c4:	f000 80e3 	beq.w	8001b8e <_strtod_l+0x6ae>
 80019c8:	991a      	ldr	r1, [sp, #104]	; 0x68
 80019ca:	464a      	mov	r2, r9
 80019cc:	4650      	mov	r0, sl
 80019ce:	f003 f881 	bl	8004ad4 <__mdiff>
 80019d2:	4680      	mov	r8, r0
 80019d4:	2800      	cmp	r0, #0
 80019d6:	f000 80da 	beq.w	8001b8e <_strtod_l+0x6ae>
 80019da:	2300      	movs	r3, #0
 80019dc:	68c2      	ldr	r2, [r0, #12]
 80019de:	60c3      	str	r3, [r0, #12]
 80019e0:	4659      	mov	r1, fp
 80019e2:	920e      	str	r2, [sp, #56]	; 0x38
 80019e4:	f003 f854 	bl	8004a90 <__mcmp>
 80019e8:	2800      	cmp	r0, #0
 80019ea:	f2c0 8475 	blt.w	80022d8 <_strtod_l+0xdf8>
 80019ee:	f000 83e5 	beq.w	80021bc <_strtod_l+0xcdc>
 80019f2:	4659      	mov	r1, fp
 80019f4:	4640      	mov	r0, r8
 80019f6:	f003 fa0b 	bl	8004e10 <__ratio>
 80019fa:	ec55 4b10 	vmov	r4, r5, d0
 80019fe:	ee10 0a10 	vmov	r0, s0
 8001a02:	2200      	movs	r2, #0
 8001a04:	f04f 4380 	mov.w	r3, #1073741824	; 0x40000000
 8001a08:	4629      	mov	r1, r5
 8001a0a:	f005 fa9b 	bl	8006f44 <__aeabi_dcmple>
 8001a0e:	2800      	cmp	r0, #0
 8001a10:	d05b      	beq.n	8001aca <_strtod_l+0x5ea>
 8001a12:	9b0e      	ldr	r3, [sp, #56]	; 0x38
 8001a14:	2b00      	cmp	r3, #0
 8001a16:	f000 80dd 	beq.w	8001bd4 <_strtod_l+0x6f4>
 8001a1a:	9b05      	ldr	r3, [sp, #20]
 8001a1c:	930f      	str	r3, [sp, #60]	; 0x3c
 8001a1e:	4b3e      	ldr	r3, [pc, #248]	; (8001b18 <_strtod_l+0x638>)
 8001a20:	4d3d      	ldr	r5, [pc, #244]	; (8001b18 <_strtod_l+0x638>)
 8001a22:	2200      	movs	r2, #0
 8001a24:	e9cd 230a 	strd	r2, r3, [sp, #40]	; 0x28
 8001a28:	2400      	movs	r4, #0
 8001a2a:	4f3c      	ldr	r7, [pc, #240]	; (8001b1c <_strtod_l+0x63c>)
 8001a2c:	9a0f      	ldr	r2, [sp, #60]	; 0x3c
 8001a2e:	4b3c      	ldr	r3, [pc, #240]	; (8001b20 <_strtod_l+0x640>)
 8001a30:	ea02 0607 	and.w	r6, r2, r7
 8001a34:	429e      	cmp	r6, r3
 8001a36:	f000 80f8 	beq.w	8001c2a <_strtod_l+0x74a>
 8001a3a:	9b08      	ldr	r3, [sp, #32]
 8001a3c:	b18b      	cbz	r3, 8001a62 <_strtod_l+0x582>
 8001a3e:	f1b6 6fd4 	cmp.w	r6, #111149056	; 0x6a00000
 8001a42:	d80e      	bhi.n	8001a62 <_strtod_l+0x582>
 8001a44:	a32e      	add	r3, pc, #184	; (adr r3, 8001b00 <_strtod_l+0x620>)
 8001a46:	e9d3 2300 	ldrd	r2, r3, [r3]
 8001a4a:	4620      	mov	r0, r4
 8001a4c:	4629      	mov	r1, r5
 8001a4e:	f005 fa79 	bl	8006f44 <__aeabi_dcmple>
 8001a52:	2800      	cmp	r0, #0
 8001a54:	f040 8187 	bne.w	8001d66 <_strtod_l+0x886>
 8001a58:	9b0b      	ldr	r3, [sp, #44]	; 0x2c
 8001a5a:	f103 63d6 	add.w	r3, r3, #112197632	; 0x6b00000
 8001a5e:	1b9b      	subs	r3, r3, r6
 8001a60:	930b      	str	r3, [sp, #44]	; 0x2c
 8001a62:	e9dd 010a 	ldrd	r0, r1, [sp, #40]	; 0x28
 8001a66:	eeb0 0a48 	vmov.f32	s0, s16
 8001a6a:	eef0 0a68 	vmov.f32	s1, s17
 8001a6e:	e9cd 0104 	strd	r0, r1, [sp, #16]
 8001a72:	f003 f8d5 	bl	8004c20 <__ulp>
 8001a76:	e9dd 0104 	ldrd	r0, r1, [sp, #16]
 8001a7a:	ec53 2b10 	vmov	r2, r3, d0
 8001a7e:	f004 ffe5 	bl	8006a4c <__aeabi_dmul>
 8001a82:	ec53 2b18 	vmov	r2, r3, d8
 8001a86:	f004 fe2b 	bl	80066e0 <__adddf3>
 8001a8a:	e9cd 0104 	strd	r0, r1, [sp, #16]
 8001a8e:	910a      	str	r1, [sp, #40]	; 0x28
 8001a90:	9b08      	ldr	r3, [sp, #32]
 8001a92:	b92b      	cbnz	r3, 8001aa0 <_strtod_l+0x5c0>
 8001a94:	4b21      	ldr	r3, [pc, #132]	; (8001b1c <_strtod_l+0x63c>)
 8001a96:	9a0a      	ldr	r2, [sp, #40]	; 0x28
 8001a98:	4013      	ands	r3, r2
 8001a9a:	429e      	cmp	r6, r3
 8001a9c:	f000 8104 	beq.w	8001ca8 <_strtod_l+0x7c8>
 8001aa0:	991a      	ldr	r1, [sp, #104]	; 0x68
 8001aa2:	4650      	mov	r0, sl
 8001aa4:	f002 fd2c 	bl	8004500 <_Bfree>
 8001aa8:	4649      	mov	r1, r9
 8001aaa:	4650      	mov	r0, sl
 8001aac:	f002 fd28 	bl	8004500 <_Bfree>
 8001ab0:	4659      	mov	r1, fp
 8001ab2:	4650      	mov	r0, sl
 8001ab4:	f002 fd24 	bl	8004500 <_Bfree>
 8001ab8:	4641      	mov	r1, r8
 8001aba:	4650      	mov	r0, sl
 8001abc:	f002 fd20 	bl	8004500 <_Bfree>
 8001ac0:	e715      	b.n	80018ee <_strtod_l+0x40e>
 8001ac2:	2301      	movs	r3, #1
 8001ac4:	2700      	movs	r7, #0
 8001ac6:	930a      	str	r3, [sp, #40]	; 0x28
 8001ac8:	e755      	b.n	8001976 <_strtod_l+0x496>
 8001aca:	4b16      	ldr	r3, [pc, #88]	; (8001b24 <_strtod_l+0x644>)
 8001acc:	4620      	mov	r0, r4
 8001ace:	4629      	mov	r1, r5
 8001ad0:	2200      	movs	r2, #0
 8001ad2:	f004 ffbb 	bl	8006a4c <__aeabi_dmul>
 8001ad6:	9b0e      	ldr	r3, [sp, #56]	; 0x38
 8001ad8:	4604      	mov	r4, r0
 8001ada:	460d      	mov	r5, r1
 8001adc:	2b00      	cmp	r3, #0
 8001ade:	d176      	bne.n	8001bce <_strtod_l+0x6ee>
 8001ae0:	f101 4300 	add.w	r3, r1, #2147483648	; 0x80000000
 8001ae4:	9012      	str	r0, [sp, #72]	; 0x48
 8001ae6:	9313      	str	r3, [sp, #76]	; 0x4c
 8001ae8:	9b05      	ldr	r3, [sp, #20]
 8001aea:	930f      	str	r3, [sp, #60]	; 0x3c
 8001aec:	e9dd 2312 	ldrd	r2, r3, [sp, #72]	; 0x48
 8001af0:	e9cd 230a 	strd	r2, r3, [sp, #40]	; 0x28
 8001af4:	e799      	b.n	8001a2a <_strtod_l+0x54a>
 8001af6:	bf00      	nop
	...
 8001b00:	ffc00000 	.word	0xffc00000
 8001b04:	41dfffff 	.word	0x41dfffff
 8001b08:	08008388 	.word	0x08008388
 8001b0c:	0800849c 	.word	0x0800849c
 8001b10:	08008220 	.word	0x08008220
 8001b14:	fffffc02 	.word	0xfffffc02
 8001b18:	3ff00000 	.word	0x3ff00000
 8001b1c:	7ff00000 	.word	0x7ff00000
 8001b20:	7fe00000 	.word	0x7fe00000
 8001b24:	3fe00000 	.word	0x3fe00000
 8001b28:	4659      	mov	r1, fp
 8001b2a:	461a      	mov	r2, r3
 8001b2c:	4650      	mov	r0, sl
 8001b2e:	f002 fecb 	bl	80048c8 <__pow5mult>
 8001b32:	4683      	mov	fp, r0
 8001b34:	b358      	cbz	r0, 8001b8e <_strtod_l+0x6ae>
 8001b36:	4601      	mov	r1, r0
 8001b38:	9a1a      	ldr	r2, [sp, #104]	; 0x68
 8001b3a:	4650      	mov	r0, sl
 8001b3c:	f002 fe16 	bl	800476c <__multiply>
 8001b40:	b328      	cbz	r0, 8001b8e <_strtod_l+0x6ae>
 8001b42:	900e      	str	r0, [sp, #56]	; 0x38
 8001b44:	991a      	ldr	r1, [sp, #104]	; 0x68
 8001b46:	4650      	mov	r0, sl
 8001b48:	f002 fcda 	bl	8004500 <_Bfree>
 8001b4c:	9b0e      	ldr	r3, [sp, #56]	; 0x38
 8001b4e:	931a      	str	r3, [sp, #104]	; 0x68
 8001b50:	2c00      	cmp	r4, #0
 8001b52:	f77f af27 	ble.w	80019a4 <_strtod_l+0x4c4>
 8001b56:	991a      	ldr	r1, [sp, #104]	; 0x68
 8001b58:	4622      	mov	r2, r4
 8001b5a:	4650      	mov	r0, sl
 8001b5c:	f002 ff24 	bl	80049a8 <__lshift>
 8001b60:	901a      	str	r0, [sp, #104]	; 0x68
 8001b62:	2800      	cmp	r0, #0
 8001b64:	f47f af1e 	bne.w	80019a4 <_strtod_l+0x4c4>
 8001b68:	2322      	movs	r3, #34	; 0x22
 8001b6a:	ed9f 8bbf 	vldr	d8, [pc, #764]	; 8001e68 <_strtod_l+0x988>
 8001b6e:	f8ca 3000 	str.w	r3, [sl]
 8001b72:	e0c4      	b.n	8001cfe <_strtod_l+0x81e>
 8001b74:	9a10      	ldr	r2, [sp, #64]	; 0x40
 8001b76:	9e0d      	ldr	r6, [sp, #52]	; 0x34
 8001b78:	1ad5      	subs	r5, r2, r3
 8001b7a:	e6e7      	b.n	800194c <_strtod_l+0x46c>
 8001b7c:	4649      	mov	r1, r9
 8001b7e:	9a10      	ldr	r2, [sp, #64]	; 0x40
 8001b80:	4650      	mov	r0, sl
 8001b82:	f002 fea1 	bl	80048c8 <__pow5mult>
 8001b86:	4681      	mov	r9, r0
 8001b88:	2800      	cmp	r0, #0
 8001b8a:	f47f af0f 	bne.w	80019ac <_strtod_l+0x4cc>
 8001b8e:	981a      	ldr	r0, [sp, #104]	; 0x68
 8001b90:	e7ea      	b.n	8001b68 <_strtod_l+0x688>
 8001b92:	4649      	mov	r1, r9
 8001b94:	462a      	mov	r2, r5
 8001b96:	4650      	mov	r0, sl
 8001b98:	f002 ff06 	bl	80049a8 <__lshift>
 8001b9c:	4681      	mov	r9, r0
 8001b9e:	2800      	cmp	r0, #0
 8001ba0:	f47f af07 	bne.w	80019b2 <_strtod_l+0x4d2>
 8001ba4:	e7f3      	b.n	8001b8e <_strtod_l+0x6ae>
 8001ba6:	4fb8      	ldr	r7, [pc, #736]	; (8001e88 <_strtod_l+0x9a8>)
 8001ba8:	1aff      	subs	r7, r7, r3
 8001baa:	2301      	movs	r3, #1
 8001bac:	fa03 f707 	lsl.w	r7, r3, r7
 8001bb0:	930a      	str	r3, [sp, #40]	; 0x28
 8001bb2:	e6e0      	b.n	8001976 <_strtod_l+0x496>
 8001bb4:	2200      	movs	r2, #0
 8001bb6:	f8cd 8064 	str.w	r8, [sp, #100]	; 0x64
 8001bba:	920d      	str	r2, [sp, #52]	; 0x34
 8001bbc:	e586      	b.n	80016cc <_strtod_l+0x1ec>
 8001bbe:	2201      	movs	r2, #1
 8001bc0:	9208      	str	r2, [sp, #32]
 8001bc2:	f108 0202 	add.w	r2, r8, #2
 8001bc6:	9219      	str	r2, [sp, #100]	; 0x64
 8001bc8:	f898 4002 	ldrb.w	r4, [r8, #2]
 8001bcc:	e5dc      	b.n	8001788 <_strtod_l+0x2a8>
 8001bce:	e9cd 4512 	strd	r4, r5, [sp, #72]	; 0x48
 8001bd2:	e789      	b.n	8001ae8 <_strtod_l+0x608>
 8001bd4:	e9dd 1204 	ldrd	r1, r2, [sp, #16]
 8001bd8:	2900      	cmp	r1, #0
 8001bda:	f040 80b2 	bne.w	8001d42 <_strtod_l+0x862>
 8001bde:	f3c2 0313 	ubfx	r3, r2, #0, #20
 8001be2:	920f      	str	r2, [sp, #60]	; 0x3c
 8001be4:	2b00      	cmp	r3, #0
 8001be6:	f040 80b2 	bne.w	8001d4e <_strtod_l+0x86e>
 8001bea:	4ba8      	ldr	r3, [pc, #672]	; (8001e8c <_strtod_l+0x9ac>)
 8001bec:	2200      	movs	r2, #0
 8001bee:	4620      	mov	r0, r4
 8001bf0:	4629      	mov	r1, r5
 8001bf2:	f005 f99d 	bl	8006f30 <__aeabi_dcmplt>
 8001bf6:	2800      	cmp	r0, #0
 8001bf8:	f040 82a7 	bne.w	800214a <_strtod_l+0xc6a>
 8001bfc:	4ba4      	ldr	r3, [pc, #656]	; (8001e90 <_strtod_l+0x9b0>)
 8001bfe:	4620      	mov	r0, r4
 8001c00:	4629      	mov	r1, r5
 8001c02:	2200      	movs	r2, #0
 8001c04:	f004 ff22 	bl	8006a4c <__aeabi_dmul>
 8001c08:	f101 4300 	add.w	r3, r1, #2147483648	; 0x80000000
 8001c0c:	4604      	mov	r4, r0
 8001c0e:	460d      	mov	r5, r1
 8001c10:	9016      	str	r0, [sp, #88]	; 0x58
 8001c12:	9317      	str	r3, [sp, #92]	; 0x5c
 8001c14:	e9dd 2316 	ldrd	r2, r3, [sp, #88]	; 0x58
 8001c18:	e9cd 230a 	strd	r2, r3, [sp, #40]	; 0x28
 8001c1c:	e705      	b.n	8001a2a <_strtod_l+0x54a>
 8001c1e:	2c65      	cmp	r4, #101	; 0x65
 8001c20:	f04f 0e01 	mov.w	lr, #1
 8001c24:	f43f ada1 	beq.w	800176a <_strtod_l+0x28a>
 8001c28:	e515      	b.n	8001656 <_strtod_l+0x176>
 8001c2a:	f1a2 7354 	sub.w	r3, r2, #55574528	; 0x3500000
 8001c2e:	9305      	str	r3, [sp, #20]
 8001c30:	ed9d 7b04 	vldr	d7, [sp, #16]
 8001c34:	e9dd 010a 	ldrd	r0, r1, [sp, #40]	; 0x28
 8001c38:	eeb0 0a47 	vmov.f32	s0, s14
 8001c3c:	eef0 0a67 	vmov.f32	s1, s15
 8001c40:	eeb0 9a47 	vmov.f32	s18, s14
 8001c44:	eef0 9a67 	vmov.f32	s19, s15
 8001c48:	e9cd 0104 	strd	r0, r1, [sp, #16]
 8001c4c:	f002 ffe8 	bl	8004c20 <__ulp>
 8001c50:	e9dd 0104 	ldrd	r0, r1, [sp, #16]
 8001c54:	ec53 2b10 	vmov	r2, r3, d0
 8001c58:	f004 fef8 	bl	8006a4c <__aeabi_dmul>
 8001c5c:	ec53 2b19 	vmov	r2, r3, d9
 8001c60:	f004 fd3e 	bl	80066e0 <__adddf3>
 8001c64:	4b8b      	ldr	r3, [pc, #556]	; (8001e94 <_strtod_l+0x9b4>)
 8001c66:	400f      	ands	r7, r1
 8001c68:	429f      	cmp	r7, r3
 8001c6a:	e9cd 0104 	strd	r0, r1, [sp, #16]
 8001c6e:	d975      	bls.n	8001d5c <_strtod_l+0x87c>
 8001c70:	ee18 2a90 	vmov	r2, s17
 8001c74:	f103 7354 	add.w	r3, r3, #55574528	; 0x3500000
 8001c78:	429a      	cmp	r2, r3
 8001c7a:	d103      	bne.n	8001c84 <_strtod_l+0x7a4>
 8001c7c:	ee18 3a10 	vmov	r3, s16
 8001c80:	3301      	adds	r3, #1
 8001c82:	d084      	beq.n	8001b8e <_strtod_l+0x6ae>
 8001c84:	4a84      	ldr	r2, [pc, #528]	; (8001e98 <_strtod_l+0x9b8>)
 8001c86:	f04f 33ff 	mov.w	r3, #4294967295	; 0xffffffff
 8001c8a:	e9cd 3204 	strd	r3, r2, [sp, #16]
 8001c8e:	e707      	b.n	8001aa0 <_strtod_l+0x5c0>
 8001c90:	2200      	movs	r2, #0
 8001c92:	9208      	str	r2, [sp, #32]
 8001c94:	e795      	b.n	8001bc2 <_strtod_l+0x6e2>
 8001c96:	2c65      	cmp	r4, #101	; 0x65
 8001c98:	f000 810a 	beq.w	8001eb0 <_strtod_l+0x9d0>
 8001c9c:	2c45      	cmp	r4, #69	; 0x45
 8001c9e:	f000 8107 	beq.w	8001eb0 <_strtod_l+0x9d0>
 8001ca2:	f04f 0e01 	mov.w	lr, #1
 8001ca6:	e5ac      	b.n	8001802 <_strtod_l+0x322>
 8001ca8:	4620      	mov	r0, r4
 8001caa:	4629      	mov	r1, r5
 8001cac:	f005 fa16 	bl	80070dc <__aeabi_d2lz>
 8001cb0:	f004 fe9e 	bl	80069f0 <__aeabi_l2d>
 8001cb4:	460b      	mov	r3, r1
 8001cb6:	4602      	mov	r2, r0
 8001cb8:	4629      	mov	r1, r5
 8001cba:	4620      	mov	r0, r4
 8001cbc:	f004 fd0e 	bl	80066dc <__aeabi_dsub>
 8001cc0:	9c04      	ldr	r4, [sp, #16]
 8001cc2:	9f0e      	ldr	r7, [sp, #56]	; 0x38
 8001cc4:	4327      	orrs	r7, r4
 8001cc6:	9c0a      	ldr	r4, [sp, #40]	; 0x28
 8001cc8:	f3c4 0613 	ubfx	r6, r4, #0, #20
 8001ccc:	ea57 0306 	orrs.w	r3, r7, r6
 8001cd0:	4604      	mov	r4, r0
 8001cd2:	460d      	mov	r5, r1
 8001cd4:	f000 80ac 	beq.w	8001e30 <_strtod_l+0x950>
 8001cd8:	a365      	add	r3, pc, #404	; (adr r3, 8001e70 <_strtod_l+0x990>)
 8001cda:	e9d3 2300 	ldrd	r2, r3, [r3]
 8001cde:	f005 f927 	bl	8006f30 <__aeabi_dcmplt>
 8001ce2:	b948      	cbnz	r0, 8001cf8 <_strtod_l+0x818>
 8001ce4:	a364      	add	r3, pc, #400	; (adr r3, 8001e78 <_strtod_l+0x998>)
 8001ce6:	e9d3 2300 	ldrd	r2, r3, [r3]
 8001cea:	4620      	mov	r0, r4
 8001cec:	4629      	mov	r1, r5
 8001cee:	f005 f93d 	bl	8006f6c <__aeabi_dcmpgt>
 8001cf2:	2800      	cmp	r0, #0
 8001cf4:	f43f aed4 	beq.w	8001aa0 <_strtod_l+0x5c0>
 8001cf8:	ed9d 8b04 	vldr	d8, [sp, #16]
 8001cfc:	981a      	ldr	r0, [sp, #104]	; 0x68
 8001cfe:	4601      	mov	r1, r0
 8001d00:	4650      	mov	r0, sl
 8001d02:	f002 fbfd 	bl	8004500 <_Bfree>
 8001d06:	4649      	mov	r1, r9
 8001d08:	4650      	mov	r0, sl
 8001d0a:	f002 fbf9 	bl	8004500 <_Bfree>
 8001d0e:	4659      	mov	r1, fp
 8001d10:	4650      	mov	r0, sl
 8001d12:	f002 fbf5 	bl	8004500 <_Bfree>
 8001d16:	9911      	ldr	r1, [sp, #68]	; 0x44
 8001d18:	4650      	mov	r0, sl
 8001d1a:	f002 fbf1 	bl	8004500 <_Bfree>
 8001d1e:	4641      	mov	r1, r8
 8001d20:	4650      	mov	r0, sl
 8001d22:	f002 fbed 	bl	8004500 <_Bfree>
 8001d26:	e594      	b.n	8001852 <_strtod_l+0x372>
 8001d28:	2301      	movs	r3, #1
 8001d2a:	9309      	str	r3, [sp, #36]	; 0x24
 8001d2c:	1c7a      	adds	r2, r7, #1
 8001d2e:	9219      	str	r2, [sp, #100]	; 0x64
 8001d30:	787b      	ldrb	r3, [r7, #1]
 8001d32:	2b00      	cmp	r3, #0
 8001d34:	f43f ac98 	beq.w	8001668 <_strtod_l+0x188>
 8001d38:	4617      	mov	r7, r2
 8001d3a:	e421      	b.n	8001580 <_strtod_l+0xa0>
 8001d3c:	2300      	movs	r3, #0
 8001d3e:	9309      	str	r3, [sp, #36]	; 0x24
 8001d40:	e7f4      	b.n	8001d2c <_strtod_l+0x84c>
 8001d42:	e9dd 1204 	ldrd	r1, r2, [sp, #16]
 8001d46:	2901      	cmp	r1, #1
 8001d48:	f000 8186 	beq.w	8002058 <_strtod_l+0xb78>
 8001d4c:	920f      	str	r2, [sp, #60]	; 0x3c
 8001d4e:	4b53      	ldr	r3, [pc, #332]	; (8001e9c <_strtod_l+0x9bc>)
 8001d50:	4d4e      	ldr	r5, [pc, #312]	; (8001e8c <_strtod_l+0x9ac>)
 8001d52:	2200      	movs	r2, #0
 8001d54:	e9cd 230a 	strd	r2, r3, [sp, #40]	; 0x28
 8001d58:	2400      	movs	r4, #0
 8001d5a:	e666      	b.n	8001a2a <_strtod_l+0x54a>
 8001d5c:	f101 7354 	add.w	r3, r1, #55574528	; 0x3500000
 8001d60:	930a      	str	r3, [sp, #40]	; 0x28
 8001d62:	9305      	str	r3, [sp, #20]
 8001d64:	e694      	b.n	8001a90 <_strtod_l+0x5b0>
 8001d66:	4629      	mov	r1, r5
 8001d68:	4620      	mov	r0, r4
 8001d6a:	f005 f947 	bl	8006ffc <__aeabi_d2uiz>
 8001d6e:	2801      	cmp	r0, #1
 8001d70:	bf38      	it	cc
 8001d72:	2001      	movcc	r0, #1
 8001d74:	f004 fdf0 	bl	8006958 <__aeabi_ui2d>
 8001d78:	9b0e      	ldr	r3, [sp, #56]	; 0x38
 8001d7a:	4604      	mov	r4, r0
 8001d7c:	460d      	mov	r5, r1
 8001d7e:	2b00      	cmp	r3, #0
 8001d80:	f040 8177 	bne.w	8002072 <_strtod_l+0xb92>
 8001d84:	f101 4300 	add.w	r3, r1, #2147483648	; 0x80000000
 8001d88:	9014      	str	r0, [sp, #80]	; 0x50
 8001d8a:	9315      	str	r3, [sp, #84]	; 0x54
 8001d8c:	e9dd 2314 	ldrd	r2, r3, [sp, #80]	; 0x50
 8001d90:	e9cd 230a 	strd	r2, r3, [sp, #40]	; 0x28
 8001d94:	e660      	b.n	8001a58 <_strtod_l+0x578>
 8001d96:	f5b3 7f9a 	cmp.w	r3, #308	; 0x134
 8001d9a:	f300 8104 	bgt.w	8001fa6 <_strtod_l+0xac6>
 8001d9e:	111c      	asrs	r4, r3, #4
 8001da0:	2b10      	cmp	r3, #16
 8001da2:	4b3f      	ldr	r3, [pc, #252]	; (8001ea0 <_strtod_l+0x9c0>)
 8001da4:	9308      	str	r3, [sp, #32]
 8001da6:	f340 82d7 	ble.w	8002358 <_strtod_l+0xe78>
 8001daa:	4698      	mov	r8, r3
 8001dac:	e9dd 2304 	ldrd	r2, r3, [sp, #16]
 8001db0:	f04f 0c00 	mov.w	ip, #0
 8001db4:	46e1      	mov	r9, ip
 8001db6:	f014 0f01 	tst.w	r4, #1
 8001dba:	4610      	mov	r0, r2
 8001dbc:	4619      	mov	r1, r3
 8001dbe:	ea4f 0464 	mov.w	r4, r4, asr #1
 8001dc2:	f109 0901 	add.w	r9, r9, #1
 8001dc6:	d007      	beq.n	8001dd8 <_strtod_l+0x8f8>
 8001dc8:	e9d8 2300 	ldrd	r2, r3, [r8]
 8001dcc:	f004 fe3e 	bl	8006a4c <__aeabi_dmul>
 8001dd0:	f04f 0c01 	mov.w	ip, #1
 8001dd4:	4602      	mov	r2, r0
 8001dd6:	460b      	mov	r3, r1
 8001dd8:	2c01      	cmp	r4, #1
 8001dda:	f108 0808 	add.w	r8, r8, #8
 8001dde:	d1ea      	bne.n	8001db6 <_strtod_l+0x8d6>
 8001de0:	f1bc 0f00 	cmp.w	ip, #0
 8001de4:	d001      	beq.n	8001dea <_strtod_l+0x90a>
 8001de6:	e9cd 2304 	strd	r2, r3, [sp, #16]
 8001dea:	9b08      	ldr	r3, [sp, #32]
 8001dec:	eb03 09c9 	add.w	r9, r3, r9, lsl #3
 8001df0:	9b05      	ldr	r3, [sp, #20]
 8001df2:	f1a3 7354 	sub.w	r3, r3, #55574528	; 0x3500000
 8001df6:	9305      	str	r3, [sp, #20]
 8001df8:	e9dd 2304 	ldrd	r2, r3, [sp, #16]
 8001dfc:	e9d9 0100 	ldrd	r0, r1, [r9]
 8001e00:	f004 fe24 	bl	8006a4c <__aeabi_dmul>
 8001e04:	4b27      	ldr	r3, [pc, #156]	; (8001ea4 <_strtod_l+0x9c4>)
 8001e06:	e9cd 0104 	strd	r0, r1, [sp, #16]
 8001e0a:	400b      	ands	r3, r1
 8001e0c:	460a      	mov	r2, r1
 8001e0e:	4926      	ldr	r1, [pc, #152]	; (8001ea8 <_strtod_l+0x9c8>)
 8001e10:	428b      	cmp	r3, r1
 8001e12:	f200 80c8 	bhi.w	8001fa6 <_strtod_l+0xac6>
 8001e16:	f5a1 1180 	sub.w	r1, r1, #1048576	; 0x100000
 8001e1a:	428b      	cmp	r3, r1
 8001e1c:	f240 823b 	bls.w	8002296 <_strtod_l+0xdb6>
 8001e20:	4a1d      	ldr	r2, [pc, #116]	; (8001e98 <_strtod_l+0x9b8>)
 8001e22:	f04f 33ff 	mov.w	r3, #4294967295	; 0xffffffff
 8001e26:	e9cd 3204 	strd	r3, r2, [sp, #16]
 8001e2a:	2300      	movs	r3, #0
 8001e2c:	9308      	str	r3, [sp, #32]
 8001e2e:	e544      	b.n	80018ba <_strtod_l+0x3da>
 8001e30:	a313      	add	r3, pc, #76	; (adr r3, 8001e80 <_strtod_l+0x9a0>)
 8001e32:	e9d3 2300 	ldrd	r2, r3, [r3]
 8001e36:	f005 f87b 	bl	8006f30 <__aeabi_dcmplt>
 8001e3a:	2800      	cmp	r0, #0
 8001e3c:	f43f ae30 	beq.w	8001aa0 <_strtod_l+0x5c0>
 8001e40:	e75a      	b.n	8001cf8 <_strtod_l+0x818>
 8001e42:	3316      	adds	r3, #22
 8001e44:	f6ff ad1f 	blt.w	8001886 <_strtod_l+0x3a6>
 8001e48:	9b0d      	ldr	r3, [sp, #52]	; 0x34
 8001e4a:	ebab 0a03 	sub.w	sl, fp, r3
 8001e4e:	4b17      	ldr	r3, [pc, #92]	; (8001eac <_strtod_l+0x9cc>)
 8001e50:	eb03 03ca 	add.w	r3, r3, sl, lsl #3
 8001e54:	e9dd 0104 	ldrd	r0, r1, [sp, #16]
 8001e58:	e9d3 2300 	ldrd	r2, r3, [r3]
 8001e5c:	f004 ff20 	bl	8006ca0 <__aeabi_ddiv>
 8001e60:	ec41 0b18 	vmov	d8, r0, r1
 8001e64:	e4f5      	b.n	8001852 <_strtod_l+0x372>
 8001e66:	bf00      	nop
 8001e68:	00000000 	.word	0x00000000
 8001e6c:	7ff00000 	.word	0x7ff00000
 8001e70:	94a03595 	.word	0x94a03595
 8001e74:	3fdfffff 	.word	0x3fdfffff
 8001e78:	35afe535 	.word	0x35afe535
 8001e7c:	3fe00000 	.word	0x3fe00000
 8001e80:	94a03595 	.word	0x94a03595
 8001e84:	3fcfffff 	.word	0x3fcfffff
 8001e88:	fffffbe2 	.word	0xfffffbe2
 8001e8c:	3ff00000 	.word	0x3ff00000
 8001e90:	3fe00000 	.word	0x3fe00000
 8001e94:	7c9fffff 	.word	0x7c9fffff
 8001e98:	7fefffff 	.word	0x7fefffff
 8001e9c:	bff00000 	.word	0xbff00000
 8001ea0:	08008310 	.word	0x08008310
 8001ea4:	7ff00000 	.word	0x7ff00000
 8001ea8:	7ca00000 	.word	0x7ca00000
 8001eac:	08008220 	.word	0x08008220
 8001eb0:	2200      	movs	r2, #0
 8001eb2:	920a      	str	r2, [sp, #40]	; 0x28
 8001eb4:	4693      	mov	fp, r2
 8001eb6:	f04f 0e01 	mov.w	lr, #1
 8001eba:	f7ff bbd1 	b.w	8001660 <_strtod_l+0x180>
 8001ebe:	2c6e      	cmp	r4, #110	; 0x6e
 8001ec0:	f43f acb1 	beq.w	8001826 <_strtod_l+0x346>
 8001ec4:	f7ff bbd0 	b.w	8001668 <_strtod_l+0x188>
 8001ec8:	f43f acf5 	beq.w	80018b6 <_strtod_l+0x3d6>
 8001ecc:	4264      	negs	r4, r4
 8001ece:	f014 020f 	ands.w	r2, r4, #15
 8001ed2:	d00a      	beq.n	8001eea <_strtod_l+0xa0a>
 8001ed4:	4bb2      	ldr	r3, [pc, #712]	; (80021a0 <_strtod_l+0xcc0>)
 8001ed6:	eb03 03c2 	add.w	r3, r3, r2, lsl #3
 8001eda:	e9dd 0104 	ldrd	r0, r1, [sp, #16]
 8001ede:	e9d3 2300 	ldrd	r2, r3, [r3]
 8001ee2:	f004 fedd 	bl	8006ca0 <__aeabi_ddiv>
 8001ee6:	e9cd 0104 	strd	r0, r1, [sp, #16]
 8001eea:	1124      	asrs	r4, r4, #4
 8001eec:	f43f ace3 	beq.w	80018b6 <_strtod_l+0x3d6>
 8001ef0:	2c1f      	cmp	r4, #31
 8001ef2:	dc3e      	bgt.n	8001f72 <_strtod_l+0xa92>
 8001ef4:	f014 0310 	ands.w	r3, r4, #16
 8001ef8:	bf18      	it	ne
 8001efa:	236a      	movne	r3, #106	; 0x6a
 8001efc:	9308      	str	r3, [sp, #32]
 8001efe:	e9dd 2304 	ldrd	r2, r3, [sp, #16]
 8001f02:	f8df 82b4 	ldr.w	r8, [pc, #692]	; 80021b8 <_strtod_l+0xcd8>
 8001f06:	f04f 0c00 	mov.w	ip, #0
 8001f0a:	f014 0f01 	tst.w	r4, #1
 8001f0e:	4610      	mov	r0, r2
 8001f10:	4619      	mov	r1, r3
 8001f12:	d007      	beq.n	8001f24 <_strtod_l+0xa44>
 8001f14:	e9d8 2300 	ldrd	r2, r3, [r8]
 8001f18:	f004 fd98 	bl	8006a4c <__aeabi_dmul>
 8001f1c:	f04f 0c01 	mov.w	ip, #1
 8001f20:	4602      	mov	r2, r0
 8001f22:	460b      	mov	r3, r1
 8001f24:	1064      	asrs	r4, r4, #1
 8001f26:	f108 0808 	add.w	r8, r8, #8
 8001f2a:	d1ee      	bne.n	8001f0a <_strtod_l+0xa2a>
 8001f2c:	f1bc 0f00 	cmp.w	ip, #0
 8001f30:	d001      	beq.n	8001f36 <_strtod_l+0xa56>
 8001f32:	e9cd 2304 	strd	r2, r3, [sp, #16]
 8001f36:	9b08      	ldr	r3, [sp, #32]
 8001f38:	b193      	cbz	r3, 8001f60 <_strtod_l+0xa80>
 8001f3a:	e9dd 0104 	ldrd	r0, r1, [sp, #16]
 8001f3e:	f3c1 520a 	ubfx	r2, r1, #20, #11
 8001f42:	f1c2 036b 	rsb	r3, r2, #107	; 0x6b
 8001f46:	2b00      	cmp	r3, #0
 8001f48:	dd0a      	ble.n	8001f60 <_strtod_l+0xa80>
 8001f4a:	2b1f      	cmp	r3, #31
 8001f4c:	f340 8230 	ble.w	80023b0 <_strtod_l+0xed0>
 8001f50:	2000      	movs	r0, #0
 8001f52:	2b34      	cmp	r3, #52	; 0x34
 8001f54:	9004      	str	r0, [sp, #16]
 8001f56:	f340 8236 	ble.w	80023c6 <_strtod_l+0xee6>
 8001f5a:	f04f 735c 	mov.w	r3, #57671680	; 0x3700000
 8001f5e:	9305      	str	r3, [sp, #20]
 8001f60:	e9dd 0104 	ldrd	r0, r1, [sp, #16]
 8001f64:	2200      	movs	r2, #0
 8001f66:	2300      	movs	r3, #0
 8001f68:	f004 ffd8 	bl	8006f1c <__aeabi_dcmpeq>
 8001f6c:	2800      	cmp	r0, #0
 8001f6e:	f43f aca4 	beq.w	80018ba <_strtod_l+0x3da>
 8001f72:	2322      	movs	r3, #34	; 0x22
 8001f74:	ed9f 8b84 	vldr	d8, [pc, #528]	; 8002188 <_strtod_l+0xca8>
 8001f78:	f8ca 3000 	str.w	r3, [sl]
 8001f7c:	e469      	b.n	8001852 <_strtod_l+0x372>
 8001f7e:	9b1c      	ldr	r3, [sp, #112]	; 0x70
 8001f80:	9304      	str	r3, [sp, #16]
 8001f82:	9b1b      	ldr	r3, [sp, #108]	; 0x6c
 8001f84:	f203 4233 	addw	r2, r3, #1075	; 0x433
 8001f88:	9b1d      	ldr	r3, [sp, #116]	; 0x74
 8001f8a:	f423 1380 	bic.w	r3, r3, #1048576	; 0x100000
 8001f8e:	ea43 5302 	orr.w	r3, r3, r2, lsl #20
 8001f92:	9305      	str	r3, [sp, #20]
 8001f94:	0729      	lsls	r1, r5, #28
 8001f96:	bf42      	ittt	mi
 8001f98:	9b05      	ldrmi	r3, [sp, #20]
 8001f9a:	f043 4300 	orrmi.w	r3, r3, #2147483648	; 0x80000000
 8001f9e:	9305      	strmi	r3, [sp, #20]
 8001fa0:	ed9d 8b04 	vldr	d8, [sp, #16]
 8001fa4:	e455      	b.n	8001852 <_strtod_l+0x372>
 8001fa6:	2322      	movs	r3, #34	; 0x22
 8001fa8:	ed9f 8b79 	vldr	d8, [pc, #484]	; 8002190 <_strtod_l+0xcb0>
 8001fac:	f8ca 3000 	str.w	r3, [sl]
 8001fb0:	e44f      	b.n	8001852 <_strtod_l+0x372>
 8001fb2:	9b09      	ldr	r3, [sp, #36]	; 0x24
 8001fb4:	9301      	str	r3, [sp, #4]
 8001fb6:	ab1a      	add	r3, sp, #104	; 0x68
 8001fb8:	9402      	str	r4, [sp, #8]
 8001fba:	9300      	str	r3, [sp, #0]
 8001fbc:	4a79      	ldr	r2, [pc, #484]	; (80021a4 <_strtod_l+0xcc4>)
 8001fbe:	ab1b      	add	r3, sp, #108	; 0x6c
 8001fc0:	a919      	add	r1, sp, #100	; 0x64
 8001fc2:	4650      	mov	r0, sl
 8001fc4:	f001 fdf2 	bl	8003bac <__gethex>
 8001fc8:	f010 0407 	ands.w	r4, r0, #7
 8001fcc:	4605      	mov	r5, r0
 8001fce:	f43f ac3e 	beq.w	800184e <_strtod_l+0x36e>
 8001fd2:	2c06      	cmp	r4, #6
 8001fd4:	d173      	bne.n	80020be <_strtod_l+0xbde>
 8001fd6:	9b07      	ldr	r3, [sp, #28]
 8001fd8:	ed9f 8b6b 	vldr	d8, [pc, #428]	; 8002188 <_strtod_l+0xca8>
 8001fdc:	3701      	adds	r7, #1
 8001fde:	2b00      	cmp	r3, #0
 8001fe0:	f43f ab49 	beq.w	8001676 <_strtod_l+0x196>
 8001fe4:	601f      	str	r7, [r3, #0]
 8001fe6:	f7ff bb46 	b.w	8001676 <_strtod_l+0x196>
 8001fea:	1c6a      	adds	r2, r5, #1
 8001fec:	2b01      	cmp	r3, #1
 8001fee:	9c19      	ldr	r4, [sp, #100]	; 0x64
 8001ff0:	449b      	add	fp, r3
 8001ff2:	4610      	mov	r0, r2
 8001ff4:	d015      	beq.n	8002022 <_strtod_l+0xb42>
 8001ff6:	442b      	add	r3, r5
 8001ff8:	f103 3cff 	add.w	ip, r3, #4294967295	; 0xffffffff
 8001ffc:	e003      	b.n	8002006 <_strtod_l+0xb26>
 8001ffe:	0046      	lsls	r6, r0, #1
 8002000:	4594      	cmp	ip, r2
 8002002:	d00d      	beq.n	8002020 <_strtod_l+0xb40>
 8002004:	3201      	adds	r2, #1
 8002006:	462b      	mov	r3, r5
 8002008:	2b08      	cmp	r3, #8
 800200a:	4615      	mov	r5, r2
 800200c:	eb06 0086 	add.w	r0, r6, r6, lsl #2
 8002010:	d9f5      	bls.n	8001ffe <_strtod_l+0xb1e>
 8002012:	2a10      	cmp	r2, #16
 8002014:	bfdc      	itt	le
 8002016:	eb09 0989 	addle.w	r9, r9, r9, lsl #2
 800201a:	ea4f 0949 	movle.w	r9, r9, lsl #1
 800201e:	e7ef      	b.n	8002000 <_strtod_l+0xb20>
 8002020:	1c98      	adds	r0, r3, #2
 8002022:	2d08      	cmp	r5, #8
 8002024:	dc3e      	bgt.n	80020a4 <_strtod_l+0xbc4>
 8002026:	4605      	mov	r5, r0
 8002028:	f7ff bafb 	b.w	8001622 <_strtod_l+0x142>
 800202c:	9908      	ldr	r1, [sp, #32]
 800202e:	465a      	mov	r2, fp
 8002030:	4638      	mov	r0, r7
 8002032:	f7ff fa13 	bl	800145c <strncmp>
 8002036:	2800      	cmp	r0, #0
 8002038:	d06b      	beq.n	8002112 <_strtod_l+0xc32>
 800203a:	2300      	movs	r3, #0
 800203c:	461d      	mov	r5, r3
 800203e:	930a      	str	r3, [sp, #40]	; 0x28
 8002040:	4699      	mov	r9, r3
 8002042:	461e      	mov	r6, r3
 8002044:	f7ff bb3c 	b.w	80016c0 <_strtod_l+0x1e0>
 8002048:	f644 621f 	movw	r2, #19999	; 0x4e1f
 800204c:	4290      	cmp	r0, r2
 800204e:	bfa8      	it	ge
 8002050:	4610      	movge	r0, r2
 8002052:	900d      	str	r0, [sp, #52]	; 0x34
 8002054:	f7ff bbcb 	b.w	80017ee <_strtod_l+0x30e>
 8002058:	e9dd 1204 	ldrd	r1, r2, [sp, #16]
 800205c:	920f      	str	r2, [sp, #60]	; 0x3c
 800205e:	2a00      	cmp	r2, #0
 8002060:	f47f ae75 	bne.w	8001d4e <_strtod_l+0x86e>
 8002064:	2322      	movs	r3, #34	; 0x22
 8002066:	ed9f 8b48 	vldr	d8, [pc, #288]	; 8002188 <_strtod_l+0xca8>
 800206a:	981a      	ldr	r0, [sp, #104]	; 0x68
 800206c:	f8ca 3000 	str.w	r3, [sl]
 8002070:	e645      	b.n	8001cfe <_strtod_l+0x81e>
 8002072:	e9cd 4514 	strd	r4, r5, [sp, #80]	; 0x50
 8002076:	e689      	b.n	8001d8c <_strtod_l+0x8ac>
 8002078:	494b      	ldr	r1, [pc, #300]	; (80021a8 <_strtod_l+0xcc8>)
 800207a:	a819      	add	r0, sp, #100	; 0x64
 800207c:	f002 f882 	bl	8004184 <__match>
 8002080:	2800      	cmp	r0, #0
 8002082:	f43f aaf1 	beq.w	8001668 <_strtod_l+0x188>
 8002086:	9b19      	ldr	r3, [sp, #100]	; 0x64
 8002088:	4948      	ldr	r1, [pc, #288]	; (80021ac <_strtod_l+0xccc>)
 800208a:	3b01      	subs	r3, #1
 800208c:	a819      	add	r0, sp, #100	; 0x64
 800208e:	9319      	str	r3, [sp, #100]	; 0x64
 8002090:	f002 f878 	bl	8004184 <__match>
 8002094:	b910      	cbnz	r0, 800209c <_strtod_l+0xbbc>
 8002096:	9b19      	ldr	r3, [sp, #100]	; 0x64
 8002098:	3301      	adds	r3, #1
 800209a:	9319      	str	r3, [sp, #100]	; 0x64
 800209c:	ed9f 8b3c 	vldr	d8, [pc, #240]	; 8002190 <_strtod_l+0xcb0>
 80020a0:	f7ff bbd7 	b.w	8001852 <_strtod_l+0x372>
 80020a4:	2810      	cmp	r0, #16
 80020a6:	bfdc      	itt	le
 80020a8:	eb09 0989 	addle.w	r9, r9, r9, lsl #2
 80020ac:	eb01 0949 	addle.w	r9, r1, r9, lsl #1
 80020b0:	4605      	mov	r5, r0
 80020b2:	2300      	movs	r3, #0
 80020b4:	f7ff baba 	b.w	800162c <_strtod_l+0x14c>
 80020b8:	2300      	movs	r3, #0
 80020ba:	f7ff baa4 	b.w	8001606 <_strtod_l+0x126>
 80020be:	9a1a      	ldr	r2, [sp, #104]	; 0x68
 80020c0:	b13a      	cbz	r2, 80020d2 <_strtod_l+0xbf2>
 80020c2:	2135      	movs	r1, #53	; 0x35
 80020c4:	a81c      	add	r0, sp, #112	; 0x70
 80020c6:	f002 fef1 	bl	8004eac <__copybits>
 80020ca:	991a      	ldr	r1, [sp, #104]	; 0x68
 80020cc:	4650      	mov	r0, sl
 80020ce:	f002 fa17 	bl	8004500 <_Bfree>
 80020d2:	3c01      	subs	r4, #1
 80020d4:	2c04      	cmp	r4, #4
 80020d6:	f63f af5d 	bhi.w	8001f94 <_strtod_l+0xab4>
 80020da:	a301      	add	r3, pc, #4	; (adr r3, 80020e0 <_strtod_l+0xc00>)
 80020dc:	f853 f024 	ldr.w	pc, [r3, r4, lsl #2]
 80020e0:	08001f7f 	.word	0x08001f7f
 80020e4:	08002109 	.word	0x08002109
 80020e8:	08002103 	.word	0x08002103
 80020ec:	080020f5 	.word	0x080020f5
 80020f0:	08001f7f 	.word	0x08001f7f
 80020f4:	f04f 33ff 	mov.w	r3, #4294967295	; 0xffffffff
 80020f8:	f06f 4000 	mvn.w	r0, #2147483648	; 0x80000000
 80020fc:	e9cd 3004 	strd	r3, r0, [sp, #16]
 8002100:	e748      	b.n	8001f94 <_strtod_l+0xab4>
 8002102:	4b2b      	ldr	r3, [pc, #172]	; (80021b0 <_strtod_l+0xcd0>)
 8002104:	9305      	str	r3, [sp, #20]
 8002106:	e745      	b.n	8001f94 <_strtod_l+0xab4>
 8002108:	9b1c      	ldr	r3, [sp, #112]	; 0x70
 800210a:	9304      	str	r3, [sp, #16]
 800210c:	9b1d      	ldr	r3, [sp, #116]	; 0x74
 800210e:	9305      	str	r3, [sp, #20]
 8002110:	e740      	b.n	8001f94 <_strtod_l+0xab4>
 8002112:	9a19      	ldr	r2, [sp, #100]	; 0x64
 8002114:	4613      	mov	r3, r2
 8002116:	445a      	add	r2, fp
 8002118:	9219      	str	r2, [sp, #100]	; 0x64
 800211a:	f813 400b 	ldrb.w	r4, [r3, fp]
 800211e:	4606      	mov	r6, r0
 8002120:	4681      	mov	r9, r0
 8002122:	f7ff ba65 	b.w	80015f0 <_strtod_l+0x110>
 8002126:	980c      	ldr	r0, [sp, #48]	; 0x30
 8002128:	491d      	ldr	r1, [pc, #116]	; (80021a0 <_strtod_l+0xcc0>)
 800212a:	eb01 01c0 	add.w	r1, r1, r0, lsl #3
 800212e:	e9dd 2304 	ldrd	r2, r3, [sp, #16]
 8002132:	e9d1 0100 	ldrd	r0, r1, [r1]
 8002136:	f004 fc89 	bl	8006a4c <__aeabi_dmul>
 800213a:	ec41 0b18 	vmov	d8, r0, r1
 800213e:	f7ff bb88 	b.w	8001852 <_strtod_l+0x372>
 8002142:	950a      	str	r5, [sp, #40]	; 0x28
 8002144:	4683      	mov	fp, r0
 8002146:	f7ff ba74 	b.w	8001632 <_strtod_l+0x152>
 800214a:	ed9f 7b13 	vldr	d7, [pc, #76]	; 8002198 <_strtod_l+0xcb8>
 800214e:	4d19      	ldr	r5, [pc, #100]	; (80021b4 <_strtod_l+0xcd4>)
 8002150:	ed8d 7b16 	vstr	d7, [sp, #88]	; 0x58
 8002154:	2400      	movs	r4, #0
 8002156:	e55d      	b.n	8001c14 <_strtod_l+0x734>
 8002158:	4c11      	ldr	r4, [pc, #68]	; (80021a0 <_strtod_l+0xcc0>)
 800215a:	f1c5 050f 	rsb	r5, r5, #15
 800215e:	eb04 01c5 	add.w	r1, r4, r5, lsl #3
 8002162:	e9dd 2304 	ldrd	r2, r3, [sp, #16]
 8002166:	e9d1 0100 	ldrd	r0, r1, [r1]
 800216a:	f004 fc6f 	bl	8006a4c <__aeabi_dmul>
 800216e:	9b0c      	ldr	r3, [sp, #48]	; 0x30
 8002170:	1b5d      	subs	r5, r3, r5
 8002172:	eb04 04c5 	add.w	r4, r4, r5, lsl #3
 8002176:	e9d4 2300 	ldrd	r2, r3, [r4]
 800217a:	f004 fc67 	bl	8006a4c <__aeabi_dmul>
 800217e:	ec41 0b18 	vmov	d8, r0, r1
 8002182:	f7ff bb66 	b.w	8001852 <_strtod_l+0x372>
 8002186:	bf00      	nop
	...
 8002194:	7ff00000 	.word	0x7ff00000
 8002198:	00000000 	.word	0x00000000
 800219c:	bfe00000 	.word	0xbfe00000
 80021a0:	08008220 	.word	0x08008220
 80021a4:	08007f50 	.word	0x08007f50
 80021a8:	0800837c 	.word	0x0800837c
 80021ac:	08008380 	.word	0x08008380
 80021b0:	7ff00000 	.word	0x7ff00000
 80021b4:	3fe00000 	.word	0x3fe00000
 80021b8:	08007f78 	.word	0x08007f78
 80021bc:	9b0e      	ldr	r3, [sp, #56]	; 0x38
 80021be:	2b00      	cmp	r3, #0
 80021c0:	d070      	beq.n	80022a4 <_strtod_l+0xdc4>
 80021c2:	e9dd 4504 	ldrd	r4, r5, [sp, #16]
 80021c6:	4b95      	ldr	r3, [pc, #596]	; (800241c <_strtod_l+0xf3c>)
 80021c8:	f3c5 0113 	ubfx	r1, r5, #0, #20
 80021cc:	4299      	cmp	r1, r3
 80021ce:	462a      	mov	r2, r5
 80021d0:	d03f      	beq.n	8002252 <_strtod_l+0xd72>
 80021d2:	2f00      	cmp	r7, #0
 80021d4:	f000 80b8 	beq.w	8002348 <_strtod_l+0xe68>
 80021d8:	e9dd 2304 	ldrd	r2, r3, [sp, #16]
 80021dc:	421f      	tst	r7, r3
 80021de:	461c      	mov	r4, r3
 80021e0:	d023      	beq.n	800222a <_strtod_l+0xd4a>
 80021e2:	eeb0 0a48 	vmov.f32	s0, s16
 80021e6:	eef0 0a68 	vmov.f32	s1, s17
 80021ea:	9b0e      	ldr	r3, [sp, #56]	; 0x38
 80021ec:	2b00      	cmp	r3, #0
 80021ee:	f000 80b6 	beq.w	800235e <_strtod_l+0xe7e>
 80021f2:	f002 fd15 	bl	8004c20 <__ulp>
 80021f6:	9b08      	ldr	r3, [sp, #32]
 80021f8:	ec51 0b10 	vmov	r0, r1, d0
 80021fc:	b16b      	cbz	r3, 800221a <_strtod_l+0xd3a>
 80021fe:	f3c4 540a 	ubfx	r4, r4, #20, #11
 8002202:	f1c4 046b 	rsb	r4, r4, #107	; 0x6b
 8002206:	2c00      	cmp	r4, #0
 8002208:	dd07      	ble.n	800221a <_strtod_l+0xd3a>
 800220a:	0524      	lsls	r4, r4, #20
 800220c:	f104 537f 	add.w	r3, r4, #1069547520	; 0x3fc00000
 8002210:	2200      	movs	r2, #0
 8002212:	f503 1340 	add.w	r3, r3, #3145728	; 0x300000
 8002216:	f004 fc19 	bl	8006a4c <__aeabi_dmul>
 800221a:	4602      	mov	r2, r0
 800221c:	460b      	mov	r3, r1
 800221e:	ec51 0b18 	vmov	r0, r1, d8
 8002222:	f004 fa5d 	bl	80066e0 <__adddf3>
 8002226:	ec41 0b18 	vmov	d8, r0, r1
 800222a:	9b08      	ldr	r3, [sp, #32]
 800222c:	b17b      	cbz	r3, 800224e <_strtod_l+0xd6e>
 800222e:	ec51 0b18 	vmov	r0, r1, d8
 8002232:	4b7b      	ldr	r3, [pc, #492]	; (8002420 <_strtod_l+0xf40>)
 8002234:	2200      	movs	r2, #0
 8002236:	f004 fc09 	bl	8006a4c <__aeabi_dmul>
 800223a:	ec41 0b18 	vmov	d8, r0, r1
 800223e:	ee18 2a90 	vmov	r2, s17
 8002242:	4603      	mov	r3, r0
 8002244:	4313      	orrs	r3, r2
 8002246:	bf04      	itt	eq
 8002248:	2322      	moveq	r3, #34	; 0x22
 800224a:	f8ca 3000 	streq.w	r3, [sl]
 800224e:	981a      	ldr	r0, [sp, #104]	; 0x68
 8002250:	e555      	b.n	8001cfe <_strtod_l+0x81e>
 8002252:	9b08      	ldr	r3, [sp, #32]
 8002254:	9904      	ldr	r1, [sp, #16]
 8002256:	2b00      	cmp	r3, #0
 8002258:	f000 80b2 	beq.w	80023c0 <_strtod_l+0xee0>
 800225c:	4b71      	ldr	r3, [pc, #452]	; (8002424 <_strtod_l+0xf44>)
 800225e:	402b      	ands	r3, r5
 8002260:	f1b3 6fd4 	cmp.w	r3, #111149056	; 0x6a00000
 8002264:	f200 80ac 	bhi.w	80023c0 <_strtod_l+0xee0>
 8002268:	0d1b      	lsrs	r3, r3, #20
 800226a:	f1c3 036b 	rsb	r3, r3, #107	; 0x6b
 800226e:	f04f 30ff 	mov.w	r0, #4294967295	; 0xffffffff
 8002272:	fa00 f303 	lsl.w	r3, r0, r3
 8002276:	4299      	cmp	r1, r3
 8002278:	d1ab      	bne.n	80021d2 <_strtod_l+0xcf2>
 800227a:	4b6b      	ldr	r3, [pc, #428]	; (8002428 <_strtod_l+0xf48>)
 800227c:	429a      	cmp	r2, r3
 800227e:	f000 80c7 	beq.w	8002410 <_strtod_l+0xf30>
 8002282:	4b68      	ldr	r3, [pc, #416]	; (8002424 <_strtod_l+0xf44>)
 8002284:	4013      	ands	r3, r2
 8002286:	f503 1380 	add.w	r3, r3, #1048576	; 0x100000
 800228a:	9305      	str	r3, [sp, #20]
 800228c:	2300      	movs	r3, #0
 800228e:	9304      	str	r3, [sp, #16]
 8002290:	ed9d 8b04 	vldr	d8, [sp, #16]
 8002294:	e7c9      	b.n	800222a <_strtod_l+0xd4a>
 8002296:	f102 7354 	add.w	r3, r2, #55574528	; 0x3500000
 800229a:	9305      	str	r3, [sp, #20]
 800229c:	2300      	movs	r3, #0
 800229e:	9308      	str	r3, [sp, #32]
 80022a0:	f7ff bb0b 	b.w	80018ba <_strtod_l+0x3da>
 80022a4:	e9dd 1204 	ldrd	r1, r2, [sp, #16]
 80022a8:	f3c2 0313 	ubfx	r3, r2, #0, #20
 80022ac:	430b      	orrs	r3, r1
 80022ae:	4614      	mov	r4, r2
 80022b0:	d18f      	bne.n	80021d2 <_strtod_l+0xcf2>
 80022b2:	9b08      	ldr	r3, [sp, #32]
 80022b4:	2b00      	cmp	r3, #0
 80022b6:	f040 80a0 	bne.w	80023fa <_strtod_l+0xf1a>
 80022ba:	4b5a      	ldr	r3, [pc, #360]	; (8002424 <_strtod_l+0xf44>)
 80022bc:	4023      	ands	r3, r4
 80022be:	f5a3 1380 	sub.w	r3, r3, #1048576	; 0x100000
 80022c2:	ea6f 5313 	mvn.w	r3, r3, lsr #20
 80022c6:	ea6f 5303 	mvn.w	r3, r3, lsl #20
 80022ca:	9305      	str	r3, [sp, #20]
 80022cc:	f04f 33ff 	mov.w	r3, #4294967295	; 0xffffffff
 80022d0:	9304      	str	r3, [sp, #16]
 80022d2:	ed9d 8b04 	vldr	d8, [sp, #16]
 80022d6:	e7a8      	b.n	800222a <_strtod_l+0xd4a>
 80022d8:	e9dd 0104 	ldrd	r0, r1, [sp, #16]
 80022dc:	9b0e      	ldr	r3, [sp, #56]	; 0x38
 80022de:	4303      	orrs	r3, r0
 80022e0:	d1a3      	bne.n	800222a <_strtod_l+0xd4a>
 80022e2:	f3c1 0313 	ubfx	r3, r1, #0, #20
 80022e6:	460c      	mov	r4, r1
 80022e8:	2b00      	cmp	r3, #0
 80022ea:	d19e      	bne.n	800222a <_strtod_l+0xd4a>
 80022ec:	f021 4300 	bic.w	r3, r1, #2147483648	; 0x80000000
 80022f0:	0d1b      	lsrs	r3, r3, #20
 80022f2:	051b      	lsls	r3, r3, #20
 80022f4:	f1b3 6fd6 	cmp.w	r3, #112197632	; 0x6b00000
 80022f8:	d997      	bls.n	800222a <_strtod_l+0xd4a>
 80022fa:	f8d8 3014 	ldr.w	r3, [r8, #20]
 80022fe:	b91b      	cbnz	r3, 8002308 <_strtod_l+0xe28>
 8002300:	f8d8 3010 	ldr.w	r3, [r8, #16]
 8002304:	2b01      	cmp	r3, #1
 8002306:	dd90      	ble.n	800222a <_strtod_l+0xd4a>
 8002308:	4641      	mov	r1, r8
 800230a:	2201      	movs	r2, #1
 800230c:	4650      	mov	r0, sl
 800230e:	f002 fb4b 	bl	80049a8 <__lshift>
 8002312:	4659      	mov	r1, fp
 8002314:	4680      	mov	r8, r0
 8002316:	f002 fbbb 	bl	8004a90 <__mcmp>
 800231a:	2800      	cmp	r0, #0
 800231c:	dd85      	ble.n	800222a <_strtod_l+0xd4a>
 800231e:	e7c8      	b.n	80022b2 <_strtod_l+0xdd2>
 8002320:	4942      	ldr	r1, [pc, #264]	; (800242c <_strtod_l+0xf4c>)
 8002322:	a819      	add	r0, sp, #100	; 0x64
 8002324:	aa1c      	add	r2, sp, #112	; 0x70
 8002326:	f001 ff49 	bl	80041bc <__hexnan>
 800232a:	2805      	cmp	r0, #5
 800232c:	f47f aa87 	bne.w	800183e <_strtod_l+0x35e>
 8002330:	9b1d      	ldr	r3, [sp, #116]	; 0x74
 8002332:	f043 43ff 	orr.w	r3, r3, #2139095040	; 0x7f800000
 8002336:	f443 03e0 	orr.w	r3, r3, #7340032	; 0x700000
 800233a:	9305      	str	r3, [sp, #20]
 800233c:	9b1c      	ldr	r3, [sp, #112]	; 0x70
 800233e:	9304      	str	r3, [sp, #16]
 8002340:	ed9d 8b04 	vldr	d8, [sp, #16]
 8002344:	f7ff ba85 	b.w	8001852 <_strtod_l+0x372>
 8002348:	e9dd 0104 	ldrd	r0, r1, [sp, #16]
 800234c:	9b0a      	ldr	r3, [sp, #40]	; 0x28
 800234e:	4203      	tst	r3, r0
 8002350:	f43f af6b 	beq.w	800222a <_strtod_l+0xd4a>
 8002354:	460c      	mov	r4, r1
 8002356:	e744      	b.n	80021e2 <_strtod_l+0xd02>
 8002358:	f04f 0900 	mov.w	r9, #0
 800235c:	e545      	b.n	8001dea <_strtod_l+0x90a>
 800235e:	f002 fc5f 	bl	8004c20 <__ulp>
 8002362:	9908      	ldr	r1, [sp, #32]
 8002364:	ec53 2b10 	vmov	r2, r3, d0
 8002368:	b3b9      	cbz	r1, 80023da <_strtod_l+0xefa>
 800236a:	f3c4 540a 	ubfx	r4, r4, #20, #11
 800236e:	f1c4 046b 	rsb	r4, r4, #107	; 0x6b
 8002372:	2c00      	cmp	r4, #0
 8002374:	dd0c      	ble.n	8002390 <_strtod_l+0xeb0>
 8002376:	0524      	lsls	r4, r4, #20
 8002378:	4619      	mov	r1, r3
 800237a:	f104 537f 	add.w	r3, r4, #1069547520	; 0x3fc00000
 800237e:	9a0e      	ldr	r2, [sp, #56]	; 0x38
 8002380:	f503 1340 	add.w	r3, r3, #3145728	; 0x300000
 8002384:	ee10 0a10 	vmov	r0, s0
 8002388:	f004 fb60 	bl	8006a4c <__aeabi_dmul>
 800238c:	4602      	mov	r2, r0
 800238e:	460b      	mov	r3, r1
 8002390:	ec51 0b18 	vmov	r0, r1, d8
 8002394:	f004 f9a2 	bl	80066dc <__aeabi_dsub>
 8002398:	4602      	mov	r2, r0
 800239a:	460b      	mov	r3, r1
 800239c:	ec43 2b18 	vmov	d8, r2, r3
 80023a0:	2200      	movs	r2, #0
 80023a2:	2300      	movs	r3, #0
 80023a4:	f004 fdba 	bl	8006f1c <__aeabi_dcmpeq>
 80023a8:	2800      	cmp	r0, #0
 80023aa:	f43f af40 	beq.w	800222e <_strtod_l+0xd4e>
 80023ae:	e659      	b.n	8002064 <_strtod_l+0xb84>
 80023b0:	f04f 32ff 	mov.w	r2, #4294967295	; 0xffffffff
 80023b4:	fa02 f303 	lsl.w	r3, r2, r3
 80023b8:	9a04      	ldr	r2, [sp, #16]
 80023ba:	401a      	ands	r2, r3
 80023bc:	9204      	str	r2, [sp, #16]
 80023be:	e5cf      	b.n	8001f60 <_strtod_l+0xa80>
 80023c0:	f04f 33ff 	mov.w	r3, #4294967295	; 0xffffffff
 80023c4:	e757      	b.n	8002276 <_strtod_l+0xd96>
 80023c6:	f04f 33ff 	mov.w	r3, #4294967295	; 0xffffffff
 80023ca:	f1c2 024b 	rsb	r2, r2, #75	; 0x4b
 80023ce:	fa03 f202 	lsl.w	r2, r3, r2
 80023d2:	ea02 0301 	and.w	r3, r2, r1
 80023d6:	9305      	str	r3, [sp, #20]
 80023d8:	e5c2      	b.n	8001f60 <_strtod_l+0xa80>
 80023da:	ec51 0b18 	vmov	r0, r1, d8
 80023de:	f004 f97d 	bl	80066dc <__aeabi_dsub>
 80023e2:	4602      	mov	r2, r0
 80023e4:	460b      	mov	r3, r1
 80023e6:	ec43 2b18 	vmov	d8, r2, r3
 80023ea:	2200      	movs	r2, #0
 80023ec:	2300      	movs	r3, #0
 80023ee:	f004 fd95 	bl	8006f1c <__aeabi_dcmpeq>
 80023f2:	2800      	cmp	r0, #0
 80023f4:	f43f af2b 	beq.w	800224e <_strtod_l+0xd6e>
 80023f8:	e634      	b.n	8002064 <_strtod_l+0xb84>
 80023fa:	4b0a      	ldr	r3, [pc, #40]	; (8002424 <_strtod_l+0xf44>)
 80023fc:	4023      	ands	r3, r4
 80023fe:	f1b3 6fd6 	cmp.w	r3, #112197632	; 0x6b00000
 8002402:	f73f af5c 	bgt.w	80022be <_strtod_l+0xdde>
 8002406:	f1b3 7f5c 	cmp.w	r3, #57671680	; 0x3700000
 800240a:	f73f af10 	bgt.w	800222e <_strtod_l+0xd4e>
 800240e:	e629      	b.n	8002064 <_strtod_l+0xb84>
 8002410:	3101      	adds	r1, #1
 8002412:	f47f af36 	bne.w	8002282 <_strtod_l+0xda2>
 8002416:	f7ff bbba 	b.w	8001b8e <_strtod_l+0x6ae>
 800241a:	bf00      	nop
 800241c:	000fffff 	.word	0x000fffff
 8002420:	39500000 	.word	0x39500000
 8002424:	7ff00000 	.word	0x7ff00000
 8002428:	7fefffff 	.word	0x7fefffff
 800242c:	08007f64 	.word	0x08007f64

08002430 <_strtod_r>:
 8002430:	4b01      	ldr	r3, [pc, #4]	; (8002438 <_strtod_r+0x8>)
 8002432:	f7ff b855 	b.w	80014e0 <_strtod_l>
 8002436:	bf00      	nop
 8002438:	20000068 	.word	0x20000068

0800243c <strtod_l>:
 800243c:	b410      	push	{r4}
 800243e:	4c05      	ldr	r4, [pc, #20]	; (8002454 <strtod_l+0x18>)
 8002440:	4684      	mov	ip, r0
 8002442:	4613      	mov	r3, r2
 8002444:	6820      	ldr	r0, [r4, #0]
 8002446:	f85d 4b04 	ldr.w	r4, [sp], #4
 800244a:	460a      	mov	r2, r1
 800244c:	4661      	mov	r1, ip
 800244e:	f7ff b847 	b.w	80014e0 <_strtod_l>
 8002452:	bf00      	nop
 8002454:	20000000 	.word	0x20000000

08002458 <strtod>:
 8002458:	b410      	push	{r4}
 800245a:	4c05      	ldr	r4, [pc, #20]	; (8002470 <strtod+0x18>)
 800245c:	4b05      	ldr	r3, [pc, #20]	; (8002474 <strtod+0x1c>)
 800245e:	4684      	mov	ip, r0
 8002460:	460a      	mov	r2, r1
 8002462:	6820      	ldr	r0, [r4, #0]
 8002464:	f85d 4b04 	ldr.w	r4, [sp], #4
 8002468:	4661      	mov	r1, ip
 800246a:	f7ff b839 	b.w	80014e0 <_strtod_l>
 800246e:	bf00      	nop
 8002470:	20000000 	.word	0x20000000
 8002474:	20000068 	.word	0x20000068

08002478 <strtof_l>:
 8002478:	e92d 41f0 	stmdb	sp!, {r4, r5, r6, r7, r8, lr}
 800247c:	f8df 80a8 	ldr.w	r8, [pc, #168]	; 8002528 <strtof_l+0xb0>
 8002480:	4604      	mov	r4, r0
 8002482:	4613      	mov	r3, r2
 8002484:	ed2d 8b02 	vpush	{d8}
 8002488:	460a      	mov	r2, r1
 800248a:	f8d8 0000 	ldr.w	r0, [r8]
 800248e:	4621      	mov	r1, r4
 8002490:	f7ff f826 	bl	80014e0 <_strtod_l>
 8002494:	ec55 4b10 	vmov	r4, r5, d0
 8002498:	ee10 2a10 	vmov	r2, s0
 800249c:	ee10 0a10 	vmov	r0, s0
 80024a0:	462b      	mov	r3, r5
 80024a2:	4629      	mov	r1, r5
 80024a4:	f004 fd6c 	bl	8006f80 <__aeabi_dcmpun>
 80024a8:	bb50      	cbnz	r0, 8002500 <strtof_l+0x88>
 80024aa:	4620      	mov	r0, r4
 80024ac:	4629      	mov	r1, r5
 80024ae:	f004 fdc5 	bl	800703c <__aeabi_d2f>
 80024b2:	ee08 0a10 	vmov	s16, r0
 80024b6:	eddf 7a19 	vldr	s15, [pc, #100]	; 800251c <strtof_l+0xa4>
 80024ba:	eeb0 7ac8 	vabs.f32	s14, s16
 80024be:	eeb4 7a67 	vcmp.f32	s14, s15
 80024c2:	eef1 fa10 	vmrs	APSR_nzcv, fpscr
 80024c6:	dd15      	ble.n	80024f4 <strtof_l+0x7c>
 80024c8:	f025 4700 	bic.w	r7, r5, #2147483648	; 0x80000000
 80024cc:	4b14      	ldr	r3, [pc, #80]	; (8002520 <strtof_l+0xa8>)
 80024ce:	f04f 32ff 	mov.w	r2, #4294967295	; 0xffffffff
 80024d2:	4620      	mov	r0, r4
 80024d4:	4639      	mov	r1, r7
 80024d6:	f004 fd53 	bl	8006f80 <__aeabi_dcmpun>
 80024da:	b938      	cbnz	r0, 80024ec <strtof_l+0x74>
 80024dc:	4b10      	ldr	r3, [pc, #64]	; (8002520 <strtof_l+0xa8>)
 80024de:	f04f 32ff 	mov.w	r2, #4294967295	; 0xffffffff
 80024e2:	4620      	mov	r0, r4
 80024e4:	4639      	mov	r1, r7
 80024e6:	f004 fd2d 	bl	8006f44 <__aeabi_dcmple>
 80024ea:	b118      	cbz	r0, 80024f4 <strtof_l+0x7c>
 80024ec:	f8d8 3000 	ldr.w	r3, [r8]
 80024f0:	2222      	movs	r2, #34	; 0x22
 80024f2:	601a      	str	r2, [r3, #0]
 80024f4:	eeb0 0a48 	vmov.f32	s0, s16
 80024f8:	ecbd 8b02 	vpop	{d8}
 80024fc:	e8bd 81f0 	ldmia.w	sp!, {r4, r5, r6, r7, r8, pc}
 8002500:	2d00      	cmp	r5, #0
 8002502:	4808      	ldr	r0, [pc, #32]	; (8002524 <strtof_l+0xac>)
 8002504:	da04      	bge.n	8002510 <strtof_l+0x98>
 8002506:	f7fe fe73 	bl	80011f0 <nanf>
 800250a:	eeb1 8a40 	vneg.f32	s16, s0
 800250e:	e7f1      	b.n	80024f4 <strtof_l+0x7c>
 8002510:	ecbd 8b02 	vpop	{d8}
 8002514:	e8bd 41f0 	ldmia.w	sp!, {r4, r5, r6, r7, r8, lr}
 8002518:	f7fe be6a 	b.w	80011f0 <nanf>
 800251c:	7f7fffff 	.word	0x7f7fffff
 8002520:	7fefffff 	.word	0x7fefffff
 8002524:	0800849c 	.word	0x0800849c
 8002528:	20000000 	.word	0x20000000

0800252c <strtof>:
 800252c:	e92d 41f0 	stmdb	sp!, {r4, r5, r6, r7, r8, lr}
 8002530:	f8df 80ac 	ldr.w	r8, [pc, #172]	; 80025e0 <strtof+0xb4>
 8002534:	4b26      	ldr	r3, [pc, #152]	; (80025d0 <strtof+0xa4>)
 8002536:	4604      	mov	r4, r0
 8002538:	460a      	mov	r2, r1
 800253a:	ed2d 8b02 	vpush	{d8}
 800253e:	4621      	mov	r1, r4
 8002540:	f8d8 0000 	ldr.w	r0, [r8]
 8002544:	f7fe ffcc 	bl	80014e0 <_strtod_l>
 8002548:	ec55 4b10 	vmov	r4, r5, d0
 800254c:	ee10 2a10 	vmov	r2, s0
 8002550:	ee10 0a10 	vmov	r0, s0
 8002554:	462b      	mov	r3, r5
 8002556:	4629      	mov	r1, r5
 8002558:	f004 fd12 	bl	8006f80 <__aeabi_dcmpun>
 800255c:	bb50      	cbnz	r0, 80025b4 <strtof+0x88>
 800255e:	4620      	mov	r0, r4
 8002560:	4629      	mov	r1, r5
 8002562:	f004 fd6b 	bl	800703c <__aeabi_d2f>
 8002566:	ee08 0a10 	vmov	s16, r0
 800256a:	eddf 7a1a 	vldr	s15, [pc, #104]	; 80025d4 <strtof+0xa8>
 800256e:	eeb0 7ac8 	vabs.f32	s14, s16
 8002572:	eeb4 7a67 	vcmp.f32	s14, s15
 8002576:	eef1 fa10 	vmrs	APSR_nzcv, fpscr
 800257a:	dd15      	ble.n	80025a8 <strtof+0x7c>
 800257c:	f025 4700 	bic.w	r7, r5, #2147483648	; 0x80000000
 8002580:	4b15      	ldr	r3, [pc, #84]	; (80025d8 <strtof+0xac>)
 8002582:	f04f 32ff 	mov.w	r2, #4294967295	; 0xffffffff
 8002586:	4620      	mov	r0, r4
 8002588:	4639      	mov	r1, r7
 800258a:	f004 fcf9 	bl	8006f80 <__aeabi_dcmpun>
 800258e:	b938      	cbnz	r0, 80025a0 <strtof+0x74>
 8002590:	4b11      	ldr	r3, [pc, #68]	; (80025d8 <strtof+0xac>)
 8002592:	f04f 32ff 	mov.w	r2, #4294967295	; 0xffffffff
 8002596:	4620      	mov	r0, r4
 8002598:	4639      	mov	r1, r7
 800259a:	f004 fcd3 	bl	8006f44 <__aeabi_dcmple>
 800259e:	b118      	cbz	r0, 80025a8 <strtof+0x7c>
 80025a0:	f8d8 3000 	ldr.w	r3, [r8]
 80025a4:	2222      	movs	r2, #34	; 0x22
 80025a6:	601a      	str	r2, [r3, #0]
 80025a8:	eeb0 0a48 	vmov.f32	s0, s16
 80025ac:	ecbd 8b02 	vpop	{d8}
 80025b0:	e8bd 81f0 	ldmia.w	sp!, {r4, r5, r6, r7, r8, pc}
 80025b4:	2d00      	cmp	r5, #0
 80025b6:	4809      	ldr	r0, [pc, #36]	; (80025dc <strtof+0xb0>)
 80025b8:	da04      	bge.n	80025c4 <strtof+0x98>
 80025ba:	f7fe fe19 	bl	80011f0 <nanf>
 80025be:	eeb1 8a40 	vneg.f32	s16, s0
 80025c2:	e7f1      	b.n	80025a8 <strtof+0x7c>
 80025c4:	ecbd 8b02 	vpop	{d8}
 80025c8:	e8bd 41f0 	ldmia.w	sp!, {r4, r5, r6, r7, r8, lr}
 80025cc:	f7fe be10 	b.w	80011f0 <nanf>
 80025d0:	20000068 	.word	0x20000068
 80025d4:	7f7fffff 	.word	0x7f7fffff
 80025d8:	7fefffff 	.word	0x7fefffff
 80025dc:	0800849c 	.word	0x0800849c
 80025e0:	20000000 	.word	0x20000000

080025e4 <_strtol_l.part.0>:
 80025e4:	e92d 4ff0 	stmdb	sp!, {r4, r5, r6, r7, r8, r9, sl, fp, lr}
 80025e8:	4681      	mov	r9, r0
 80025ea:	4845      	ldr	r0, [pc, #276]	; (8002700 <_strtol_l.part.0+0x11c>)
 80025ec:	468e      	mov	lr, r1
 80025ee:	4675      	mov	r5, lr
 80025f0:	f81e cb01 	ldrb.w	ip, [lr], #1
 80025f4:	f810 400c 	ldrb.w	r4, [r0, ip]
 80025f8:	f014 0408 	ands.w	r4, r4, #8
 80025fc:	d1f7      	bne.n	80025ee <_strtol_l.part.0+0xa>
 80025fe:	f1bc 0f2d 	cmp.w	ip, #45	; 0x2d
 8002602:	46e3      	mov	fp, ip
 8002604:	d054      	beq.n	80026b0 <_strtol_l.part.0+0xcc>
 8002606:	f1bc 0f2b 	cmp.w	ip, #43	; 0x2b
 800260a:	bf08      	it	eq
 800260c:	f89e b000 	ldrbeq.w	fp, [lr]
 8002610:	f06f 4800 	mvn.w	r8, #2147483648	; 0x80000000
 8002614:	bf08      	it	eq
 8002616:	f105 0e02 	addeq.w	lr, r5, #2
 800261a:	b11b      	cbz	r3, 8002624 <_strtol_l.part.0+0x40>
 800261c:	2b10      	cmp	r3, #16
 800261e:	d04f      	beq.n	80026c0 <_strtol_l.part.0+0xdc>
 8002620:	461f      	mov	r7, r3
 8002622:	e004      	b.n	800262e <_strtol_l.part.0+0x4a>
 8002624:	f1bb 0f30 	cmp.w	fp, #48	; 0x30
 8002628:	d055      	beq.n	80026d6 <_strtol_l.part.0+0xf2>
 800262a:	230a      	movs	r3, #10
 800262c:	461f      	mov	r7, r3
 800262e:	2500      	movs	r5, #0
 8002630:	fbb8 f6f7 	udiv	r6, r8, r7
 8002634:	4628      	mov	r0, r5
 8002636:	fb07 8a16 	mls	sl, r7, r6, r8
 800263a:	e007      	b.n	800264c <_strtol_l.part.0+0x68>
 800263c:	4286      	cmp	r6, r0
 800263e:	d315      	bcc.n	800266c <_strtol_l.part.0+0x88>
 8002640:	d029      	beq.n	8002696 <_strtol_l.part.0+0xb2>
 8002642:	fb07 c000 	mla	r0, r7, r0, ip
 8002646:	2501      	movs	r5, #1
 8002648:	f81e bb01 	ldrb.w	fp, [lr], #1
 800264c:	f1ab 0c30 	sub.w	ip, fp, #48	; 0x30
 8002650:	f1bc 0f09 	cmp.w	ip, #9
 8002654:	d906      	bls.n	8002664 <_strtol_l.part.0+0x80>
 8002656:	f1ab 0c41 	sub.w	ip, fp, #65	; 0x41
 800265a:	f1bc 0f19 	cmp.w	ip, #25
 800265e:	d808      	bhi.n	8002672 <_strtol_l.part.0+0x8e>
 8002660:	f1ab 0c37 	sub.w	ip, fp, #55	; 0x37
 8002664:	4563      	cmp	r3, ip
 8002666:	dd0d      	ble.n	8002684 <_strtol_l.part.0+0xa0>
 8002668:	2d00      	cmp	r5, #0
 800266a:	dae7      	bge.n	800263c <_strtol_l.part.0+0x58>
 800266c:	f04f 35ff 	mov.w	r5, #4294967295	; 0xffffffff
 8002670:	e7ea      	b.n	8002648 <_strtol_l.part.0+0x64>
 8002672:	f1ab 0c61 	sub.w	ip, fp, #97	; 0x61
 8002676:	f1bc 0f19 	cmp.w	ip, #25
 800267a:	d803      	bhi.n	8002684 <_strtol_l.part.0+0xa0>
 800267c:	f1ab 0c57 	sub.w	ip, fp, #87	; 0x57
 8002680:	4563      	cmp	r3, ip
 8002682:	dcf1      	bgt.n	8002668 <_strtol_l.part.0+0x84>
 8002684:	2d00      	cmp	r5, #0
 8002686:	db0b      	blt.n	80026a0 <_strtol_l.part.0+0xbc>
 8002688:	b104      	cbz	r4, 800268c <_strtol_l.part.0+0xa8>
 800268a:	4240      	negs	r0, r0
 800268c:	b10a      	cbz	r2, 8002692 <_strtol_l.part.0+0xae>
 800268e:	bb95      	cbnz	r5, 80026f6 <_strtol_l.part.0+0x112>
 8002690:	6011      	str	r1, [r2, #0]
 8002692:	e8bd 8ff0 	ldmia.w	sp!, {r4, r5, r6, r7, r8, r9, sl, fp, pc}
 8002696:	45e2      	cmp	sl, ip
 8002698:	dad3      	bge.n	8002642 <_strtol_l.part.0+0x5e>
 800269a:	f04f 35ff 	mov.w	r5, #4294967295	; 0xffffffff
 800269e:	e7d3      	b.n	8002648 <_strtol_l.part.0+0x64>
 80026a0:	2322      	movs	r3, #34	; 0x22
 80026a2:	f8c9 3000 	str.w	r3, [r9]
 80026a6:	b31a      	cbz	r2, 80026f0 <_strtol_l.part.0+0x10c>
 80026a8:	f10e 31ff 	add.w	r1, lr, #4294967295	; 0xffffffff
 80026ac:	4640      	mov	r0, r8
 80026ae:	e7ef      	b.n	8002690 <_strtol_l.part.0+0xac>
 80026b0:	f89e b000 	ldrb.w	fp, [lr]
 80026b4:	f04f 4800 	mov.w	r8, #2147483648	; 0x80000000
 80026b8:	f105 0e02 	add.w	lr, r5, #2
 80026bc:	2401      	movs	r4, #1
 80026be:	e7ac      	b.n	800261a <_strtol_l.part.0+0x36>
 80026c0:	f1bb 0f30 	cmp.w	fp, #48	; 0x30
 80026c4:	d1ac      	bne.n	8002620 <_strtol_l.part.0+0x3c>
 80026c6:	f89e 0000 	ldrb.w	r0, [lr]
 80026ca:	f000 00df 	and.w	r0, r0, #223	; 0xdf
 80026ce:	2858      	cmp	r0, #88	; 0x58
 80026d0:	d007      	beq.n	80026e2 <_strtol_l.part.0+0xfe>
 80026d2:	461f      	mov	r7, r3
 80026d4:	e7ab      	b.n	800262e <_strtol_l.part.0+0x4a>
 80026d6:	f89e 3000 	ldrb.w	r3, [lr]
 80026da:	f003 03df 	and.w	r3, r3, #223	; 0xdf
 80026de:	2b58      	cmp	r3, #88	; 0x58
 80026e0:	d10b      	bne.n	80026fa <_strtol_l.part.0+0x116>
 80026e2:	2710      	movs	r7, #16
 80026e4:	f89e b001 	ldrb.w	fp, [lr, #1]
 80026e8:	463b      	mov	r3, r7
 80026ea:	f10e 0e02 	add.w	lr, lr, #2
 80026ee:	e79e      	b.n	800262e <_strtol_l.part.0+0x4a>
 80026f0:	4640      	mov	r0, r8
 80026f2:	e8bd 8ff0 	ldmia.w	sp!, {r4, r5, r6, r7, r8, r9, sl, fp, pc}
 80026f6:	4680      	mov	r8, r0
 80026f8:	e7d6      	b.n	80026a8 <_strtol_l.part.0+0xc4>
 80026fa:	2308      	movs	r3, #8
 80026fc:	461f      	mov	r7, r3
 80026fe:	e796      	b.n	800262e <_strtol_l.part.0+0x4a>
 8002700:	08007fa1 	.word	0x08007fa1

08002704 <_strtol_r>:
 8002704:	2b01      	cmp	r3, #1
 8002706:	d002      	beq.n	800270e <_strtol_r+0xa>
 8002708:	2b24      	cmp	r3, #36	; 0x24
 800270a:	d800      	bhi.n	800270e <_strtol_r+0xa>
 800270c:	e76a      	b.n	80025e4 <_strtol_l.part.0>
 800270e:	b510      	push	{r4, lr}
 8002710:	f001 f894 	bl	800383c <__errno>
 8002714:	2316      	movs	r3, #22
 8002716:	6003      	str	r3, [r0, #0]
 8002718:	2000      	movs	r0, #0
 800271a:	bd10      	pop	{r4, pc}

0800271c <strtol_l>:
 800271c:	2a01      	cmp	r2, #1
 800271e:	d008      	beq.n	8002732 <strtol_l+0x16>
 8002720:	2a24      	cmp	r2, #36	; 0x24
 8002722:	d806      	bhi.n	8002732 <strtol_l+0x16>
 8002724:	4684      	mov	ip, r0
 8002726:	4806      	ldr	r0, [pc, #24]	; (8002740 <strtol_l+0x24>)
 8002728:	4613      	mov	r3, r2
 800272a:	6800      	ldr	r0, [r0, #0]
 800272c:	460a      	mov	r2, r1
 800272e:	4661      	mov	r1, ip
 8002730:	e758      	b.n	80025e4 <_strtol_l.part.0>
 8002732:	b510      	push	{r4, lr}
 8002734:	f001 f882 	bl	800383c <__errno>
 8002738:	2316      	movs	r3, #22
 800273a:	6003      	str	r3, [r0, #0]
 800273c:	2000      	movs	r0, #0
 800273e:	bd10      	pop	{r4, pc}
 8002740:	20000000 	.word	0x20000000

08002744 <strtol>:
 8002744:	2a01      	cmp	r2, #1
 8002746:	d008      	beq.n	800275a <strtol+0x16>
 8002748:	2a24      	cmp	r2, #36	; 0x24
 800274a:	d806      	bhi.n	800275a <strtol+0x16>
 800274c:	4684      	mov	ip, r0
 800274e:	4806      	ldr	r0, [pc, #24]	; (8002768 <strtol+0x24>)
 8002750:	4613      	mov	r3, r2
 8002752:	6800      	ldr	r0, [r0, #0]
 8002754:	460a      	mov	r2, r1
 8002756:	4661      	mov	r1, ip
 8002758:	e744      	b.n	80025e4 <_strtol_l.part.0>
 800275a:	b510      	push	{r4, lr}
 800275c:	f001 f86e 	bl	800383c <__errno>
 8002760:	2316      	movs	r3, #22
 8002762:	6003      	str	r3, [r0, #0]
 8002764:	2000      	movs	r0, #0
 8002766:	bd10      	pop	{r4, pc}
 8002768:	20000000 	.word	0x20000000

0800276c <_write_r>:
 800276c:	b538      	push	{r3, r4, r5, lr}
 800276e:	460c      	mov	r4, r1
 8002770:	4d08      	ldr	r5, [pc, #32]	; (8002794 <_write_r+0x28>)
 8002772:	4684      	mov	ip, r0
 8002774:	4611      	mov	r1, r2
 8002776:	4620      	mov	r0, r4
 8002778:	461a      	mov	r2, r3
 800277a:	2300      	movs	r3, #0
 800277c:	602b      	str	r3, [r5, #0]
 800277e:	4664      	mov	r4, ip
 8002780:	f003 ff9e 	bl	80066c0 <_write>
 8002784:	1c43      	adds	r3, r0, #1
 8002786:	d000      	beq.n	800278a <_write_r+0x1e>
 8002788:	bd38      	pop	{r3, r4, r5, pc}
 800278a:	682b      	ldr	r3, [r5, #0]
 800278c:	2b00      	cmp	r3, #0
 800278e:	d0fb      	beq.n	8002788 <_write_r+0x1c>
 8002790:	6023      	str	r3, [r4, #0]
 8002792:	bd38      	pop	{r3, r4, r5, pc}
 8002794:	20000280 	.word	0x20000280

08002798 <quorem>:
 8002798:	e92d 4ff0 	stmdb	sp!, {r4, r5, r6, r7, r8, r9, sl, fp, lr}
 800279c:	6903      	ldr	r3, [r0, #16]
 800279e:	690c      	ldr	r4, [r1, #16]
 80027a0:	42a3      	cmp	r3, r4
 80027a2:	b083      	sub	sp, #12
 80027a4:	f2c0 8087 	blt.w	80028b6 <quorem+0x11e>
 80027a8:	3c01      	subs	r4, #1
 80027aa:	f101 0514 	add.w	r5, r1, #20
 80027ae:	00a3      	lsls	r3, r4, #2
 80027b0:	f100 0814 	add.w	r8, r0, #20
 80027b4:	9300      	str	r3, [sp, #0]
 80027b6:	f855 3024 	ldr.w	r3, [r5, r4, lsl #2]
 80027ba:	f858 2024 	ldr.w	r2, [r8, r4, lsl #2]
 80027be:	3301      	adds	r3, #1
 80027c0:	4681      	mov	r9, r0
 80027c2:	429a      	cmp	r2, r3
 80027c4:	eb08 0084 	add.w	r0, r8, r4, lsl #2
 80027c8:	eb05 0784 	add.w	r7, r5, r4, lsl #2
 80027cc:	9001      	str	r0, [sp, #4]
 80027ce:	fbb2 f6f3 	udiv	r6, r2, r3
 80027d2:	d33b      	bcc.n	800284c <quorem+0xb4>
 80027d4:	2300      	movs	r3, #0
 80027d6:	46ae      	mov	lr, r5
 80027d8:	4640      	mov	r0, r8
 80027da:	469b      	mov	fp, r3
 80027dc:	f85e ab04 	ldr.w	sl, [lr], #4
 80027e0:	6802      	ldr	r2, [r0, #0]
 80027e2:	fa1f fc8a 	uxth.w	ip, sl
 80027e6:	fb06 330c 	mla	r3, r6, ip, r3
 80027ea:	ea4f 4c13 	mov.w	ip, r3, lsr #16
 80027ee:	ea4f 4a1a 	mov.w	sl, sl, lsr #16
 80027f2:	fb06 ca0a 	mla	sl, r6, sl, ip
 80027f6:	fa1f fc83 	uxth.w	ip, r3
 80027fa:	ebab 0c0c 	sub.w	ip, fp, ip
 80027fe:	fa1f f38a 	uxth.w	r3, sl
 8002802:	fa1c fc82 	uxtah	ip, ip, r2
 8002806:	ebc3 4212 	rsb	r2, r3, r2, lsr #16
 800280a:	eb02 422c 	add.w	r2, r2, ip, asr #16
 800280e:	fa1f fc8c 	uxth.w	ip, ip
 8002812:	ea4c 4302 	orr.w	r3, ip, r2, lsl #16
 8002816:	4577      	cmp	r7, lr
 8002818:	f840 3b04 	str.w	r3, [r0], #4
 800281c:	ea4f 4b22 	mov.w	fp, r2, asr #16
 8002820:	ea4f 431a 	mov.w	r3, sl, lsr #16
 8002824:	d2da      	bcs.n	80027dc <quorem+0x44>
 8002826:	9b00      	ldr	r3, [sp, #0]
 8002828:	f858 3003 	ldr.w	r3, [r8, r3]
 800282c:	b973      	cbnz	r3, 800284c <quorem+0xb4>
 800282e:	9b01      	ldr	r3, [sp, #4]
 8002830:	3b04      	subs	r3, #4
 8002832:	4598      	cmp	r8, r3
 8002834:	d304      	bcc.n	8002840 <quorem+0xa8>
 8002836:	e007      	b.n	8002848 <quorem+0xb0>
 8002838:	4598      	cmp	r8, r3
 800283a:	f104 34ff 	add.w	r4, r4, #4294967295	; 0xffffffff
 800283e:	d203      	bcs.n	8002848 <quorem+0xb0>
 8002840:	f853 2904 	ldr.w	r2, [r3], #-4
 8002844:	2a00      	cmp	r2, #0
 8002846:	d0f7      	beq.n	8002838 <quorem+0xa0>
 8002848:	f8c9 4010 	str.w	r4, [r9, #16]
 800284c:	4648      	mov	r0, r9
 800284e:	f002 f91f 	bl	8004a90 <__mcmp>
 8002852:	2800      	cmp	r0, #0
 8002854:	db2b      	blt.n	80028ae <quorem+0x116>
 8002856:	3601      	adds	r6, #1
 8002858:	4640      	mov	r0, r8
 800285a:	2300      	movs	r3, #0
 800285c:	f855 1b04 	ldr.w	r1, [r5], #4
 8002860:	f8d0 c000 	ldr.w	ip, [r0]
 8002864:	b28a      	uxth	r2, r1
 8002866:	1a9a      	subs	r2, r3, r2
 8002868:	0c0b      	lsrs	r3, r1, #16
 800286a:	fa12 f28c 	uxtah	r2, r2, ip
 800286e:	ebc3 431c 	rsb	r3, r3, ip, lsr #16
 8002872:	eb03 4322 	add.w	r3, r3, r2, asr #16
 8002876:	b292      	uxth	r2, r2
 8002878:	ea42 4203 	orr.w	r2, r2, r3, lsl #16
 800287c:	42af      	cmp	r7, r5
 800287e:	f840 2b04 	str.w	r2, [r0], #4
 8002882:	ea4f 4323 	mov.w	r3, r3, asr #16
 8002886:	d2e9      	bcs.n	800285c <quorem+0xc4>
 8002888:	f858 2024 	ldr.w	r2, [r8, r4, lsl #2]
 800288c:	eb08 0384 	add.w	r3, r8, r4, lsl #2
 8002890:	b96a      	cbnz	r2, 80028ae <quorem+0x116>
 8002892:	3b04      	subs	r3, #4
 8002894:	4598      	cmp	r8, r3
 8002896:	d304      	bcc.n	80028a2 <quorem+0x10a>
 8002898:	e007      	b.n	80028aa <quorem+0x112>
 800289a:	4598      	cmp	r8, r3
 800289c:	f104 34ff 	add.w	r4, r4, #4294967295	; 0xffffffff
 80028a0:	d203      	bcs.n	80028aa <quorem+0x112>
 80028a2:	f853 2904 	ldr.w	r2, [r3], #-4
 80028a6:	2a00      	cmp	r2, #0
 80028a8:	d0f7      	beq.n	800289a <quorem+0x102>
 80028aa:	f8c9 4010 	str.w	r4, [r9, #16]
 80028ae:	4630      	mov	r0, r6
 80028b0:	b003      	add	sp, #12
 80028b2:	e8bd 8ff0 	ldmia.w	sp!, {r4, r5, r6, r7, r8, r9, sl, fp, pc}
 80028b6:	2000      	movs	r0, #0
 80028b8:	b003      	add	sp, #12
 80028ba:	e8bd 8ff0 	ldmia.w	sp!, {r4, r5, r6, r7, r8, r9, sl, fp, pc}
 80028be:	bf00      	nop

080028c0 <_dtoa_r>:
 80028c0:	e92d 4ff0 	stmdb	sp!, {r4, r5, r6, r7, r8, r9, sl, fp, lr}
 80028c4:	ed2d 8b06 	vpush	{d8-d10}
 80028c8:	6a46      	ldr	r6, [r0, #36]	; 0x24
 80028ca:	b095      	sub	sp, #84	; 0x54
 80028cc:	ed8d 0b02 	vstr	d0, [sp, #8]
 80028d0:	9c24      	ldr	r4, [sp, #144]	; 0x90
 80028d2:	9101      	str	r1, [sp, #4]
 80028d4:	ec59 8b10 	vmov	r8, r9, d0
 80028d8:	4605      	mov	r5, r0
 80028da:	9209      	str	r2, [sp, #36]	; 0x24
 80028dc:	9306      	str	r3, [sp, #24]
 80028de:	2e00      	cmp	r6, #0
 80028e0:	f000 8306 	beq.w	8002ef0 <_dtoa_r+0x630>
 80028e4:	6831      	ldr	r1, [r6, #0]
 80028e6:	b149      	cbz	r1, 80028fc <_dtoa_r+0x3c>
 80028e8:	6872      	ldr	r2, [r6, #4]
 80028ea:	604a      	str	r2, [r1, #4]
 80028ec:	2301      	movs	r3, #1
 80028ee:	4093      	lsls	r3, r2
 80028f0:	608b      	str	r3, [r1, #8]
 80028f2:	f001 fe05 	bl	8004500 <_Bfree>
 80028f6:	6a6b      	ldr	r3, [r5, #36]	; 0x24
 80028f8:	2200      	movs	r2, #0
 80028fa:	601a      	str	r2, [r3, #0]
 80028fc:	f1b9 0a00 	subs.w	sl, r9, #0
 8002900:	bfb4      	ite	lt
 8002902:	2301      	movlt	r3, #1
 8002904:	2300      	movge	r3, #0
 8002906:	6023      	str	r3, [r4, #0]
 8002908:	4b7b      	ldr	r3, [pc, #492]	; (8002af8 <_dtoa_r+0x238>)
 800290a:	bfbc      	itt	lt
 800290c:	f02a 4a00 	biclt.w	sl, sl, #2147483648	; 0x80000000
 8002910:	f8cd a00c 	strlt.w	sl, [sp, #12]
 8002914:	ea33 030a 	bics.w	r3, r3, sl
 8002918:	f000 80b2 	beq.w	8002a80 <_dtoa_r+0x1c0>
 800291c:	ed9d 7b02 	vldr	d7, [sp, #8]
 8002920:	2200      	movs	r2, #0
 8002922:	ec51 0b17 	vmov	r0, r1, d7
 8002926:	eeb0 9a47 	vmov.f32	s18, s14
 800292a:	eef0 9a67 	vmov.f32	s19, s15
 800292e:	2300      	movs	r3, #0
 8002930:	f004 faf4 	bl	8006f1c <__aeabi_dcmpeq>
 8002934:	4607      	mov	r7, r0
 8002936:	b180      	cbz	r0, 800295a <_dtoa_r+0x9a>
 8002938:	9a06      	ldr	r2, [sp, #24]
 800293a:	2301      	movs	r3, #1
 800293c:	6013      	str	r3, [r2, #0]
 800293e:	9b25      	ldr	r3, [sp, #148]	; 0x94
 8002940:	2b00      	cmp	r3, #0
 8002942:	f000 82ef 	beq.w	8002f24 <_dtoa_r+0x664>
 8002946:	486d      	ldr	r0, [pc, #436]	; (8002afc <_dtoa_r+0x23c>)
 8002948:	6018      	str	r0, [r3, #0]
 800294a:	1e43      	subs	r3, r0, #1
 800294c:	9300      	str	r3, [sp, #0]
 800294e:	9800      	ldr	r0, [sp, #0]
 8002950:	b015      	add	sp, #84	; 0x54
 8002952:	ecbd 8b06 	vpop	{d8-d10}
 8002956:	e8bd 8ff0 	ldmia.w	sp!, {r4, r5, r6, r7, r8, r9, sl, fp, pc}
 800295a:	aa12      	add	r2, sp, #72	; 0x48
 800295c:	a913      	add	r1, sp, #76	; 0x4c
 800295e:	4628      	mov	r0, r5
 8002960:	eeb0 0a49 	vmov.f32	s0, s18
 8002964:	eef0 0a69 	vmov.f32	s1, s19
 8002968:	f002 f9ea 	bl	8004d40 <__d2b>
 800296c:	eeb0 8a49 	vmov.f32	s16, s18
 8002970:	eef0 8a69 	vmov.f32	s17, s19
 8002974:	ea5f 561a 	movs.w	r6, sl, lsr #20
 8002978:	4604      	mov	r4, r0
 800297a:	f040 8099 	bne.w	8002ab0 <_dtoa_r+0x1f0>
 800297e:	e9dd 7612 	ldrd	r7, r6, [sp, #72]	; 0x48
 8002982:	443e      	add	r6, r7
 8002984:	f206 4032 	addw	r0, r6, #1074	; 0x432
 8002988:	2820      	cmp	r0, #32
 800298a:	f340 83bf 	ble.w	800310c <_dtoa_r+0x84c>
 800298e:	f1c0 0040 	rsb	r0, r0, #64	; 0x40
 8002992:	fa0a fa00 	lsl.w	sl, sl, r0
 8002996:	f206 4012 	addw	r0, r6, #1042	; 0x412
 800299a:	fa28 f000 	lsr.w	r0, r8, r0
 800299e:	ea4a 0000 	orr.w	r0, sl, r0
 80029a2:	f003 ffd9 	bl	8006958 <__aeabi_ui2d>
 80029a6:	2301      	movs	r3, #1
 80029a8:	3e01      	subs	r6, #1
 80029aa:	930d      	str	r3, [sp, #52]	; 0x34
 80029ac:	f1a1 71f8 	sub.w	r1, r1, #32505856	; 0x1f00000
 80029b0:	4b53      	ldr	r3, [pc, #332]	; (8002b00 <_dtoa_r+0x240>)
 80029b2:	2200      	movs	r2, #0
 80029b4:	f003 fe92 	bl	80066dc <__aeabi_dsub>
 80029b8:	a349      	add	r3, pc, #292	; (adr r3, 8002ae0 <_dtoa_r+0x220>)
 80029ba:	e9d3 2300 	ldrd	r2, r3, [r3]
 80029be:	f004 f845 	bl	8006a4c <__aeabi_dmul>
 80029c2:	a349      	add	r3, pc, #292	; (adr r3, 8002ae8 <_dtoa_r+0x228>)
 80029c4:	e9d3 2300 	ldrd	r2, r3, [r3]
 80029c8:	f003 fe8a 	bl	80066e0 <__adddf3>
 80029cc:	4680      	mov	r8, r0
 80029ce:	4630      	mov	r0, r6
 80029d0:	4689      	mov	r9, r1
 80029d2:	f003 ffd1 	bl	8006978 <__aeabi_i2d>
 80029d6:	a346      	add	r3, pc, #280	; (adr r3, 8002af0 <_dtoa_r+0x230>)
 80029d8:	e9d3 2300 	ldrd	r2, r3, [r3]
 80029dc:	f004 f836 	bl	8006a4c <__aeabi_dmul>
 80029e0:	4602      	mov	r2, r0
 80029e2:	460b      	mov	r3, r1
 80029e4:	4640      	mov	r0, r8
 80029e6:	4649      	mov	r1, r9
 80029e8:	f003 fe7a 	bl	80066e0 <__adddf3>
 80029ec:	4680      	mov	r8, r0
 80029ee:	4689      	mov	r9, r1
 80029f0:	f004 fadc 	bl	8006fac <__aeabi_d2iz>
 80029f4:	2200      	movs	r2, #0
 80029f6:	4683      	mov	fp, r0
 80029f8:	2300      	movs	r3, #0
 80029fa:	4640      	mov	r0, r8
 80029fc:	4649      	mov	r1, r9
 80029fe:	f004 fa97 	bl	8006f30 <__aeabi_dcmplt>
 8002a02:	2800      	cmp	r0, #0
 8002a04:	f040 8281 	bne.w	8002f0a <_dtoa_r+0x64a>
 8002a08:	f1bb 0f16 	cmp.w	fp, #22
 8002a0c:	f200 8263 	bhi.w	8002ed6 <_dtoa_r+0x616>
 8002a10:	4b3c      	ldr	r3, [pc, #240]	; (8002b04 <_dtoa_r+0x244>)
 8002a12:	eb03 03cb 	add.w	r3, r3, fp, lsl #3
 8002a16:	e9d3 2300 	ldrd	r2, r3, [r3]
 8002a1a:	ec51 0b19 	vmov	r0, r1, d9
 8002a1e:	f004 fa87 	bl	8006f30 <__aeabi_dcmplt>
 8002a22:	2800      	cmp	r0, #0
 8002a24:	d074      	beq.n	8002b10 <_dtoa_r+0x250>
 8002a26:	2300      	movs	r3, #0
 8002a28:	1bbe      	subs	r6, r7, r6
 8002a2a:	930c      	str	r3, [sp, #48]	; 0x30
 8002a2c:	1e73      	subs	r3, r6, #1
 8002a2e:	f10b 3bff 	add.w	fp, fp, #4294967295	; 0xffffffff
 8002a32:	9304      	str	r3, [sp, #16]
 8002a34:	f100 8256 	bmi.w	8002ee4 <_dtoa_r+0x624>
 8002a38:	2300      	movs	r3, #0
 8002a3a:	9308      	str	r3, [sp, #32]
 8002a3c:	f1bb 0f00 	cmp.w	fp, #0
 8002a40:	da6d      	bge.n	8002b1e <_dtoa_r+0x25e>
 8002a42:	9b08      	ldr	r3, [sp, #32]
 8002a44:	f8cd b014 	str.w	fp, [sp, #20]
 8002a48:	eba3 030b 	sub.w	r3, r3, fp
 8002a4c:	9308      	str	r3, [sp, #32]
 8002a4e:	f1cb 0300 	rsb	r3, fp, #0
 8002a52:	930b      	str	r3, [sp, #44]	; 0x2c
 8002a54:	9b01      	ldr	r3, [sp, #4]
 8002a56:	2b09      	cmp	r3, #9
 8002a58:	f04f 0b00 	mov.w	fp, #0
 8002a5c:	d868      	bhi.n	8002b30 <_dtoa_r+0x270>
 8002a5e:	2b05      	cmp	r3, #5
 8002a60:	f340 8352 	ble.w	8003108 <_dtoa_r+0x848>
 8002a64:	3b04      	subs	r3, #4
 8002a66:	9301      	str	r3, [sp, #4]
 8002a68:	2600      	movs	r6, #0
 8002a6a:	9b01      	ldr	r3, [sp, #4]
 8002a6c:	3b02      	subs	r3, #2
 8002a6e:	2b03      	cmp	r3, #3
 8002a70:	f200 86ac 	bhi.w	80037cc <_dtoa_r+0xf0c>
 8002a74:	e8df f013 	tbh	[pc, r3, lsl #1]
 8002a78:	04620465 	.word	0x04620465
 8002a7c:	043c045a 	.word	0x043c045a
 8002a80:	9a06      	ldr	r2, [sp, #24]
 8002a82:	f242 730f 	movw	r3, #9999	; 0x270f
 8002a86:	f3ca 0a13 	ubfx	sl, sl, #0, #20
 8002a8a:	6013      	str	r3, [r2, #0]
 8002a8c:	ea5a 0308 	orrs.w	r3, sl, r8
 8002a90:	d11d      	bne.n	8002ace <_dtoa_r+0x20e>
 8002a92:	9b25      	ldr	r3, [sp, #148]	; 0x94
 8002a94:	2b00      	cmp	r3, #0
 8002a96:	f000 8695 	beq.w	80037c4 <_dtoa_r+0xf04>
 8002a9a:	4b1b      	ldr	r3, [pc, #108]	; (8002b08 <_dtoa_r+0x248>)
 8002a9c:	9300      	str	r3, [sp, #0]
 8002a9e:	3308      	adds	r3, #8
 8002aa0:	9a25      	ldr	r2, [sp, #148]	; 0x94
 8002aa2:	9800      	ldr	r0, [sp, #0]
 8002aa4:	6013      	str	r3, [r2, #0]
 8002aa6:	b015      	add	sp, #84	; 0x54
 8002aa8:	ecbd 8b06 	vpop	{d8-d10}
 8002aac:	e8bd 8ff0 	ldmia.w	sp!, {r4, r5, r6, r7, r8, r9, sl, fp, pc}
 8002ab0:	ee18 3a90 	vmov	r3, s17
 8002ab4:	f3c3 0313 	ubfx	r3, r3, #0, #20
 8002ab8:	ec51 0b19 	vmov	r0, r1, d9
 8002abc:	f043 517f 	orr.w	r1, r3, #1069547520	; 0x3fc00000
 8002ac0:	970d      	str	r7, [sp, #52]	; 0x34
 8002ac2:	f2a6 36ff 	subw	r6, r6, #1023	; 0x3ff
 8002ac6:	9f12      	ldr	r7, [sp, #72]	; 0x48
 8002ac8:	f441 1140 	orr.w	r1, r1, #3145728	; 0x300000
 8002acc:	e770      	b.n	80029b0 <_dtoa_r+0xf0>
 8002ace:	9b25      	ldr	r3, [sp, #148]	; 0x94
 8002ad0:	2b00      	cmp	r3, #0
 8002ad2:	f040 83f0 	bne.w	80032b6 <_dtoa_r+0x9f6>
 8002ad6:	4b0d      	ldr	r3, [pc, #52]	; (8002b0c <_dtoa_r+0x24c>)
 8002ad8:	9300      	str	r3, [sp, #0]
 8002ada:	e738      	b.n	800294e <_dtoa_r+0x8e>
 8002adc:	f3af 8000 	nop.w
 8002ae0:	636f4361 	.word	0x636f4361
 8002ae4:	3fd287a7 	.word	0x3fd287a7
 8002ae8:	8b60c8b3 	.word	0x8b60c8b3
 8002aec:	3fc68a28 	.word	0x3fc68a28
 8002af0:	509f79fb 	.word	0x509f79fb
 8002af4:	3fd34413 	.word	0x3fd34413
 8002af8:	7ff00000 	.word	0x7ff00000
 8002afc:	08008349 	.word	0x08008349
 8002b00:	3ff80000 	.word	0x3ff80000
 8002b04:	08008220 	.word	0x08008220
 8002b08:	0800838c 	.word	0x0800838c
 8002b0c:	08008398 	.word	0x08008398
 8002b10:	1bbe      	subs	r6, r7, r6
 8002b12:	1e73      	subs	r3, r6, #1
 8002b14:	9304      	str	r3, [sp, #16]
 8002b16:	f100 84d9 	bmi.w	80034cc <_dtoa_r+0xc0c>
 8002b1a:	900c      	str	r0, [sp, #48]	; 0x30
 8002b1c:	9008      	str	r0, [sp, #32]
 8002b1e:	9b04      	ldr	r3, [sp, #16]
 8002b20:	445b      	add	r3, fp
 8002b22:	e9cd 3b04 	strd	r3, fp, [sp, #16]
 8002b26:	2300      	movs	r3, #0
 8002b28:	930b      	str	r3, [sp, #44]	; 0x2c
 8002b2a:	9b01      	ldr	r3, [sp, #4]
 8002b2c:	2b09      	cmp	r3, #9
 8002b2e:	d996      	bls.n	8002a5e <_dtoa_r+0x19e>
 8002b30:	2300      	movs	r3, #0
 8002b32:	2601      	movs	r6, #1
 8002b34:	f04f 32ff 	mov.w	r2, #4294967295	; 0xffffffff
 8002b38:	9301      	str	r3, [sp, #4]
 8002b3a:	960a      	str	r6, [sp, #40]	; 0x28
 8002b3c:	9207      	str	r2, [sp, #28]
 8002b3e:	9309      	str	r3, [sp, #36]	; 0x24
 8002b40:	6a6b      	ldr	r3, [r5, #36]	; 0x24
 8002b42:	2100      	movs	r1, #0
 8002b44:	6059      	str	r1, [r3, #4]
 8002b46:	9b07      	ldr	r3, [sp, #28]
 8002b48:	930f      	str	r3, [sp, #60]	; 0x3c
 8002b4a:	4628      	mov	r0, r5
 8002b4c:	f001 fc98 	bl	8004480 <_Balloc>
 8002b50:	9000      	str	r0, [sp, #0]
 8002b52:	2800      	cmp	r0, #0
 8002b54:	f000 8643 	beq.w	80037de <_dtoa_r+0xf1e>
 8002b58:	6a6b      	ldr	r3, [r5, #36]	; 0x24
 8002b5a:	9a00      	ldr	r2, [sp, #0]
 8002b5c:	601a      	str	r2, [r3, #0]
 8002b5e:	9b07      	ldr	r3, [sp, #28]
 8002b60:	2b0e      	cmp	r3, #14
 8002b62:	f200 80f9 	bhi.w	8002d58 <_dtoa_r+0x498>
 8002b66:	2e00      	cmp	r6, #0
 8002b68:	f000 80f6 	beq.w	8002d58 <_dtoa_r+0x498>
 8002b6c:	9905      	ldr	r1, [sp, #20]
 8002b6e:	2900      	cmp	r1, #0
 8002b70:	f340 8480 	ble.w	8003474 <_dtoa_r+0xbb4>
 8002b74:	4bbd      	ldr	r3, [pc, #756]	; (8002e6c <_dtoa_r+0x5ac>)
 8002b76:	f001 020f 	and.w	r2, r1, #15
 8002b7a:	eb03 03c2 	add.w	r3, r3, r2, lsl #3
 8002b7e:	ea4f 1821 	mov.w	r8, r1, asr #4
 8002b82:	05c9      	lsls	r1, r1, #23
 8002b84:	e9d3 6700 	ldrd	r6, r7, [r3]
 8002b88:	f140 8413 	bpl.w	80033b2 <_dtoa_r+0xaf2>
 8002b8c:	4bb8      	ldr	r3, [pc, #736]	; (8002e70 <_dtoa_r+0x5b0>)
 8002b8e:	ec51 0b19 	vmov	r0, r1, d9
 8002b92:	e9d3 2308 	ldrd	r2, r3, [r3, #32]
 8002b96:	f004 f883 	bl	8006ca0 <__aeabi_ddiv>
 8002b9a:	ec41 0b18 	vmov	d8, r0, r1
 8002b9e:	f008 080f 	and.w	r8, r8, #15
 8002ba2:	f04f 0a03 	mov.w	sl, #3
 8002ba6:	f1b8 0f00 	cmp.w	r8, #0
 8002baa:	d013      	beq.n	8002bd4 <_dtoa_r+0x314>
 8002bac:	f8df 92c0 	ldr.w	r9, [pc, #704]	; 8002e70 <_dtoa_r+0x5b0>
 8002bb0:	f018 0f01 	tst.w	r8, #1
 8002bb4:	d009      	beq.n	8002bca <_dtoa_r+0x30a>
 8002bb6:	4630      	mov	r0, r6
 8002bb8:	4639      	mov	r1, r7
 8002bba:	e9d9 2300 	ldrd	r2, r3, [r9]
 8002bbe:	f003 ff45 	bl	8006a4c <__aeabi_dmul>
 8002bc2:	f10a 0a01 	add.w	sl, sl, #1
 8002bc6:	4606      	mov	r6, r0
 8002bc8:	460f      	mov	r7, r1
 8002bca:	ea5f 0868 	movs.w	r8, r8, asr #1
 8002bce:	f109 0908 	add.w	r9, r9, #8
 8002bd2:	d1ed      	bne.n	8002bb0 <_dtoa_r+0x2f0>
 8002bd4:	ec51 0b18 	vmov	r0, r1, d8
 8002bd8:	4632      	mov	r2, r6
 8002bda:	463b      	mov	r3, r7
 8002bdc:	f004 f860 	bl	8006ca0 <__aeabi_ddiv>
 8002be0:	ec41 0b1a 	vmov	d10, r0, r1
 8002be4:	9b0c      	ldr	r3, [sp, #48]	; 0x30
 8002be6:	b15b      	cbz	r3, 8002c00 <_dtoa_r+0x340>
 8002be8:	ec57 6b1a 	vmov	r6, r7, d10
 8002bec:	4ba1      	ldr	r3, [pc, #644]	; (8002e74 <_dtoa_r+0x5b4>)
 8002bee:	ee1a 0a10 	vmov	r0, s20
 8002bf2:	2200      	movs	r2, #0
 8002bf4:	4639      	mov	r1, r7
 8002bf6:	f004 f99b 	bl	8006f30 <__aeabi_dcmplt>
 8002bfa:	2800      	cmp	r0, #0
 8002bfc:	f040 856c 	bne.w	80036d8 <_dtoa_r+0xe18>
 8002c00:	4650      	mov	r0, sl
 8002c02:	f003 feb9 	bl	8006978 <__aeabi_i2d>
 8002c06:	ec53 2b1a 	vmov	r2, r3, d10
 8002c0a:	f003 ff1f 	bl	8006a4c <__aeabi_dmul>
 8002c0e:	4b9a      	ldr	r3, [pc, #616]	; (8002e78 <_dtoa_r+0x5b8>)
 8002c10:	2200      	movs	r2, #0
 8002c12:	f003 fd65 	bl	80066e0 <__adddf3>
 8002c16:	9b07      	ldr	r3, [sp, #28]
 8002c18:	4680      	mov	r8, r0
 8002c1a:	f1a1 7950 	sub.w	r9, r1, #54525952	; 0x3400000
 8002c1e:	2b00      	cmp	r3, #0
 8002c20:	f000 8404 	beq.w	800342c <_dtoa_r+0xb6c>
 8002c24:	9b05      	ldr	r3, [sp, #20]
 8002c26:	9310      	str	r3, [sp, #64]	; 0x40
 8002c28:	9b07      	ldr	r3, [sp, #28]
 8002c2a:	930e      	str	r3, [sp, #56]	; 0x38
 8002c2c:	9b0a      	ldr	r3, [sp, #40]	; 0x28
 8002c2e:	2b00      	cmp	r3, #0
 8002c30:	f000 84d6 	beq.w	80035e0 <_dtoa_r+0xd20>
 8002c34:	9a0e      	ldr	r2, [sp, #56]	; 0x38
 8002c36:	4b8d      	ldr	r3, [pc, #564]	; (8002e6c <_dtoa_r+0x5ac>)
 8002c38:	4990      	ldr	r1, [pc, #576]	; (8002e7c <_dtoa_r+0x5bc>)
 8002c3a:	f8dd a000 	ldr.w	sl, [sp]
 8002c3e:	eb03 03c2 	add.w	r3, r3, r2, lsl #3
 8002c42:	e953 2302 	ldrd	r2, r3, [r3, #-8]
 8002c46:	2000      	movs	r0, #0
 8002c48:	f004 f82a 	bl	8006ca0 <__aeabi_ddiv>
 8002c4c:	4642      	mov	r2, r8
 8002c4e:	464b      	mov	r3, r9
 8002c50:	f003 fd44 	bl	80066dc <__aeabi_dsub>
 8002c54:	ec59 8b1a 	vmov	r8, r9, d10
 8002c58:	ec41 0b18 	vmov	d8, r0, r1
 8002c5c:	4649      	mov	r1, r9
 8002c5e:	ee1a 0a10 	vmov	r0, s20
 8002c62:	f004 f9a3 	bl	8006fac <__aeabi_d2iz>
 8002c66:	4607      	mov	r7, r0
 8002c68:	f003 fe86 	bl	8006978 <__aeabi_i2d>
 8002c6c:	4602      	mov	r2, r0
 8002c6e:	460b      	mov	r3, r1
 8002c70:	ee1a 0a10 	vmov	r0, s20
 8002c74:	4649      	mov	r1, r9
 8002c76:	f003 fd31 	bl	80066dc <__aeabi_dsub>
 8002c7a:	3730      	adds	r7, #48	; 0x30
 8002c7c:	f80a 7b01 	strb.w	r7, [sl], #1
 8002c80:	ec53 2b18 	vmov	r2, r3, d8
 8002c84:	4606      	mov	r6, r0
 8002c86:	460f      	mov	r7, r1
 8002c88:	f004 f952 	bl	8006f30 <__aeabi_dcmplt>
 8002c8c:	2800      	cmp	r0, #0
 8002c8e:	f040 8567 	bne.w	8003760 <_dtoa_r+0xea0>
 8002c92:	f04f 0800 	mov.w	r8, #0
 8002c96:	ee0a 4a10 	vmov	s20, r4
 8002c9a:	ee0a 5a90 	vmov	s21, r5
 8002c9e:	f8cd b044 	str.w	fp, [sp, #68]	; 0x44
 8002ca2:	4655      	mov	r5, sl
 8002ca4:	4644      	mov	r4, r8
 8002ca6:	ec5b ab18 	vmov	sl, fp, d8
 8002caa:	e02a      	b.n	8002d02 <_dtoa_r+0x442>
 8002cac:	9b0e      	ldr	r3, [sp, #56]	; 0x38
 8002cae:	3401      	adds	r4, #1
 8002cb0:	429c      	cmp	r4, r3
 8002cb2:	da4b      	bge.n	8002d4c <_dtoa_r+0x48c>
 8002cb4:	4b72      	ldr	r3, [pc, #456]	; (8002e80 <_dtoa_r+0x5c0>)
 8002cb6:	4650      	mov	r0, sl
 8002cb8:	4659      	mov	r1, fp
 8002cba:	2200      	movs	r2, #0
 8002cbc:	f003 fec6 	bl	8006a4c <__aeabi_dmul>
 8002cc0:	4b6f      	ldr	r3, [pc, #444]	; (8002e80 <_dtoa_r+0x5c0>)
 8002cc2:	2200      	movs	r2, #0
 8002cc4:	4682      	mov	sl, r0
 8002cc6:	468b      	mov	fp, r1
 8002cc8:	4630      	mov	r0, r6
 8002cca:	4639      	mov	r1, r7
 8002ccc:	f003 febe 	bl	8006a4c <__aeabi_dmul>
 8002cd0:	4689      	mov	r9, r1
 8002cd2:	4680      	mov	r8, r0
 8002cd4:	f004 f96a 	bl	8006fac <__aeabi_d2iz>
 8002cd8:	4607      	mov	r7, r0
 8002cda:	f003 fe4d 	bl	8006978 <__aeabi_i2d>
 8002cde:	4602      	mov	r2, r0
 8002ce0:	460b      	mov	r3, r1
 8002ce2:	4640      	mov	r0, r8
 8002ce4:	4649      	mov	r1, r9
 8002ce6:	f003 fcf9 	bl	80066dc <__aeabi_dsub>
 8002cea:	3730      	adds	r7, #48	; 0x30
 8002cec:	f805 7b01 	strb.w	r7, [r5], #1
 8002cf0:	4652      	mov	r2, sl
 8002cf2:	465b      	mov	r3, fp
 8002cf4:	4606      	mov	r6, r0
 8002cf6:	460f      	mov	r7, r1
 8002cf8:	f004 f91a 	bl	8006f30 <__aeabi_dcmplt>
 8002cfc:	2800      	cmp	r0, #0
 8002cfe:	f040 852a 	bne.w	8003756 <_dtoa_r+0xe96>
 8002d02:	4632      	mov	r2, r6
 8002d04:	463b      	mov	r3, r7
 8002d06:	495b      	ldr	r1, [pc, #364]	; (8002e74 <_dtoa_r+0x5b4>)
 8002d08:	2000      	movs	r0, #0
 8002d0a:	f003 fce7 	bl	80066dc <__aeabi_dsub>
 8002d0e:	4652      	mov	r2, sl
 8002d10:	465b      	mov	r3, fp
 8002d12:	f004 f90d 	bl	8006f30 <__aeabi_dcmplt>
 8002d16:	2800      	cmp	r0, #0
 8002d18:	d0c8      	beq.n	8002cac <_dtoa_r+0x3ec>
 8002d1a:	9b10      	ldr	r3, [sp, #64]	; 0x40
 8002d1c:	9a00      	ldr	r2, [sp, #0]
 8002d1e:	9305      	str	r3, [sp, #20]
 8002d20:	46aa      	mov	sl, r5
 8002d22:	ee1a 4a10 	vmov	r4, s20
 8002d26:	ee1a 5a90 	vmov	r5, s21
 8002d2a:	e002      	b.n	8002d32 <_dtoa_r+0x472>
 8002d2c:	4552      	cmp	r2, sl
 8002d2e:	f000 84fc 	beq.w	800372a <_dtoa_r+0xe6a>
 8002d32:	46d1      	mov	r9, sl
 8002d34:	f81a 3d01 	ldrb.w	r3, [sl, #-1]!
 8002d38:	2b39      	cmp	r3, #57	; 0x39
 8002d3a:	d0f7      	beq.n	8002d2c <_dtoa_r+0x46c>
 8002d3c:	3301      	adds	r3, #1
 8002d3e:	b2db      	uxtb	r3, r3
 8002d40:	f88a 3000 	strb.w	r3, [sl]
 8002d44:	9b05      	ldr	r3, [sp, #20]
 8002d46:	3301      	adds	r3, #1
 8002d48:	9305      	str	r3, [sp, #20]
 8002d4a:	e1be      	b.n	80030ca <_dtoa_r+0x80a>
 8002d4c:	f8dd b044 	ldr.w	fp, [sp, #68]	; 0x44
 8002d50:	ee1a 4a10 	vmov	r4, s20
 8002d54:	ee1a 5a90 	vmov	r5, s21
 8002d58:	9b13      	ldr	r3, [sp, #76]	; 0x4c
 8002d5a:	2b00      	cmp	r3, #0
 8002d5c:	f2c0 8094 	blt.w	8002e88 <_dtoa_r+0x5c8>
 8002d60:	9a05      	ldr	r2, [sp, #20]
 8002d62:	2a0e      	cmp	r2, #14
 8002d64:	f300 8090 	bgt.w	8002e88 <_dtoa_r+0x5c8>
 8002d68:	4b40      	ldr	r3, [pc, #256]	; (8002e6c <_dtoa_r+0x5ac>)
 8002d6a:	eb03 03c2 	add.w	r3, r3, r2, lsl #3
 8002d6e:	e9d3 8900 	ldrd	r8, r9, [r3]
 8002d72:	9b09      	ldr	r3, [sp, #36]	; 0x24
 8002d74:	2b00      	cmp	r3, #0
 8002d76:	da1b      	bge.n	8002db0 <_dtoa_r+0x4f0>
 8002d78:	9b07      	ldr	r3, [sp, #28]
 8002d7a:	2b00      	cmp	r3, #0
 8002d7c:	dc18      	bgt.n	8002db0 <_dtoa_r+0x4f0>
 8002d7e:	f040 836e 	bne.w	800345e <_dtoa_r+0xb9e>
 8002d82:	4b40      	ldr	r3, [pc, #256]	; (8002e84 <_dtoa_r+0x5c4>)
 8002d84:	2200      	movs	r2, #0
 8002d86:	4640      	mov	r0, r8
 8002d88:	4649      	mov	r1, r9
 8002d8a:	f003 fe5f 	bl	8006a4c <__aeabi_dmul>
 8002d8e:	4602      	mov	r2, r0
 8002d90:	460b      	mov	r3, r1
 8002d92:	ec51 0b19 	vmov	r0, r1, d9
 8002d96:	f004 f8d5 	bl	8006f44 <__aeabi_dcmple>
 8002d9a:	f8dd a01c 	ldr.w	sl, [sp, #28]
 8002d9e:	4656      	mov	r6, sl
 8002da0:	2800      	cmp	r0, #0
 8002da2:	f000 82e6 	beq.w	8003372 <_dtoa_r+0xab2>
 8002da6:	9b09      	ldr	r3, [sp, #36]	; 0x24
 8002da8:	f8dd 8000 	ldr.w	r8, [sp]
 8002dac:	43df      	mvns	r7, r3
 8002dae:	e2e8      	b.n	8003382 <_dtoa_r+0xac2>
 8002db0:	4642      	mov	r2, r8
 8002db2:	464b      	mov	r3, r9
 8002db4:	ec51 0b19 	vmov	r0, r1, d9
 8002db8:	f003 ff72 	bl	8006ca0 <__aeabi_ddiv>
 8002dbc:	f004 f8f6 	bl	8006fac <__aeabi_d2iz>
 8002dc0:	4606      	mov	r6, r0
 8002dc2:	4683      	mov	fp, r0
 8002dc4:	f003 fdd8 	bl	8006978 <__aeabi_i2d>
 8002dc8:	4642      	mov	r2, r8
 8002dca:	464b      	mov	r3, r9
 8002dcc:	f003 fe3e 	bl	8006a4c <__aeabi_dmul>
 8002dd0:	460b      	mov	r3, r1
 8002dd2:	4602      	mov	r2, r0
 8002dd4:	ec51 0b19 	vmov	r0, r1, d9
 8002dd8:	f003 fc80 	bl	80066dc <__aeabi_dsub>
 8002ddc:	f8dd a000 	ldr.w	sl, [sp]
 8002de0:	4633      	mov	r3, r6
 8002de2:	3330      	adds	r3, #48	; 0x30
 8002de4:	f80a 3b01 	strb.w	r3, [sl], #1
 8002de8:	9b07      	ldr	r3, [sp, #28]
 8002dea:	2b01      	cmp	r3, #1
 8002dec:	f000 839f 	beq.w	800352e <_dtoa_r+0xc6e>
 8002df0:	f04f 0b01 	mov.w	fp, #1
 8002df4:	ee08 4a10 	vmov	s16, r4
 8002df8:	ee08 5a90 	vmov	s17, r5
 8002dfc:	4654      	mov	r4, sl
 8002dfe:	461d      	mov	r5, r3
 8002e00:	46da      	mov	sl, fp
 8002e02:	e01d      	b.n	8002e40 <_dtoa_r+0x580>
 8002e04:	4642      	mov	r2, r8
 8002e06:	464b      	mov	r3, r9
 8002e08:	4630      	mov	r0, r6
 8002e0a:	4639      	mov	r1, r7
 8002e0c:	f003 ff48 	bl	8006ca0 <__aeabi_ddiv>
 8002e10:	f004 f8cc 	bl	8006fac <__aeabi_d2iz>
 8002e14:	4683      	mov	fp, r0
 8002e16:	f003 fdaf 	bl	8006978 <__aeabi_i2d>
 8002e1a:	4642      	mov	r2, r8
 8002e1c:	464b      	mov	r3, r9
 8002e1e:	f003 fe15 	bl	8006a4c <__aeabi_dmul>
 8002e22:	f10a 0a01 	add.w	sl, sl, #1
 8002e26:	460b      	mov	r3, r1
 8002e28:	4602      	mov	r2, r0
 8002e2a:	4639      	mov	r1, r7
 8002e2c:	4630      	mov	r0, r6
 8002e2e:	f003 fc55 	bl	80066dc <__aeabi_dsub>
 8002e32:	f10b 0330 	add.w	r3, fp, #48	; 0x30
 8002e36:	45aa      	cmp	sl, r5
 8002e38:	f804 3b01 	strb.w	r3, [r4], #1
 8002e3c:	f000 8372 	beq.w	8003524 <_dtoa_r+0xc64>
 8002e40:	4b0f      	ldr	r3, [pc, #60]	; (8002e80 <_dtoa_r+0x5c0>)
 8002e42:	2200      	movs	r2, #0
 8002e44:	f003 fe02 	bl	8006a4c <__aeabi_dmul>
 8002e48:	2200      	movs	r2, #0
 8002e4a:	2300      	movs	r3, #0
 8002e4c:	4606      	mov	r6, r0
 8002e4e:	460f      	mov	r7, r1
 8002e50:	f004 f864 	bl	8006f1c <__aeabi_dcmpeq>
 8002e54:	2800      	cmp	r0, #0
 8002e56:	d0d5      	beq.n	8002e04 <_dtoa_r+0x544>
 8002e58:	46a2      	mov	sl, r4
 8002e5a:	ee18 5a90 	vmov	r5, s17
 8002e5e:	ee18 4a10 	vmov	r4, s16
 8002e62:	9b05      	ldr	r3, [sp, #20]
 8002e64:	3301      	adds	r3, #1
 8002e66:	9305      	str	r3, [sp, #20]
 8002e68:	46d1      	mov	r9, sl
 8002e6a:	e12e      	b.n	80030ca <_dtoa_r+0x80a>
 8002e6c:	08008220 	.word	0x08008220
 8002e70:	08008310 	.word	0x08008310
 8002e74:	3ff00000 	.word	0x3ff00000
 8002e78:	401c0000 	.word	0x401c0000
 8002e7c:	3fe00000 	.word	0x3fe00000
 8002e80:	40240000 	.word	0x40240000
 8002e84:	40140000 	.word	0x40140000
 8002e88:	9a0a      	ldr	r2, [sp, #40]	; 0x28
 8002e8a:	2a00      	cmp	r2, #0
 8002e8c:	d052      	beq.n	8002f34 <_dtoa_r+0x674>
 8002e8e:	9a01      	ldr	r2, [sp, #4]
 8002e90:	2a01      	cmp	r2, #1
 8002e92:	f340 82a6 	ble.w	80033e2 <_dtoa_r+0xb22>
 8002e96:	9b07      	ldr	r3, [sp, #28]
 8002e98:	f103 38ff 	add.w	r8, r3, #4294967295	; 0xffffffff
 8002e9c:	9b0b      	ldr	r3, [sp, #44]	; 0x2c
 8002e9e:	4543      	cmp	r3, r8
 8002ea0:	f280 8284 	bge.w	80033ac <_dtoa_r+0xaec>
 8002ea4:	9b0b      	ldr	r3, [sp, #44]	; 0x2c
 8002ea6:	f8cd 802c 	str.w	r8, [sp, #44]	; 0x2c
 8002eaa:	eba8 0303 	sub.w	r3, r8, r3
 8002eae:	449b      	add	fp, r3
 8002eb0:	f04f 0800 	mov.w	r8, #0
 8002eb4:	9b07      	ldr	r3, [sp, #28]
 8002eb6:	2b00      	cmp	r3, #0
 8002eb8:	f2c0 8371 	blt.w	800359e <_dtoa_r+0xcde>
 8002ebc:	9a04      	ldr	r2, [sp, #16]
 8002ebe:	441a      	add	r2, r3
 8002ec0:	9204      	str	r2, [sp, #16]
 8002ec2:	9a08      	ldr	r2, [sp, #32]
 8002ec4:	4617      	mov	r7, r2
 8002ec6:	441a      	add	r2, r3
 8002ec8:	9208      	str	r2, [sp, #32]
 8002eca:	2101      	movs	r1, #1
 8002ecc:	4628      	mov	r0, r5
 8002ece:	f001 fc37 	bl	8004740 <__i2b>
 8002ed2:	4606      	mov	r6, r0
 8002ed4:	e032      	b.n	8002f3c <_dtoa_r+0x67c>
 8002ed6:	2301      	movs	r3, #1
 8002ed8:	1bbe      	subs	r6, r7, r6
 8002eda:	930c      	str	r3, [sp, #48]	; 0x30
 8002edc:	1e73      	subs	r3, r6, #1
 8002ede:	9304      	str	r3, [sp, #16]
 8002ee0:	f57f adaa 	bpl.w	8002a38 <_dtoa_r+0x178>
 8002ee4:	f1c6 0301 	rsb	r3, r6, #1
 8002ee8:	9308      	str	r3, [sp, #32]
 8002eea:	2300      	movs	r3, #0
 8002eec:	9304      	str	r3, [sp, #16]
 8002eee:	e5a5      	b.n	8002a3c <_dtoa_r+0x17c>
 8002ef0:	2010      	movs	r0, #16
 8002ef2:	f001 fa43 	bl	800437c <malloc>
 8002ef6:	4602      	mov	r2, r0
 8002ef8:	6268      	str	r0, [r5, #36]	; 0x24
 8002efa:	2800      	cmp	r0, #0
 8002efc:	f000 845d 	beq.w	80037ba <_dtoa_r+0xefa>
 8002f00:	e9c0 6601 	strd	r6, r6, [r0, #4]
 8002f04:	6006      	str	r6, [r0, #0]
 8002f06:	60c6      	str	r6, [r0, #12]
 8002f08:	e4f8      	b.n	80028fc <_dtoa_r+0x3c>
 8002f0a:	4658      	mov	r0, fp
 8002f0c:	f003 fd34 	bl	8006978 <__aeabi_i2d>
 8002f10:	4642      	mov	r2, r8
 8002f12:	464b      	mov	r3, r9
 8002f14:	f004 f802 	bl	8006f1c <__aeabi_dcmpeq>
 8002f18:	2800      	cmp	r0, #0
 8002f1a:	f47f ad75 	bne.w	8002a08 <_dtoa_r+0x148>
 8002f1e:	f10b 3bff 	add.w	fp, fp, #4294967295	; 0xffffffff
 8002f22:	e571      	b.n	8002a08 <_dtoa_r+0x148>
 8002f24:	4b87      	ldr	r3, [pc, #540]	; (8003144 <_dtoa_r+0x884>)
 8002f26:	9300      	str	r3, [sp, #0]
 8002f28:	9800      	ldr	r0, [sp, #0]
 8002f2a:	b015      	add	sp, #84	; 0x54
 8002f2c:	ecbd 8b06 	vpop	{d8-d10}
 8002f30:	e8bd 8ff0 	ldmia.w	sp!, {r4, r5, r6, r7, r8, r9, sl, fp, pc}
 8002f34:	f8dd 802c 	ldr.w	r8, [sp, #44]	; 0x2c
 8002f38:	9f08      	ldr	r7, [sp, #32]
 8002f3a:	9e0a      	ldr	r6, [sp, #40]	; 0x28
 8002f3c:	2f00      	cmp	r7, #0
 8002f3e:	dd0c      	ble.n	8002f5a <_dtoa_r+0x69a>
 8002f40:	9a04      	ldr	r2, [sp, #16]
 8002f42:	2a00      	cmp	r2, #0
 8002f44:	dd09      	ble.n	8002f5a <_dtoa_r+0x69a>
 8002f46:	9908      	ldr	r1, [sp, #32]
 8002f48:	42ba      	cmp	r2, r7
 8002f4a:	4613      	mov	r3, r2
 8002f4c:	bfa8      	it	ge
 8002f4e:	463b      	movge	r3, r7
 8002f50:	1ac9      	subs	r1, r1, r3
 8002f52:	1aff      	subs	r7, r7, r3
 8002f54:	1ad3      	subs	r3, r2, r3
 8002f56:	9108      	str	r1, [sp, #32]
 8002f58:	9304      	str	r3, [sp, #16]
 8002f5a:	9b0b      	ldr	r3, [sp, #44]	; 0x2c
 8002f5c:	b1db      	cbz	r3, 8002f96 <_dtoa_r+0x6d6>
 8002f5e:	9b0a      	ldr	r3, [sp, #40]	; 0x28
 8002f60:	2b00      	cmp	r3, #0
 8002f62:	f000 8280 	beq.w	8003466 <_dtoa_r+0xba6>
 8002f66:	f1b8 0f00 	cmp.w	r8, #0
 8002f6a:	dd0f      	ble.n	8002f8c <_dtoa_r+0x6cc>
 8002f6c:	4631      	mov	r1, r6
 8002f6e:	4642      	mov	r2, r8
 8002f70:	4628      	mov	r0, r5
 8002f72:	f001 fca9 	bl	80048c8 <__pow5mult>
 8002f76:	4622      	mov	r2, r4
 8002f78:	4601      	mov	r1, r0
 8002f7a:	4606      	mov	r6, r0
 8002f7c:	4628      	mov	r0, r5
 8002f7e:	f001 fbf5 	bl	800476c <__multiply>
 8002f82:	4621      	mov	r1, r4
 8002f84:	4604      	mov	r4, r0
 8002f86:	4628      	mov	r0, r5
 8002f88:	f001 faba 	bl	8004500 <_Bfree>
 8002f8c:	9b0b      	ldr	r3, [sp, #44]	; 0x2c
 8002f8e:	ebb3 0208 	subs.w	r2, r3, r8
 8002f92:	f040 82fe 	bne.w	8003592 <_dtoa_r+0xcd2>
 8002f96:	2101      	movs	r1, #1
 8002f98:	4628      	mov	r0, r5
 8002f9a:	f001 fbd1 	bl	8004740 <__i2b>
 8002f9e:	f1bb 0f00 	cmp.w	fp, #0
 8002fa2:	4682      	mov	sl, r0
 8002fa4:	f300 80b7 	bgt.w	8003116 <_dtoa_r+0x856>
 8002fa8:	9b01      	ldr	r3, [sp, #4]
 8002faa:	2b01      	cmp	r3, #1
 8002fac:	f340 8188 	ble.w	80032c0 <_dtoa_r+0xa00>
 8002fb0:	f04f 0800 	mov.w	r8, #0
 8002fb4:	2001      	movs	r0, #1
 8002fb6:	f1bb 0f00 	cmp.w	fp, #0
 8002fba:	f040 80b8 	bne.w	800312e <_dtoa_r+0x86e>
 8002fbe:	9a04      	ldr	r2, [sp, #16]
 8002fc0:	4410      	add	r0, r2
 8002fc2:	f010 001f 	ands.w	r0, r0, #31
 8002fc6:	f000 8096 	beq.w	80030f6 <_dtoa_r+0x836>
 8002fca:	f1c0 0320 	rsb	r3, r0, #32
 8002fce:	2b04      	cmp	r3, #4
 8002fd0:	f340 840c 	ble.w	80037ec <_dtoa_r+0xf2c>
 8002fd4:	9b08      	ldr	r3, [sp, #32]
 8002fd6:	f1c0 001c 	rsb	r0, r0, #28
 8002fda:	4403      	add	r3, r0
 8002fdc:	4402      	add	r2, r0
 8002fde:	9308      	str	r3, [sp, #32]
 8002fe0:	4407      	add	r7, r0
 8002fe2:	9204      	str	r2, [sp, #16]
 8002fe4:	9b08      	ldr	r3, [sp, #32]
 8002fe6:	2b00      	cmp	r3, #0
 8002fe8:	dd05      	ble.n	8002ff6 <_dtoa_r+0x736>
 8002fea:	4621      	mov	r1, r4
 8002fec:	461a      	mov	r2, r3
 8002fee:	4628      	mov	r0, r5
 8002ff0:	f001 fcda 	bl	80049a8 <__lshift>
 8002ff4:	4604      	mov	r4, r0
 8002ff6:	9b04      	ldr	r3, [sp, #16]
 8002ff8:	2b00      	cmp	r3, #0
 8002ffa:	dd05      	ble.n	8003008 <_dtoa_r+0x748>
 8002ffc:	4651      	mov	r1, sl
 8002ffe:	461a      	mov	r2, r3
 8003000:	4628      	mov	r0, r5
 8003002:	f001 fcd1 	bl	80049a8 <__lshift>
 8003006:	4682      	mov	sl, r0
 8003008:	9b0c      	ldr	r3, [sp, #48]	; 0x30
 800300a:	2b00      	cmp	r3, #0
 800300c:	f040 8138 	bne.w	8003280 <_dtoa_r+0x9c0>
 8003010:	9b07      	ldr	r3, [sp, #28]
 8003012:	2b00      	cmp	r3, #0
 8003014:	f340 811f 	ble.w	8003256 <_dtoa_r+0x996>
 8003018:	9b0a      	ldr	r3, [sp, #40]	; 0x28
 800301a:	2b00      	cmp	r3, #0
 800301c:	f040 80a2 	bne.w	8003164 <_dtoa_r+0x8a4>
 8003020:	9b05      	ldr	r3, [sp, #20]
 8003022:	3301      	adds	r3, #1
 8003024:	9305      	str	r3, [sp, #20]
 8003026:	f8dd 8000 	ldr.w	r8, [sp]
 800302a:	f8dd 901c 	ldr.w	r9, [sp, #28]
 800302e:	2701      	movs	r7, #1
 8003030:	e007      	b.n	8003042 <_dtoa_r+0x782>
 8003032:	4621      	mov	r1, r4
 8003034:	2300      	movs	r3, #0
 8003036:	220a      	movs	r2, #10
 8003038:	4628      	mov	r0, r5
 800303a:	f001 fa85 	bl	8004548 <__multadd>
 800303e:	3701      	adds	r7, #1
 8003040:	4604      	mov	r4, r0
 8003042:	4651      	mov	r1, sl
 8003044:	4620      	mov	r0, r4
 8003046:	f7ff fba7 	bl	8002798 <quorem>
 800304a:	454f      	cmp	r7, r9
 800304c:	f100 0030 	add.w	r0, r0, #48	; 0x30
 8003050:	f808 0b01 	strb.w	r0, [r8], #1
 8003054:	dbed      	blt.n	8003032 <_dtoa_r+0x772>
 8003056:	9a07      	ldr	r2, [sp, #28]
 8003058:	2a00      	cmp	r2, #0
 800305a:	bfc8      	it	gt
 800305c:	4693      	movgt	fp, r2
 800305e:	9a00      	ldr	r2, [sp, #0]
 8003060:	bfd8      	it	le
 8003062:	f04f 0b01 	movle.w	fp, #1
 8003066:	4603      	mov	r3, r0
 8003068:	4493      	add	fp, r2
 800306a:	2700      	movs	r7, #0
 800306c:	4621      	mov	r1, r4
 800306e:	2201      	movs	r2, #1
 8003070:	4628      	mov	r0, r5
 8003072:	9301      	str	r3, [sp, #4]
 8003074:	f001 fc98 	bl	80049a8 <__lshift>
 8003078:	4651      	mov	r1, sl
 800307a:	4604      	mov	r4, r0
 800307c:	f001 fd08 	bl	8004a90 <__mcmp>
 8003080:	2800      	cmp	r0, #0
 8003082:	f340 81a3 	ble.w	80033cc <_dtoa_r+0xb0c>
 8003086:	f81b 3c01 	ldrb.w	r3, [fp, #-1]
 800308a:	9a00      	ldr	r2, [sp, #0]
 800308c:	f10b 3bff 	add.w	fp, fp, #4294967295	; 0xffffffff
 8003090:	e004      	b.n	800309c <_dtoa_r+0x7dc>
 8003092:	455a      	cmp	r2, fp
 8003094:	f000 81b5 	beq.w	8003402 <_dtoa_r+0xb42>
 8003098:	f81b 3d01 	ldrb.w	r3, [fp, #-1]!
 800309c:	2b39      	cmp	r3, #57	; 0x39
 800309e:	f10b 0901 	add.w	r9, fp, #1
 80030a2:	d0f6      	beq.n	8003092 <_dtoa_r+0x7d2>
 80030a4:	3301      	adds	r3, #1
 80030a6:	f88b 3000 	strb.w	r3, [fp]
 80030aa:	4651      	mov	r1, sl
 80030ac:	4628      	mov	r0, r5
 80030ae:	f001 fa27 	bl	8004500 <_Bfree>
 80030b2:	b156      	cbz	r6, 80030ca <_dtoa_r+0x80a>
 80030b4:	b12f      	cbz	r7, 80030c2 <_dtoa_r+0x802>
 80030b6:	42b7      	cmp	r7, r6
 80030b8:	d003      	beq.n	80030c2 <_dtoa_r+0x802>
 80030ba:	4639      	mov	r1, r7
 80030bc:	4628      	mov	r0, r5
 80030be:	f001 fa1f 	bl	8004500 <_Bfree>
 80030c2:	4631      	mov	r1, r6
 80030c4:	4628      	mov	r0, r5
 80030c6:	f001 fa1b 	bl	8004500 <_Bfree>
 80030ca:	4621      	mov	r1, r4
 80030cc:	4628      	mov	r0, r5
 80030ce:	f001 fa17 	bl	8004500 <_Bfree>
 80030d2:	2300      	movs	r3, #0
 80030d4:	f889 3000 	strb.w	r3, [r9]
 80030d8:	e9dd 2305 	ldrd	r2, r3, [sp, #20]
 80030dc:	601a      	str	r2, [r3, #0]
 80030de:	9b25      	ldr	r3, [sp, #148]	; 0x94
 80030e0:	2b00      	cmp	r3, #0
 80030e2:	f43f ac34 	beq.w	800294e <_dtoa_r+0x8e>
 80030e6:	9800      	ldr	r0, [sp, #0]
 80030e8:	f8c3 9000 	str.w	r9, [r3]
 80030ec:	b015      	add	sp, #84	; 0x54
 80030ee:	ecbd 8b06 	vpop	{d8-d10}
 80030f2:	e8bd 8ff0 	ldmia.w	sp!, {r4, r5, r6, r7, r8, r9, sl, fp, pc}
 80030f6:	201c      	movs	r0, #28
 80030f8:	9b08      	ldr	r3, [sp, #32]
 80030fa:	4403      	add	r3, r0
 80030fc:	9308      	str	r3, [sp, #32]
 80030fe:	9b04      	ldr	r3, [sp, #16]
 8003100:	4403      	add	r3, r0
 8003102:	4407      	add	r7, r0
 8003104:	9304      	str	r3, [sp, #16]
 8003106:	e76d      	b.n	8002fe4 <_dtoa_r+0x724>
 8003108:	2601      	movs	r6, #1
 800310a:	e4ae      	b.n	8002a6a <_dtoa_r+0x1aa>
 800310c:	f1c0 0020 	rsb	r0, r0, #32
 8003110:	fa08 f000 	lsl.w	r0, r8, r0
 8003114:	e445      	b.n	80029a2 <_dtoa_r+0xe2>
 8003116:	4601      	mov	r1, r0
 8003118:	465a      	mov	r2, fp
 800311a:	4628      	mov	r0, r5
 800311c:	f001 fbd4 	bl	80048c8 <__pow5mult>
 8003120:	9b01      	ldr	r3, [sp, #4]
 8003122:	2b01      	cmp	r3, #1
 8003124:	4682      	mov	sl, r0
 8003126:	f340 81d3 	ble.w	80034d0 <_dtoa_r+0xc10>
 800312a:	f04f 0800 	mov.w	r8, #0
 800312e:	f8da 3010 	ldr.w	r3, [sl, #16]
 8003132:	eb0a 0383 	add.w	r3, sl, r3, lsl #2
 8003136:	6918      	ldr	r0, [r3, #16]
 8003138:	f001 fab2 	bl	80046a0 <__hi0bits>
 800313c:	f1c0 0020 	rsb	r0, r0, #32
 8003140:	e73d      	b.n	8002fbe <_dtoa_r+0x6fe>
 8003142:	bf00      	nop
 8003144:	08008348 	.word	0x08008348
 8003148:	4631      	mov	r1, r6
 800314a:	2300      	movs	r3, #0
 800314c:	220a      	movs	r2, #10
 800314e:	4628      	mov	r0, r5
 8003150:	f001 f9fa 	bl	8004548 <__multadd>
 8003154:	9b0f      	ldr	r3, [sp, #60]	; 0x3c
 8003156:	2b00      	cmp	r3, #0
 8003158:	4606      	mov	r6, r0
 800315a:	f340 831f 	ble.w	800379c <_dtoa_r+0xedc>
 800315e:	f8cd 9014 	str.w	r9, [sp, #20]
 8003162:	9307      	str	r3, [sp, #28]
 8003164:	2f00      	cmp	r7, #0
 8003166:	f300 811a 	bgt.w	800339e <_dtoa_r+0xade>
 800316a:	f1b8 0f00 	cmp.w	r8, #0
 800316e:	f040 81f9 	bne.w	8003564 <_dtoa_r+0xca4>
 8003172:	46b0      	mov	r8, r6
 8003174:	9b02      	ldr	r3, [sp, #8]
 8003176:	9f00      	ldr	r7, [sp, #0]
 8003178:	9907      	ldr	r1, [sp, #28]
 800317a:	f003 0201 	and.w	r2, r3, #1
 800317e:	1e7b      	subs	r3, r7, #1
 8003180:	4419      	add	r1, r3
 8003182:	9b01      	ldr	r3, [sp, #4]
 8003184:	920a      	str	r2, [sp, #40]	; 0x28
 8003186:	4313      	orrs	r3, r2
 8003188:	9108      	str	r1, [sp, #32]
 800318a:	9309      	str	r3, [sp, #36]	; 0x24
 800318c:	4651      	mov	r1, sl
 800318e:	4620      	mov	r0, r4
 8003190:	f7ff fb02 	bl	8002798 <quorem>
 8003194:	4631      	mov	r1, r6
 8003196:	4683      	mov	fp, r0
 8003198:	4620      	mov	r0, r4
 800319a:	f001 fc79 	bl	8004a90 <__mcmp>
 800319e:	4642      	mov	r2, r8
 80031a0:	4651      	mov	r1, sl
 80031a2:	4681      	mov	r9, r0
 80031a4:	4628      	mov	r0, r5
 80031a6:	f001 fc95 	bl	8004ad4 <__mdiff>
 80031aa:	68c2      	ldr	r2, [r0, #12]
 80031ac:	4601      	mov	r1, r0
 80031ae:	f10b 0330 	add.w	r3, fp, #48	; 0x30
 80031b2:	2a00      	cmp	r2, #0
 80031b4:	d142      	bne.n	800323c <_dtoa_r+0x97c>
 80031b6:	9004      	str	r0, [sp, #16]
 80031b8:	4620      	mov	r0, r4
 80031ba:	9307      	str	r3, [sp, #28]
 80031bc:	f001 fc68 	bl	8004a90 <__mcmp>
 80031c0:	9904      	ldr	r1, [sp, #16]
 80031c2:	9002      	str	r0, [sp, #8]
 80031c4:	4628      	mov	r0, r5
 80031c6:	f001 f99b 	bl	8004500 <_Bfree>
 80031ca:	9a02      	ldr	r2, [sp, #8]
 80031cc:	9b07      	ldr	r3, [sp, #28]
 80031ce:	b91a      	cbnz	r2, 80031d8 <_dtoa_r+0x918>
 80031d0:	9909      	ldr	r1, [sp, #36]	; 0x24
 80031d2:	2900      	cmp	r1, #0
 80031d4:	f000 82d4 	beq.w	8003780 <_dtoa_r+0xec0>
 80031d8:	f1b9 0f00 	cmp.w	r9, #0
 80031dc:	f2c0 8184 	blt.w	80034e8 <_dtoa_r+0xc28>
 80031e0:	9901      	ldr	r1, [sp, #4]
 80031e2:	ea49 0901 	orr.w	r9, r9, r1
 80031e6:	990a      	ldr	r1, [sp, #40]	; 0x28
 80031e8:	ea51 0109 	orrs.w	r1, r1, r9
 80031ec:	f000 817c 	beq.w	80034e8 <_dtoa_r+0xc28>
 80031f0:	2a00      	cmp	r2, #0
 80031f2:	f300 81d8 	bgt.w	80035a6 <_dtoa_r+0xce6>
 80031f6:	9a08      	ldr	r2, [sp, #32]
 80031f8:	703b      	strb	r3, [r7, #0]
 80031fa:	f107 0901 	add.w	r9, r7, #1
 80031fe:	4297      	cmp	r7, r2
 8003200:	46cb      	mov	fp, r9
 8003202:	f000 81e3 	beq.w	80035cc <_dtoa_r+0xd0c>
 8003206:	4621      	mov	r1, r4
 8003208:	2300      	movs	r3, #0
 800320a:	220a      	movs	r2, #10
 800320c:	4628      	mov	r0, r5
 800320e:	f001 f99b 	bl	8004548 <__multadd>
 8003212:	4546      	cmp	r6, r8
 8003214:	4604      	mov	r4, r0
 8003216:	4631      	mov	r1, r6
 8003218:	f04f 0300 	mov.w	r3, #0
 800321c:	f04f 020a 	mov.w	r2, #10
 8003220:	4628      	mov	r0, r5
 8003222:	d012      	beq.n	800324a <_dtoa_r+0x98a>
 8003224:	f001 f990 	bl	8004548 <__multadd>
 8003228:	4641      	mov	r1, r8
 800322a:	4606      	mov	r6, r0
 800322c:	2300      	movs	r3, #0
 800322e:	220a      	movs	r2, #10
 8003230:	4628      	mov	r0, r5
 8003232:	f001 f989 	bl	8004548 <__multadd>
 8003236:	464f      	mov	r7, r9
 8003238:	4680      	mov	r8, r0
 800323a:	e7a7      	b.n	800318c <_dtoa_r+0x8cc>
 800323c:	4628      	mov	r0, r5
 800323e:	9302      	str	r3, [sp, #8]
 8003240:	f001 f95e 	bl	8004500 <_Bfree>
 8003244:	9b02      	ldr	r3, [sp, #8]
 8003246:	2201      	movs	r2, #1
 8003248:	e7c6      	b.n	80031d8 <_dtoa_r+0x918>
 800324a:	f001 f97d 	bl	8004548 <__multadd>
 800324e:	464f      	mov	r7, r9
 8003250:	4606      	mov	r6, r0
 8003252:	4680      	mov	r8, r0
 8003254:	e79a      	b.n	800318c <_dtoa_r+0x8cc>
 8003256:	9b01      	ldr	r3, [sp, #4]
 8003258:	2b02      	cmp	r3, #2
 800325a:	dc79      	bgt.n	8003350 <_dtoa_r+0xa90>
 800325c:	9b0a      	ldr	r3, [sp, #40]	; 0x28
 800325e:	2b00      	cmp	r3, #0
 8003260:	d180      	bne.n	8003164 <_dtoa_r+0x8a4>
 8003262:	9b05      	ldr	r3, [sp, #20]
 8003264:	4651      	mov	r1, sl
 8003266:	3301      	adds	r3, #1
 8003268:	4620      	mov	r0, r4
 800326a:	9305      	str	r3, [sp, #20]
 800326c:	f7ff fa94 	bl	8002798 <quorem>
 8003270:	f8dd b000 	ldr.w	fp, [sp]
 8003274:	f100 0330 	add.w	r3, r0, #48	; 0x30
 8003278:	f80b 3b01 	strb.w	r3, [fp], #1
 800327c:	2700      	movs	r7, #0
 800327e:	e6f5      	b.n	800306c <_dtoa_r+0x7ac>
 8003280:	4651      	mov	r1, sl
 8003282:	4620      	mov	r0, r4
 8003284:	f001 fc04 	bl	8004a90 <__mcmp>
 8003288:	2800      	cmp	r0, #0
 800328a:	f6bf aec1 	bge.w	8003010 <_dtoa_r+0x750>
 800328e:	4621      	mov	r1, r4
 8003290:	2300      	movs	r3, #0
 8003292:	220a      	movs	r2, #10
 8003294:	4628      	mov	r0, r5
 8003296:	f001 f957 	bl	8004548 <__multadd>
 800329a:	9b05      	ldr	r3, [sp, #20]
 800329c:	f103 39ff 	add.w	r9, r3, #4294967295	; 0xffffffff
 80032a0:	9b0a      	ldr	r3, [sp, #40]	; 0x28
 80032a2:	4604      	mov	r4, r0
 80032a4:	2b00      	cmp	r3, #0
 80032a6:	f47f af4f 	bne.w	8003148 <_dtoa_r+0x888>
 80032aa:	9b0f      	ldr	r3, [sp, #60]	; 0x3c
 80032ac:	2b00      	cmp	r3, #0
 80032ae:	f340 826e 	ble.w	800378e <_dtoa_r+0xece>
 80032b2:	9307      	str	r3, [sp, #28]
 80032b4:	e6b7      	b.n	8003026 <_dtoa_r+0x766>
 80032b6:	4bbf      	ldr	r3, [pc, #764]	; (80035b4 <_dtoa_r+0xcf4>)
 80032b8:	9300      	str	r3, [sp, #0]
 80032ba:	3303      	adds	r3, #3
 80032bc:	f7ff bbf0 	b.w	8002aa0 <_dtoa_r+0x1e0>
 80032c0:	e9dd 1202 	ldrd	r1, r2, [sp, #8]
 80032c4:	2900      	cmp	r1, #0
 80032c6:	f47f ae73 	bne.w	8002fb0 <_dtoa_r+0x6f0>
 80032ca:	f3c2 0313 	ubfx	r3, r2, #0, #20
 80032ce:	2b00      	cmp	r3, #0
 80032d0:	f47f ae6e 	bne.w	8002fb0 <_dtoa_r+0x6f0>
 80032d4:	4bb8      	ldr	r3, [pc, #736]	; (80035b8 <_dtoa_r+0xcf8>)
 80032d6:	4013      	ands	r3, r2
 80032d8:	2b00      	cmp	r3, #0
 80032da:	f000 823a 	beq.w	8003752 <_dtoa_r+0xe92>
 80032de:	9b08      	ldr	r3, [sp, #32]
 80032e0:	3301      	adds	r3, #1
 80032e2:	9308      	str	r3, [sp, #32]
 80032e4:	9b04      	ldr	r3, [sp, #16]
 80032e6:	3301      	adds	r3, #1
 80032e8:	9304      	str	r3, [sp, #16]
 80032ea:	f04f 0801 	mov.w	r8, #1
 80032ee:	e661      	b.n	8002fb4 <_dtoa_r+0x6f4>
 80032f0:	2301      	movs	r3, #1
 80032f2:	930a      	str	r3, [sp, #40]	; 0x28
 80032f4:	9b09      	ldr	r3, [sp, #36]	; 0x24
 80032f6:	9a05      	ldr	r2, [sp, #20]
 80032f8:	4413      	add	r3, r2
 80032fa:	930f      	str	r3, [sp, #60]	; 0x3c
 80032fc:	3301      	adds	r3, #1
 80032fe:	2b01      	cmp	r3, #1
 8003300:	4618      	mov	r0, r3
 8003302:	9307      	str	r3, [sp, #28]
 8003304:	bfb8      	it	lt
 8003306:	2001      	movlt	r0, #1
 8003308:	6a6f      	ldr	r7, [r5, #36]	; 0x24
 800330a:	2100      	movs	r1, #0
 800330c:	2817      	cmp	r0, #23
 800330e:	6079      	str	r1, [r7, #4]
 8003310:	f77f ac1b 	ble.w	8002b4a <_dtoa_r+0x28a>
 8003314:	2201      	movs	r2, #1
 8003316:	2304      	movs	r3, #4
 8003318:	005b      	lsls	r3, r3, #1
 800331a:	f103 0c14 	add.w	ip, r3, #20
 800331e:	4584      	cmp	ip, r0
 8003320:	4611      	mov	r1, r2
 8003322:	f102 0201 	add.w	r2, r2, #1
 8003326:	d9f7      	bls.n	8003318 <_dtoa_r+0xa58>
 8003328:	6079      	str	r1, [r7, #4]
 800332a:	e40e      	b.n	8002b4a <_dtoa_r+0x28a>
 800332c:	2301      	movs	r3, #1
 800332e:	930a      	str	r3, [sp, #40]	; 0x28
 8003330:	9809      	ldr	r0, [sp, #36]	; 0x24
 8003332:	2800      	cmp	r0, #0
 8003334:	dd45      	ble.n	80033c2 <_dtoa_r+0xb02>
 8003336:	900f      	str	r0, [sp, #60]	; 0x3c
 8003338:	9007      	str	r0, [sp, #28]
 800333a:	e7e5      	b.n	8003308 <_dtoa_r+0xa48>
 800333c:	2300      	movs	r3, #0
 800333e:	930a      	str	r3, [sp, #40]	; 0x28
 8003340:	e7d8      	b.n	80032f4 <_dtoa_r+0xa34>
 8003342:	2300      	movs	r3, #0
 8003344:	930a      	str	r3, [sp, #40]	; 0x28
 8003346:	e7f3      	b.n	8003330 <_dtoa_r+0xa70>
 8003348:	9b0f      	ldr	r3, [sp, #60]	; 0x3c
 800334a:	f8cd 9014 	str.w	r9, [sp, #20]
 800334e:	9307      	str	r3, [sp, #28]
 8003350:	9b07      	ldr	r3, [sp, #28]
 8003352:	2b00      	cmp	r3, #0
 8003354:	f47f ad27 	bne.w	8002da6 <_dtoa_r+0x4e6>
 8003358:	4651      	mov	r1, sl
 800335a:	2205      	movs	r2, #5
 800335c:	4628      	mov	r0, r5
 800335e:	f001 f8f3 	bl	8004548 <__multadd>
 8003362:	4601      	mov	r1, r0
 8003364:	4682      	mov	sl, r0
 8003366:	4620      	mov	r0, r4
 8003368:	f001 fb92 	bl	8004a90 <__mcmp>
 800336c:	2800      	cmp	r0, #0
 800336e:	f77f ad1a 	ble.w	8002da6 <_dtoa_r+0x4e6>
 8003372:	9800      	ldr	r0, [sp, #0]
 8003374:	9f05      	ldr	r7, [sp, #20]
 8003376:	2331      	movs	r3, #49	; 0x31
 8003378:	4680      	mov	r8, r0
 800337a:	f800 3b01 	strb.w	r3, [r0], #1
 800337e:	3701      	adds	r7, #1
 8003380:	9000      	str	r0, [sp, #0]
 8003382:	4651      	mov	r1, sl
 8003384:	4628      	mov	r0, r5
 8003386:	f001 f8bb 	bl	8004500 <_Bfree>
 800338a:	1c7b      	adds	r3, r7, #1
 800338c:	f8dd 9000 	ldr.w	r9, [sp]
 8003390:	9305      	str	r3, [sp, #20]
 8003392:	f8cd 8000 	str.w	r8, [sp]
 8003396:	2e00      	cmp	r6, #0
 8003398:	f47f ae93 	bne.w	80030c2 <_dtoa_r+0x802>
 800339c:	e695      	b.n	80030ca <_dtoa_r+0x80a>
 800339e:	4631      	mov	r1, r6
 80033a0:	463a      	mov	r2, r7
 80033a2:	4628      	mov	r0, r5
 80033a4:	f001 fb00 	bl	80049a8 <__lshift>
 80033a8:	4606      	mov	r6, r0
 80033aa:	e6de      	b.n	800316a <_dtoa_r+0x8aa>
 80033ac:	eba3 0808 	sub.w	r8, r3, r8
 80033b0:	e580      	b.n	8002eb4 <_dtoa_r+0x5f4>
 80033b2:	f04f 0a02 	mov.w	sl, #2
 80033b6:	eeb0 8a49 	vmov.f32	s16, s18
 80033ba:	eef0 8a69 	vmov.f32	s17, s19
 80033be:	f7ff bbf2 	b.w	8002ba6 <_dtoa_r+0x2e6>
 80033c2:	2301      	movs	r3, #1
 80033c4:	9309      	str	r3, [sp, #36]	; 0x24
 80033c6:	9307      	str	r3, [sp, #28]
 80033c8:	f7ff bbba 	b.w	8002b40 <_dtoa_r+0x280>
 80033cc:	d103      	bne.n	80033d6 <_dtoa_r+0xb16>
 80033ce:	9b01      	ldr	r3, [sp, #4]
 80033d0:	07db      	lsls	r3, r3, #31
 80033d2:	f53f ae58 	bmi.w	8003086 <_dtoa_r+0x7c6>
 80033d6:	46d9      	mov	r9, fp
 80033d8:	f81b 3d01 	ldrb.w	r3, [fp, #-1]!
 80033dc:	2b30      	cmp	r3, #48	; 0x30
 80033de:	d0fa      	beq.n	80033d6 <_dtoa_r+0xb16>
 80033e0:	e663      	b.n	80030aa <_dtoa_r+0x7ea>
 80033e2:	9a0d      	ldr	r2, [sp, #52]	; 0x34
 80033e4:	2a00      	cmp	r2, #0
 80033e6:	f000 80f7 	beq.w	80035d8 <_dtoa_r+0xd18>
 80033ea:	f203 4333 	addw	r3, r3, #1075	; 0x433
 80033ee:	9a04      	ldr	r2, [sp, #16]
 80033f0:	f8dd 802c 	ldr.w	r8, [sp, #44]	; 0x2c
 80033f4:	441a      	add	r2, r3
 80033f6:	9204      	str	r2, [sp, #16]
 80033f8:	9a08      	ldr	r2, [sp, #32]
 80033fa:	4617      	mov	r7, r2
 80033fc:	441a      	add	r2, r3
 80033fe:	9208      	str	r2, [sp, #32]
 8003400:	e563      	b.n	8002eca <_dtoa_r+0x60a>
 8003402:	9b05      	ldr	r3, [sp, #20]
 8003404:	9a00      	ldr	r2, [sp, #0]
 8003406:	3301      	adds	r3, #1
 8003408:	9305      	str	r3, [sp, #20]
 800340a:	2331      	movs	r3, #49	; 0x31
 800340c:	7013      	strb	r3, [r2, #0]
 800340e:	e64c      	b.n	80030aa <_dtoa_r+0x7ea>
 8003410:	4650      	mov	r0, sl
 8003412:	f003 fab1 	bl	8006978 <__aeabi_i2d>
 8003416:	ec53 2b1a 	vmov	r2, r3, d10
 800341a:	f003 fb17 	bl	8006a4c <__aeabi_dmul>
 800341e:	4b67      	ldr	r3, [pc, #412]	; (80035bc <_dtoa_r+0xcfc>)
 8003420:	2200      	movs	r2, #0
 8003422:	f003 f95d 	bl	80066e0 <__adddf3>
 8003426:	4680      	mov	r8, r0
 8003428:	f1a1 7950 	sub.w	r9, r1, #54525952	; 0x3400000
 800342c:	4b64      	ldr	r3, [pc, #400]	; (80035c0 <_dtoa_r+0xd00>)
 800342e:	2200      	movs	r2, #0
 8003430:	ec51 0b1a 	vmov	r0, r1, d10
 8003434:	f003 f952 	bl	80066dc <__aeabi_dsub>
 8003438:	4642      	mov	r2, r8
 800343a:	464b      	mov	r3, r9
 800343c:	4606      	mov	r6, r0
 800343e:	460f      	mov	r7, r1
 8003440:	f003 fd94 	bl	8006f6c <__aeabi_dcmpgt>
 8003444:	2800      	cmp	r0, #0
 8003446:	f040 8180 	bne.w	800374a <_dtoa_r+0xe8a>
 800344a:	4630      	mov	r0, r6
 800344c:	4639      	mov	r1, r7
 800344e:	4642      	mov	r2, r8
 8003450:	f109 4300 	add.w	r3, r9, #2147483648	; 0x80000000
 8003454:	f003 fd6c 	bl	8006f30 <__aeabi_dcmplt>
 8003458:	2800      	cmp	r0, #0
 800345a:	f43f ac7d 	beq.w	8002d58 <_dtoa_r+0x498>
 800345e:	f04f 0a00 	mov.w	sl, #0
 8003462:	4656      	mov	r6, sl
 8003464:	e49f      	b.n	8002da6 <_dtoa_r+0x4e6>
 8003466:	4621      	mov	r1, r4
 8003468:	9a0b      	ldr	r2, [sp, #44]	; 0x2c
 800346a:	4628      	mov	r0, r5
 800346c:	f001 fa2c 	bl	80048c8 <__pow5mult>
 8003470:	4604      	mov	r4, r0
 8003472:	e590      	b.n	8002f96 <_dtoa_r+0x6d6>
 8003474:	f000 8128 	beq.w	80036c8 <_dtoa_r+0xe08>
 8003478:	9a05      	ldr	r2, [sp, #20]
 800347a:	4b52      	ldr	r3, [pc, #328]	; (80035c4 <_dtoa_r+0xd04>)
 800347c:	4256      	negs	r6, r2
 800347e:	f006 020f 	and.w	r2, r6, #15
 8003482:	eb03 03c2 	add.w	r3, r3, r2, lsl #3
 8003486:	e9d3 2300 	ldrd	r2, r3, [r3]
 800348a:	ec51 0b19 	vmov	r0, r1, d9
 800348e:	f003 fadd 	bl	8006a4c <__aeabi_dmul>
 8003492:	1136      	asrs	r6, r6, #4
 8003494:	ec41 0b1a 	vmov	d10, r0, r1
 8003498:	f000 818b 	beq.w	80037b2 <_dtoa_r+0xef2>
 800349c:	4f4a      	ldr	r7, [pc, #296]	; (80035c8 <_dtoa_r+0xd08>)
 800349e:	2300      	movs	r3, #0
 80034a0:	f04f 0a02 	mov.w	sl, #2
 80034a4:	07f2      	lsls	r2, r6, #31
 80034a6:	d506      	bpl.n	80034b6 <_dtoa_r+0xbf6>
 80034a8:	e9d7 2300 	ldrd	r2, r3, [r7]
 80034ac:	f003 face 	bl	8006a4c <__aeabi_dmul>
 80034b0:	f10a 0a01 	add.w	sl, sl, #1
 80034b4:	2301      	movs	r3, #1
 80034b6:	1076      	asrs	r6, r6, #1
 80034b8:	f107 0708 	add.w	r7, r7, #8
 80034bc:	d1f2      	bne.n	80034a4 <_dtoa_r+0xbe4>
 80034be:	2b00      	cmp	r3, #0
 80034c0:	f43f ab90 	beq.w	8002be4 <_dtoa_r+0x324>
 80034c4:	ec41 0b1a 	vmov	d10, r0, r1
 80034c8:	f7ff bb8c 	b.w	8002be4 <_dtoa_r+0x324>
 80034cc:	900c      	str	r0, [sp, #48]	; 0x30
 80034ce:	e509      	b.n	8002ee4 <_dtoa_r+0x624>
 80034d0:	9b02      	ldr	r3, [sp, #8]
 80034d2:	2b00      	cmp	r3, #0
 80034d4:	f47f ae29 	bne.w	800312a <_dtoa_r+0x86a>
 80034d8:	e9dd 1202 	ldrd	r1, r2, [sp, #8]
 80034dc:	f3c2 0313 	ubfx	r3, r2, #0, #20
 80034e0:	2b00      	cmp	r3, #0
 80034e2:	f43f aef7 	beq.w	80032d4 <_dtoa_r+0xa14>
 80034e6:	e620      	b.n	800312a <_dtoa_r+0x86a>
 80034e8:	2a00      	cmp	r2, #0
 80034ea:	dd12      	ble.n	8003512 <_dtoa_r+0xc52>
 80034ec:	4621      	mov	r1, r4
 80034ee:	2201      	movs	r2, #1
 80034f0:	4628      	mov	r0, r5
 80034f2:	9301      	str	r3, [sp, #4]
 80034f4:	f001 fa58 	bl	80049a8 <__lshift>
 80034f8:	4651      	mov	r1, sl
 80034fa:	4604      	mov	r4, r0
 80034fc:	f001 fac8 	bl	8004a90 <__mcmp>
 8003500:	2800      	cmp	r0, #0
 8003502:	9b01      	ldr	r3, [sp, #4]
 8003504:	f340 8136 	ble.w	8003774 <_dtoa_r+0xeb4>
 8003508:	2b39      	cmp	r3, #57	; 0x39
 800350a:	f000 8114 	beq.w	8003736 <_dtoa_r+0xe76>
 800350e:	f10b 0331 	add.w	r3, fp, #49	; 0x31
 8003512:	46b9      	mov	r9, r7
 8003514:	f809 3b01 	strb.w	r3, [r9], #1
 8003518:	9b05      	ldr	r3, [sp, #20]
 800351a:	3301      	adds	r3, #1
 800351c:	4637      	mov	r7, r6
 800351e:	9305      	str	r3, [sp, #20]
 8003520:	4646      	mov	r6, r8
 8003522:	e5c2      	b.n	80030aa <_dtoa_r+0x7ea>
 8003524:	46a2      	mov	sl, r4
 8003526:	ee18 5a90 	vmov	r5, s17
 800352a:	ee18 4a10 	vmov	r4, s16
 800352e:	4602      	mov	r2, r0
 8003530:	460b      	mov	r3, r1
 8003532:	f003 f8d5 	bl	80066e0 <__adddf3>
 8003536:	4642      	mov	r2, r8
 8003538:	464b      	mov	r3, r9
 800353a:	4606      	mov	r6, r0
 800353c:	460f      	mov	r7, r1
 800353e:	f003 fd15 	bl	8006f6c <__aeabi_dcmpgt>
 8003542:	b960      	cbnz	r0, 800355e <_dtoa_r+0xc9e>
 8003544:	4642      	mov	r2, r8
 8003546:	464b      	mov	r3, r9
 8003548:	4630      	mov	r0, r6
 800354a:	4639      	mov	r1, r7
 800354c:	f003 fce6 	bl	8006f1c <__aeabi_dcmpeq>
 8003550:	2800      	cmp	r0, #0
 8003552:	f43f ac86 	beq.w	8002e62 <_dtoa_r+0x5a2>
 8003556:	ea5f 71cb 	movs.w	r1, fp, lsl #31
 800355a:	f57f ac82 	bpl.w	8002e62 <_dtoa_r+0x5a2>
 800355e:	9a00      	ldr	r2, [sp, #0]
 8003560:	f7ff bbe7 	b.w	8002d32 <_dtoa_r+0x472>
 8003564:	6871      	ldr	r1, [r6, #4]
 8003566:	4628      	mov	r0, r5
 8003568:	f000 ff8a 	bl	8004480 <_Balloc>
 800356c:	4607      	mov	r7, r0
 800356e:	2800      	cmp	r0, #0
 8003570:	f000 8141 	beq.w	80037f6 <_dtoa_r+0xf36>
 8003574:	6933      	ldr	r3, [r6, #16]
 8003576:	3302      	adds	r3, #2
 8003578:	009a      	lsls	r2, r3, #2
 800357a:	f106 010c 	add.w	r1, r6, #12
 800357e:	300c      	adds	r0, #12
 8003580:	f7fc fda2 	bl	80000c8 <memcpy>
 8003584:	4639      	mov	r1, r7
 8003586:	2201      	movs	r2, #1
 8003588:	4628      	mov	r0, r5
 800358a:	f001 fa0d 	bl	80049a8 <__lshift>
 800358e:	4680      	mov	r8, r0
 8003590:	e5f0      	b.n	8003174 <_dtoa_r+0x8b4>
 8003592:	4621      	mov	r1, r4
 8003594:	4628      	mov	r0, r5
 8003596:	f001 f997 	bl	80048c8 <__pow5mult>
 800359a:	4604      	mov	r4, r0
 800359c:	e4fb      	b.n	8002f96 <_dtoa_r+0x6d6>
 800359e:	e9dd 2307 	ldrd	r2, r3, [sp, #28]
 80035a2:	1a9f      	subs	r7, r3, r2
 80035a4:	e491      	b.n	8002eca <_dtoa_r+0x60a>
 80035a6:	2b39      	cmp	r3, #57	; 0x39
 80035a8:	f000 80c5 	beq.w	8003736 <_dtoa_r+0xe76>
 80035ac:	46b9      	mov	r9, r7
 80035ae:	3301      	adds	r3, #1
 80035b0:	e7b0      	b.n	8003514 <_dtoa_r+0xc54>
 80035b2:	bf00      	nop
 80035b4:	08008398 	.word	0x08008398
 80035b8:	7ff00000 	.word	0x7ff00000
 80035bc:	401c0000 	.word	0x401c0000
 80035c0:	40140000 	.word	0x40140000
 80035c4:	08008220 	.word	0x08008220
 80035c8:	08008310 	.word	0x08008310
 80035cc:	9a05      	ldr	r2, [sp, #20]
 80035ce:	3201      	adds	r2, #1
 80035d0:	4637      	mov	r7, r6
 80035d2:	9205      	str	r2, [sp, #20]
 80035d4:	4646      	mov	r6, r8
 80035d6:	e549      	b.n	800306c <_dtoa_r+0x7ac>
 80035d8:	9b12      	ldr	r3, [sp, #72]	; 0x48
 80035da:	f1c3 0336 	rsb	r3, r3, #54	; 0x36
 80035de:	e706      	b.n	80033ee <_dtoa_r+0xb2e>
 80035e0:	980e      	ldr	r0, [sp, #56]	; 0x38
 80035e2:	498e      	ldr	r1, [pc, #568]	; (800381c <_dtoa_r+0xf5c>)
 80035e4:	eb01 01c0 	add.w	r1, r1, r0, lsl #3
 80035e8:	4642      	mov	r2, r8
 80035ea:	464b      	mov	r3, r9
 80035ec:	e951 0102 	ldrd	r0, r1, [r1, #-8]
 80035f0:	f003 fa2c 	bl	8006a4c <__aeabi_dmul>
 80035f4:	ec5a 9b1a 	vmov	r9, sl, d10
 80035f8:	ec41 0b18 	vmov	d8, r0, r1
 80035fc:	4651      	mov	r1, sl
 80035fe:	ee1a 0a10 	vmov	r0, s20
 8003602:	f003 fcd3 	bl	8006fac <__aeabi_d2iz>
 8003606:	4607      	mov	r7, r0
 8003608:	f003 f9b6 	bl	8006978 <__aeabi_i2d>
 800360c:	4602      	mov	r2, r0
 800360e:	460b      	mov	r3, r1
 8003610:	ee1a 0a10 	vmov	r0, s20
 8003614:	4651      	mov	r1, sl
 8003616:	f003 f861 	bl	80066dc <__aeabi_dsub>
 800361a:	4606      	mov	r6, r0
 800361c:	980e      	ldr	r0, [sp, #56]	; 0x38
 800361e:	f8dd 8000 	ldr.w	r8, [sp]
 8003622:	3730      	adds	r7, #48	; 0x30
 8003624:	2801      	cmp	r0, #1
 8003626:	f808 7b01 	strb.w	r7, [r8], #1
 800362a:	460f      	mov	r7, r1
 800362c:	f000 80bf 	beq.w	80037ae <_dtoa_r+0xeee>
 8003630:	9b0e      	ldr	r3, [sp, #56]	; 0x38
 8003632:	9a00      	ldr	r2, [sp, #0]
 8003634:	f8cd b038 	str.w	fp, [sp, #56]	; 0x38
 8003638:	4413      	add	r3, r2
 800363a:	469b      	mov	fp, r3
 800363c:	46c2      	mov	sl, r8
 800363e:	4b78      	ldr	r3, [pc, #480]	; (8003820 <_dtoa_r+0xf60>)
 8003640:	2200      	movs	r2, #0
 8003642:	4630      	mov	r0, r6
 8003644:	4639      	mov	r1, r7
 8003646:	f003 fa01 	bl	8006a4c <__aeabi_dmul>
 800364a:	4689      	mov	r9, r1
 800364c:	4680      	mov	r8, r0
 800364e:	f003 fcad 	bl	8006fac <__aeabi_d2iz>
 8003652:	4607      	mov	r7, r0
 8003654:	f003 f990 	bl	8006978 <__aeabi_i2d>
 8003658:	3730      	adds	r7, #48	; 0x30
 800365a:	4602      	mov	r2, r0
 800365c:	460b      	mov	r3, r1
 800365e:	4640      	mov	r0, r8
 8003660:	4649      	mov	r1, r9
 8003662:	f003 f83b 	bl	80066dc <__aeabi_dsub>
 8003666:	f80a 7b01 	strb.w	r7, [sl], #1
 800366a:	45da      	cmp	sl, fp
 800366c:	4606      	mov	r6, r0
 800366e:	460f      	mov	r7, r1
 8003670:	d1e5      	bne.n	800363e <_dtoa_r+0xd7e>
 8003672:	46da      	mov	sl, fp
 8003674:	f8dd b038 	ldr.w	fp, [sp, #56]	; 0x38
 8003678:	4b6a      	ldr	r3, [pc, #424]	; (8003824 <_dtoa_r+0xf64>)
 800367a:	ec59 8b18 	vmov	r8, r9, d8
 800367e:	2200      	movs	r2, #0
 8003680:	ee18 0a10 	vmov	r0, s16
 8003684:	4649      	mov	r1, r9
 8003686:	f003 f82b 	bl	80066e0 <__adddf3>
 800368a:	4632      	mov	r2, r6
 800368c:	463b      	mov	r3, r7
 800368e:	f003 fc4f 	bl	8006f30 <__aeabi_dcmplt>
 8003692:	2800      	cmp	r0, #0
 8003694:	d169      	bne.n	800376a <_dtoa_r+0xeaa>
 8003696:	ee18 2a10 	vmov	r2, s16
 800369a:	464b      	mov	r3, r9
 800369c:	4961      	ldr	r1, [pc, #388]	; (8003824 <_dtoa_r+0xf64>)
 800369e:	2000      	movs	r0, #0
 80036a0:	f003 f81c 	bl	80066dc <__aeabi_dsub>
 80036a4:	4632      	mov	r2, r6
 80036a6:	463b      	mov	r3, r7
 80036a8:	f003 fc60 	bl	8006f6c <__aeabi_dcmpgt>
 80036ac:	2800      	cmp	r0, #0
 80036ae:	f43f ab53 	beq.w	8002d58 <_dtoa_r+0x498>
 80036b2:	46d1      	mov	r9, sl
 80036b4:	f10a 3aff 	add.w	sl, sl, #4294967295	; 0xffffffff
 80036b8:	f819 3c01 	ldrb.w	r3, [r9, #-1]
 80036bc:	2b30      	cmp	r3, #48	; 0x30
 80036be:	d0f8      	beq.n	80036b2 <_dtoa_r+0xdf2>
 80036c0:	9b10      	ldr	r3, [sp, #64]	; 0x40
 80036c2:	3301      	adds	r3, #1
 80036c4:	9305      	str	r3, [sp, #20]
 80036c6:	e500      	b.n	80030ca <_dtoa_r+0x80a>
 80036c8:	f04f 0a02 	mov.w	sl, #2
 80036cc:	eeb0 aa49 	vmov.f32	s20, s18
 80036d0:	eef0 aa69 	vmov.f32	s21, s19
 80036d4:	f7ff ba86 	b.w	8002be4 <_dtoa_r+0x324>
 80036d8:	9b07      	ldr	r3, [sp, #28]
 80036da:	2b00      	cmp	r3, #0
 80036dc:	f43f ae98 	beq.w	8003410 <_dtoa_r+0xb50>
 80036e0:	9b0f      	ldr	r3, [sp, #60]	; 0x3c
 80036e2:	2b00      	cmp	r3, #0
 80036e4:	f77f ab38 	ble.w	8002d58 <_dtoa_r+0x498>
 80036e8:	9a05      	ldr	r2, [sp, #20]
 80036ea:	930e      	str	r3, [sp, #56]	; 0x38
 80036ec:	3a01      	subs	r2, #1
 80036ee:	4b4c      	ldr	r3, [pc, #304]	; (8003820 <_dtoa_r+0xf60>)
 80036f0:	9210      	str	r2, [sp, #64]	; 0x40
 80036f2:	ee1a 0a10 	vmov	r0, s20
 80036f6:	4639      	mov	r1, r7
 80036f8:	2200      	movs	r2, #0
 80036fa:	f003 f9a7 	bl	8006a4c <__aeabi_dmul>
 80036fe:	4602      	mov	r2, r0
 8003700:	4616      	mov	r6, r2
 8003702:	460f      	mov	r7, r1
 8003704:	f10a 0001 	add.w	r0, sl, #1
 8003708:	f003 f936 	bl	8006978 <__aeabi_i2d>
 800370c:	4632      	mov	r2, r6
 800370e:	463b      	mov	r3, r7
 8003710:	f003 f99c 	bl	8006a4c <__aeabi_dmul>
 8003714:	4b44      	ldr	r3, [pc, #272]	; (8003828 <_dtoa_r+0xf68>)
 8003716:	2200      	movs	r2, #0
 8003718:	f002 ffe2 	bl	80066e0 <__adddf3>
 800371c:	ec47 6b1a 	vmov	d10, r6, r7
 8003720:	4680      	mov	r8, r0
 8003722:	f1a1 7950 	sub.w	r9, r1, #54525952	; 0x3400000
 8003726:	f7ff ba81 	b.w	8002c2c <_dtoa_r+0x36c>
 800372a:	9b05      	ldr	r3, [sp, #20]
 800372c:	3301      	adds	r3, #1
 800372e:	9305      	str	r3, [sp, #20]
 8003730:	2331      	movs	r3, #49	; 0x31
 8003732:	f7ff bb05 	b.w	8002d40 <_dtoa_r+0x480>
 8003736:	9b05      	ldr	r3, [sp, #20]
 8003738:	46bb      	mov	fp, r7
 800373a:	3301      	adds	r3, #1
 800373c:	9305      	str	r3, [sp, #20]
 800373e:	2339      	movs	r3, #57	; 0x39
 8003740:	4637      	mov	r7, r6
 8003742:	f80b 3b01 	strb.w	r3, [fp], #1
 8003746:	4646      	mov	r6, r8
 8003748:	e49f      	b.n	800308a <_dtoa_r+0x7ca>
 800374a:	f04f 0a00 	mov.w	sl, #0
 800374e:	4656      	mov	r6, sl
 8003750:	e60f      	b.n	8003372 <_dtoa_r+0xab2>
 8003752:	4698      	mov	r8, r3
 8003754:	e42e      	b.n	8002fb4 <_dtoa_r+0x6f4>
 8003756:	46aa      	mov	sl, r5
 8003758:	ee1a 4a10 	vmov	r4, s20
 800375c:	ee1a 5a90 	vmov	r5, s21
 8003760:	9b10      	ldr	r3, [sp, #64]	; 0x40
 8003762:	3301      	adds	r3, #1
 8003764:	9305      	str	r3, [sp, #20]
 8003766:	46d1      	mov	r9, sl
 8003768:	e4af      	b.n	80030ca <_dtoa_r+0x80a>
 800376a:	9b10      	ldr	r3, [sp, #64]	; 0x40
 800376c:	9a00      	ldr	r2, [sp, #0]
 800376e:	9305      	str	r3, [sp, #20]
 8003770:	f7ff badf 	b.w	8002d32 <_dtoa_r+0x472>
 8003774:	f47f aecd 	bne.w	8003512 <_dtoa_r+0xc52>
 8003778:	07da      	lsls	r2, r3, #31
 800377a:	f57f aeca 	bpl.w	8003512 <_dtoa_r+0xc52>
 800377e:	e6c3      	b.n	8003508 <_dtoa_r+0xc48>
 8003780:	2b39      	cmp	r3, #57	; 0x39
 8003782:	d0d8      	beq.n	8003736 <_dtoa_r+0xe76>
 8003784:	f1b9 0f00 	cmp.w	r9, #0
 8003788:	f73f aec1 	bgt.w	800350e <_dtoa_r+0xc4e>
 800378c:	e6c1      	b.n	8003512 <_dtoa_r+0xc52>
 800378e:	9b01      	ldr	r3, [sp, #4]
 8003790:	2b02      	cmp	r3, #2
 8003792:	f73f add9 	bgt.w	8003348 <_dtoa_r+0xa88>
 8003796:	f8cd 9014 	str.w	r9, [sp, #20]
 800379a:	e562      	b.n	8003262 <_dtoa_r+0x9a2>
 800379c:	9b01      	ldr	r3, [sp, #4]
 800379e:	2b02      	cmp	r3, #2
 80037a0:	f73f add2 	bgt.w	8003348 <_dtoa_r+0xa88>
 80037a4:	9b0f      	ldr	r3, [sp, #60]	; 0x3c
 80037a6:	f8cd 9014 	str.w	r9, [sp, #20]
 80037aa:	9307      	str	r3, [sp, #28]
 80037ac:	e4da      	b.n	8003164 <_dtoa_r+0x8a4>
 80037ae:	46c2      	mov	sl, r8
 80037b0:	e762      	b.n	8003678 <_dtoa_r+0xdb8>
 80037b2:	f04f 0a02 	mov.w	sl, #2
 80037b6:	f7ff ba15 	b.w	8002be4 <_dtoa_r+0x324>
 80037ba:	4b1c      	ldr	r3, [pc, #112]	; (800382c <_dtoa_r+0xf6c>)
 80037bc:	481c      	ldr	r0, [pc, #112]	; (8003830 <_dtoa_r+0xf70>)
 80037be:	21ea      	movs	r1, #234	; 0xea
 80037c0:	f002 fad6 	bl	8005d70 <__assert_func>
 80037c4:	4b1b      	ldr	r3, [pc, #108]	; (8003834 <_dtoa_r+0xf74>)
 80037c6:	9300      	str	r3, [sp, #0]
 80037c8:	f7ff b8c1 	b.w	800294e <_dtoa_r+0x8e>
 80037cc:	6a6b      	ldr	r3, [r5, #36]	; 0x24
 80037ce:	2600      	movs	r6, #0
 80037d0:	605e      	str	r6, [r3, #4]
 80037d2:	4631      	mov	r1, r6
 80037d4:	4628      	mov	r0, r5
 80037d6:	f000 fe53 	bl	8004480 <_Balloc>
 80037da:	9000      	str	r0, [sp, #0]
 80037dc:	b990      	cbnz	r0, 8003804 <_dtoa_r+0xf44>
 80037de:	4b16      	ldr	r3, [pc, #88]	; (8003838 <_dtoa_r+0xf78>)
 80037e0:	4813      	ldr	r0, [pc, #76]	; (8003830 <_dtoa_r+0xf70>)
 80037e2:	2200      	movs	r2, #0
 80037e4:	f44f 71d5 	mov.w	r1, #426	; 0x1aa
 80037e8:	f002 fac2 	bl	8005d70 <__assert_func>
 80037ec:	f43f abfa 	beq.w	8002fe4 <_dtoa_r+0x724>
 80037f0:	f1c0 003c 	rsb	r0, r0, #60	; 0x3c
 80037f4:	e480      	b.n	80030f8 <_dtoa_r+0x838>
 80037f6:	4b10      	ldr	r3, [pc, #64]	; (8003838 <_dtoa_r+0xf78>)
 80037f8:	480d      	ldr	r0, [pc, #52]	; (8003830 <_dtoa_r+0xf70>)
 80037fa:	463a      	mov	r2, r7
 80037fc:	f240 21ea 	movw	r1, #746	; 0x2ea
 8003800:	f002 fab6 	bl	8005d70 <__assert_func>
 8003804:	6a6b      	ldr	r3, [r5, #36]	; 0x24
 8003806:	9a00      	ldr	r2, [sp, #0]
 8003808:	601a      	str	r2, [r3, #0]
 800380a:	f04f 33ff 	mov.w	r3, #4294967295	; 0xffffffff
 800380e:	2201      	movs	r2, #1
 8003810:	9609      	str	r6, [sp, #36]	; 0x24
 8003812:	930f      	str	r3, [sp, #60]	; 0x3c
 8003814:	920a      	str	r2, [sp, #40]	; 0x28
 8003816:	9307      	str	r3, [sp, #28]
 8003818:	f7ff ba9e 	b.w	8002d58 <_dtoa_r+0x498>
 800381c:	08008220 	.word	0x08008220
 8003820:	40240000 	.word	0x40240000
 8003824:	3fe00000 	.word	0x3fe00000
 8003828:	401c0000 	.word	0x401c0000
 800382c:	0800839c 	.word	0x0800839c
 8003830:	080083b4 	.word	0x080083b4
 8003834:	0800838c 	.word	0x0800838c
 8003838:	080083e8 	.word	0x080083e8

0800383c <__errno>:
 800383c:	4b01      	ldr	r3, [pc, #4]	; (8003844 <__errno+0x8>)
 800383e:	6818      	ldr	r0, [r3, #0]
 8003840:	4770      	bx	lr
 8003842:	bf00      	nop
 8003844:	20000000 	.word	0x20000000

08003848 <__fp_lock>:
 8003848:	2000      	movs	r0, #0
 800384a:	4770      	bx	lr

0800384c <_cleanup_r>:
 800384c:	4901      	ldr	r1, [pc, #4]	; (8003854 <_cleanup_r+0x8>)
 800384e:	f000 b937 	b.w	8003ac0 <_fwalk_reent>
 8003852:	bf00      	nop
 8003854:	08005ef5 	.word	0x08005ef5

08003858 <__fp_unlock>:
 8003858:	2000      	movs	r0, #0
 800385a:	4770      	bx	lr

0800385c <__sfmoreglue>:
 800385c:	b570      	push	{r4, r5, r6, lr}
 800385e:	2268      	movs	r2, #104	; 0x68
 8003860:	1e4d      	subs	r5, r1, #1
 8003862:	fb02 f505 	mul.w	r5, r2, r5
 8003866:	460e      	mov	r6, r1
 8003868:	f105 0174 	add.w	r1, r5, #116	; 0x74
 800386c:	f001 fbee 	bl	800504c <_malloc_r>
 8003870:	4604      	mov	r4, r0
 8003872:	b140      	cbz	r0, 8003886 <__sfmoreglue+0x2a>
 8003874:	2100      	movs	r1, #0
 8003876:	300c      	adds	r0, #12
 8003878:	e9c4 1600 	strd	r1, r6, [r4]
 800387c:	60a0      	str	r0, [r4, #8]
 800387e:	f105 0268 	add.w	r2, r5, #104	; 0x68
 8003882:	f7fc fcbb 	bl	80001fc <memset>
 8003886:	4620      	mov	r0, r4
 8003888:	bd70      	pop	{r4, r5, r6, pc}
 800388a:	bf00      	nop

0800388c <__sfp>:
 800388c:	4b27      	ldr	r3, [pc, #156]	; (800392c <__sfp+0xa0>)
 800388e:	e92d 41f0 	stmdb	sp!, {r4, r5, r6, r7, r8, lr}
 8003892:	681e      	ldr	r6, [r3, #0]
 8003894:	69b3      	ldr	r3, [r6, #24]
 8003896:	4607      	mov	r7, r0
 8003898:	b353      	cbz	r3, 80038f0 <__sfp+0x64>
 800389a:	3648      	adds	r6, #72	; 0x48
 800389c:	f04f 0804 	mov.w	r8, #4
 80038a0:	e9d6 3401 	ldrd	r3, r4, [r6, #4]
 80038a4:	3b01      	subs	r3, #1
 80038a6:	d504      	bpl.n	80038b2 <__sfp+0x26>
 80038a8:	e01e      	b.n	80038e8 <__sfp+0x5c>
 80038aa:	1c5a      	adds	r2, r3, #1
 80038ac:	f104 0468 	add.w	r4, r4, #104	; 0x68
 80038b0:	d01a      	beq.n	80038e8 <__sfp+0x5c>
 80038b2:	f9b4 500c 	ldrsh.w	r5, [r4, #12]
 80038b6:	3b01      	subs	r3, #1
 80038b8:	2d00      	cmp	r5, #0
 80038ba:	d1f6      	bne.n	80038aa <__sfp+0x1e>
 80038bc:	4b1c      	ldr	r3, [pc, #112]	; (8003930 <__sfp+0xa4>)
 80038be:	6665      	str	r5, [r4, #100]	; 0x64
 80038c0:	e9c4 5500 	strd	r5, r5, [r4]
 80038c4:	e9c4 5302 	strd	r5, r3, [r4, #8]
 80038c8:	e9c4 5504 	strd	r5, r5, [r4, #16]
 80038cc:	61a5      	str	r5, [r4, #24]
 80038ce:	2208      	movs	r2, #8
 80038d0:	4629      	mov	r1, r5
 80038d2:	f104 005c 	add.w	r0, r4, #92	; 0x5c
 80038d6:	f7fc fc91 	bl	80001fc <memset>
 80038da:	e9c4 550d 	strd	r5, r5, [r4, #52]	; 0x34
 80038de:	e9c4 5512 	strd	r5, r5, [r4, #72]	; 0x48
 80038e2:	4620      	mov	r0, r4
 80038e4:	e8bd 81f0 	ldmia.w	sp!, {r4, r5, r6, r7, r8, pc}
 80038e8:	6835      	ldr	r5, [r6, #0]
 80038ea:	b12d      	cbz	r5, 80038f8 <__sfp+0x6c>
 80038ec:	462e      	mov	r6, r5
 80038ee:	e7d7      	b.n	80038a0 <__sfp+0x14>
 80038f0:	4630      	mov	r0, r6
 80038f2:	f000 f81f 	bl	8003934 <__sinit.part.0>
 80038f6:	e7d0      	b.n	800389a <__sfp+0xe>
 80038f8:	f44f 71d6 	mov.w	r1, #428	; 0x1ac
 80038fc:	4638      	mov	r0, r7
 80038fe:	f001 fba5 	bl	800504c <_malloc_r>
 8003902:	4604      	mov	r4, r0
 8003904:	b168      	cbz	r0, 8003922 <__sfp+0x96>
 8003906:	6005      	str	r5, [r0, #0]
 8003908:	f8c0 8004 	str.w	r8, [r0, #4]
 800390c:	300c      	adds	r0, #12
 800390e:	4629      	mov	r1, r5
 8003910:	60a0      	str	r0, [r4, #8]
 8003912:	4625      	mov	r5, r4
 8003914:	f44f 72d0 	mov.w	r2, #416	; 0x1a0
 8003918:	f7fc fc70 	bl	80001fc <memset>
 800391c:	6034      	str	r4, [r6, #0]
 800391e:	462e      	mov	r6, r5
 8003920:	e7be      	b.n	80038a0 <__sfp+0x14>
 8003922:	230c      	movs	r3, #12
 8003924:	6030      	str	r0, [r6, #0]
 8003926:	603b      	str	r3, [r7, #0]
 8003928:	e7db      	b.n	80038e2 <__sfp+0x56>
 800392a:	bf00      	nop
 800392c:	08007f4c 	.word	0x08007f4c
 8003930:	ffff0001 	.word	0xffff0001

08003934 <__sinit.part.0>:
 8003934:	e92d 4ff8 	stmdb	sp!, {r3, r4, r5, r6, r7, r8, r9, sl, fp, lr}
 8003938:	4b34      	ldr	r3, [pc, #208]	; (8003a0c <__sinit.part.0+0xd8>)
 800393a:	4935      	ldr	r1, [pc, #212]	; (8003a10 <__sinit.part.0+0xdc>)
 800393c:	681a      	ldr	r2, [r3, #0]
 800393e:	6281      	str	r1, [r0, #40]	; 0x28
 8003940:	4290      	cmp	r0, r2
 8003942:	f04f 0300 	mov.w	r3, #0
 8003946:	e9c0 3312 	strd	r3, r3, [r0, #72]	; 0x48
 800394a:	6503      	str	r3, [r0, #80]	; 0x50
 800394c:	bf04      	itt	eq
 800394e:	2301      	moveq	r3, #1
 8003950:	6183      	streq	r3, [r0, #24]
 8003952:	4605      	mov	r5, r0
 8003954:	f7ff ff9a 	bl	800388c <__sfp>
 8003958:	6068      	str	r0, [r5, #4]
 800395a:	4628      	mov	r0, r5
 800395c:	f7ff ff96 	bl	800388c <__sfp>
 8003960:	60a8      	str	r0, [r5, #8]
 8003962:	4628      	mov	r0, r5
 8003964:	f7ff ff92 	bl	800388c <__sfp>
 8003968:	686f      	ldr	r7, [r5, #4]
 800396a:	60e8      	str	r0, [r5, #12]
 800396c:	2400      	movs	r4, #0
 800396e:	2304      	movs	r3, #4
 8003970:	e9c7 4302 	strd	r4, r3, [r7, #8]
 8003974:	2208      	movs	r2, #8
 8003976:	4621      	mov	r1, r4
 8003978:	e9c7 4400 	strd	r4, r4, [r7]
 800397c:	e9c7 4404 	strd	r4, r4, [r7, #16]
 8003980:	667c      	str	r4, [r7, #100]	; 0x64
 8003982:	61bc      	str	r4, [r7, #24]
 8003984:	f107 005c 	add.w	r0, r7, #92	; 0x5c
 8003988:	f7fc fc38 	bl	80001fc <memset>
 800398c:	f8df b08c 	ldr.w	fp, [pc, #140]	; 8003a1c <__sinit.part.0+0xe8>
 8003990:	68ae      	ldr	r6, [r5, #8]
 8003992:	f8df a08c 	ldr.w	sl, [pc, #140]	; 8003a20 <__sinit.part.0+0xec>
 8003996:	f8df 908c 	ldr.w	r9, [pc, #140]	; 8003a24 <__sinit.part.0+0xf0>
 800399a:	f8df 808c 	ldr.w	r8, [pc, #140]	; 8003a28 <__sinit.part.0+0xf4>
 800399e:	4b1d      	ldr	r3, [pc, #116]	; (8003a14 <__sinit.part.0+0xe0>)
 80039a0:	f8c7 a028 	str.w	sl, [r7, #40]	; 0x28
 80039a4:	e9c7 7b08 	strd	r7, fp, [r7, #32]
 80039a8:	f8c7 902c 	str.w	r9, [r7, #44]	; 0x2c
 80039ac:	f8c7 8030 	str.w	r8, [r7, #48]	; 0x30
 80039b0:	2208      	movs	r2, #8
 80039b2:	60f3      	str	r3, [r6, #12]
 80039b4:	e9c6 4400 	strd	r4, r4, [r6]
 80039b8:	e9c6 4404 	strd	r4, r4, [r6, #16]
 80039bc:	6674      	str	r4, [r6, #100]	; 0x64
 80039be:	60b4      	str	r4, [r6, #8]
 80039c0:	61b4      	str	r4, [r6, #24]
 80039c2:	4621      	mov	r1, r4
 80039c4:	f106 005c 	add.w	r0, r6, #92	; 0x5c
 80039c8:	f7fc fc18 	bl	80001fc <memset>
 80039cc:	e9c6 6b08 	strd	r6, fp, [r6, #32]
 80039d0:	e9c6 a90a 	strd	sl, r9, [r6, #40]	; 0x28
 80039d4:	f8c6 8030 	str.w	r8, [r6, #48]	; 0x30
 80039d8:	68ee      	ldr	r6, [r5, #12]
 80039da:	4b0f      	ldr	r3, [pc, #60]	; (8003a18 <__sinit.part.0+0xe4>)
 80039dc:	60f3      	str	r3, [r6, #12]
 80039de:	e9c6 4400 	strd	r4, r4, [r6]
 80039e2:	e9c6 4404 	strd	r4, r4, [r6, #16]
 80039e6:	6674      	str	r4, [r6, #100]	; 0x64
 80039e8:	60b4      	str	r4, [r6, #8]
 80039ea:	61b4      	str	r4, [r6, #24]
 80039ec:	4621      	mov	r1, r4
 80039ee:	2208      	movs	r2, #8
 80039f0:	f106 005c 	add.w	r0, r6, #92	; 0x5c
 80039f4:	f7fc fc02 	bl	80001fc <memset>
 80039f8:	2301      	movs	r3, #1
 80039fa:	e9c6 6b08 	strd	r6, fp, [r6, #32]
 80039fe:	e9c6 980b 	strd	r9, r8, [r6, #44]	; 0x2c
 8003a02:	f8c6 a028 	str.w	sl, [r6, #40]	; 0x28
 8003a06:	61ab      	str	r3, [r5, #24]
 8003a08:	e8bd 8ff8 	ldmia.w	sp!, {r3, r4, r5, r6, r7, r8, r9, sl, fp, pc}
 8003a0c:	08007f4c 	.word	0x08007f4c
 8003a10:	0800384d 	.word	0x0800384d
 8003a14:	00010009 	.word	0x00010009
 8003a18:	00020012 	.word	0x00020012
 8003a1c:	08005ae5 	.word	0x08005ae5
 8003a20:	08005b0d 	.word	0x08005b0d
 8003a24:	08005b4d 	.word	0x08005b4d
 8003a28:	08005b6d 	.word	0x08005b6d

08003a2c <_cleanup>:
 8003a2c:	4b02      	ldr	r3, [pc, #8]	; (8003a38 <_cleanup+0xc>)
 8003a2e:	4903      	ldr	r1, [pc, #12]	; (8003a3c <_cleanup+0x10>)
 8003a30:	6818      	ldr	r0, [r3, #0]
 8003a32:	f000 b845 	b.w	8003ac0 <_fwalk_reent>
 8003a36:	bf00      	nop
 8003a38:	08007f4c 	.word	0x08007f4c
 8003a3c:	08005ef5 	.word	0x08005ef5

08003a40 <__sinit>:
 8003a40:	6983      	ldr	r3, [r0, #24]
 8003a42:	b903      	cbnz	r3, 8003a46 <__sinit+0x6>
 8003a44:	e776      	b.n	8003934 <__sinit.part.0>
 8003a46:	4770      	bx	lr

08003a48 <__sfp_lock_acquire>:
 8003a48:	4770      	bx	lr
 8003a4a:	bf00      	nop

08003a4c <__sfp_lock_release>:
 8003a4c:	4770      	bx	lr
 8003a4e:	bf00      	nop

08003a50 <__sinit_lock_acquire>:
 8003a50:	4770      	bx	lr
 8003a52:	bf00      	nop

08003a54 <__sinit_lock_release>:
 8003a54:	4770      	bx	lr
 8003a56:	bf00      	nop

08003a58 <__fp_lock_all>:
 8003a58:	4b02      	ldr	r3, [pc, #8]	; (8003a64 <__fp_lock_all+0xc>)
 8003a5a:	4903      	ldr	r1, [pc, #12]	; (8003a68 <__fp_lock_all+0x10>)
 8003a5c:	6818      	ldr	r0, [r3, #0]
 8003a5e:	f000 b80f 	b.w	8003a80 <_fwalk>
 8003a62:	bf00      	nop
 8003a64:	20000000 	.word	0x20000000
 8003a68:	08003849 	.word	0x08003849

08003a6c <__fp_unlock_all>:
 8003a6c:	4b02      	ldr	r3, [pc, #8]	; (8003a78 <__fp_unlock_all+0xc>)
 8003a6e:	4903      	ldr	r1, [pc, #12]	; (8003a7c <__fp_unlock_all+0x10>)
 8003a70:	6818      	ldr	r0, [r3, #0]
 8003a72:	f000 b805 	b.w	8003a80 <_fwalk>
 8003a76:	bf00      	nop
 8003a78:	20000000 	.word	0x20000000
 8003a7c:	08003859 	.word	0x08003859

08003a80 <_fwalk>:
 8003a80:	e92d 41f0 	stmdb	sp!, {r4, r5, r6, r7, r8, lr}
 8003a84:	4688      	mov	r8, r1
 8003a86:	f100 0748 	add.w	r7, r0, #72	; 0x48
 8003a8a:	2600      	movs	r6, #0
 8003a8c:	e9d7 5401 	ldrd	r5, r4, [r7, #4]
 8003a90:	3d01      	subs	r5, #1
 8003a92:	d40f      	bmi.n	8003ab4 <_fwalk+0x34>
 8003a94:	89a3      	ldrh	r3, [r4, #12]
 8003a96:	2b01      	cmp	r3, #1
 8003a98:	f105 35ff 	add.w	r5, r5, #4294967295	; 0xffffffff
 8003a9c:	d906      	bls.n	8003aac <_fwalk+0x2c>
 8003a9e:	f9b4 300e 	ldrsh.w	r3, [r4, #14]
 8003aa2:	3301      	adds	r3, #1
 8003aa4:	4620      	mov	r0, r4
 8003aa6:	d001      	beq.n	8003aac <_fwalk+0x2c>
 8003aa8:	47c0      	blx	r8
 8003aaa:	4306      	orrs	r6, r0
 8003aac:	1c6b      	adds	r3, r5, #1
 8003aae:	f104 0468 	add.w	r4, r4, #104	; 0x68
 8003ab2:	d1ef      	bne.n	8003a94 <_fwalk+0x14>
 8003ab4:	683f      	ldr	r7, [r7, #0]
 8003ab6:	2f00      	cmp	r7, #0
 8003ab8:	d1e8      	bne.n	8003a8c <_fwalk+0xc>
 8003aba:	4630      	mov	r0, r6
 8003abc:	e8bd 81f0 	ldmia.w	sp!, {r4, r5, r6, r7, r8, pc}

08003ac0 <_fwalk_reent>:
 8003ac0:	e92d 43f8 	stmdb	sp!, {r3, r4, r5, r6, r7, r8, r9, lr}
 8003ac4:	4607      	mov	r7, r0
 8003ac6:	4688      	mov	r8, r1
 8003ac8:	f100 0648 	add.w	r6, r0, #72	; 0x48
 8003acc:	f04f 0900 	mov.w	r9, #0
 8003ad0:	e9d6 5401 	ldrd	r5, r4, [r6, #4]
 8003ad4:	3d01      	subs	r5, #1
 8003ad6:	d411      	bmi.n	8003afc <_fwalk_reent+0x3c>
 8003ad8:	89a3      	ldrh	r3, [r4, #12]
 8003ada:	2b01      	cmp	r3, #1
 8003adc:	f105 35ff 	add.w	r5, r5, #4294967295	; 0xffffffff
 8003ae0:	d908      	bls.n	8003af4 <_fwalk_reent+0x34>
 8003ae2:	f9b4 300e 	ldrsh.w	r3, [r4, #14]
 8003ae6:	3301      	adds	r3, #1
 8003ae8:	4621      	mov	r1, r4
 8003aea:	d003      	beq.n	8003af4 <_fwalk_reent+0x34>
 8003aec:	4638      	mov	r0, r7
 8003aee:	47c0      	blx	r8
 8003af0:	ea49 0900 	orr.w	r9, r9, r0
 8003af4:	1c6b      	adds	r3, r5, #1
 8003af6:	f104 0468 	add.w	r4, r4, #104	; 0x68
 8003afa:	d1ed      	bne.n	8003ad8 <_fwalk_reent+0x18>
 8003afc:	6836      	ldr	r6, [r6, #0]
 8003afe:	2e00      	cmp	r6, #0
 8003b00:	d1e6      	bne.n	8003ad0 <_fwalk_reent+0x10>
 8003b02:	4648      	mov	r0, r9
 8003b04:	e8bd 83f8 	ldmia.w	sp!, {r3, r4, r5, r6, r7, r8, r9, pc}

08003b08 <rshift>:
 8003b08:	e92d 41f0 	stmdb	sp!, {r4, r5, r6, r7, r8, lr}
 8003b0c:	6904      	ldr	r4, [r0, #16]
 8003b0e:	ebb4 1f61 	cmp.w	r4, r1, asr #5
 8003b12:	dd2f      	ble.n	8003b74 <rshift+0x6c>
 8003b14:	f100 0e14 	add.w	lr, r0, #20
 8003b18:	114e      	asrs	r6, r1, #5
 8003b1a:	f011 0c1f 	ands.w	ip, r1, #31
 8003b1e:	eb0e 0584 	add.w	r5, lr, r4, lsl #2
 8003b22:	eb0e 0386 	add.w	r3, lr, r6, lsl #2
 8003b26:	d02b      	beq.n	8003b80 <rshift+0x78>
 8003b28:	f85e 2026 	ldr.w	r2, [lr, r6, lsl #2]
 8003b2c:	3304      	adds	r3, #4
 8003b2e:	429d      	cmp	r5, r3
 8003b30:	fa22 f10c 	lsr.w	r1, r2, ip
 8003b34:	f1cc 0820 	rsb	r8, ip, #32
 8003b38:	d918      	bls.n	8003b6c <rshift+0x64>
 8003b3a:	4677      	mov	r7, lr
 8003b3c:	681a      	ldr	r2, [r3, #0]
 8003b3e:	fa02 f208 	lsl.w	r2, r2, r8
 8003b42:	430a      	orrs	r2, r1
 8003b44:	f847 2b04 	str.w	r2, [r7], #4
 8003b48:	f853 1b04 	ldr.w	r1, [r3], #4
 8003b4c:	429d      	cmp	r5, r3
 8003b4e:	fa21 f10c 	lsr.w	r1, r1, ip
 8003b52:	d8f3      	bhi.n	8003b3c <rshift+0x34>
 8003b54:	1ba4      	subs	r4, r4, r6
 8003b56:	00a3      	lsls	r3, r4, #2
 8003b58:	3b05      	subs	r3, #5
 8003b5a:	089b      	lsrs	r3, r3, #2
 8003b5c:	3301      	adds	r3, #1
 8003b5e:	eb0e 0483 	add.w	r4, lr, r3, lsl #2
 8003b62:	f84e 1023 	str.w	r1, [lr, r3, lsl #2]
 8003b66:	b1c9      	cbz	r1, 8003b9c <rshift+0x94>
 8003b68:	3404      	adds	r4, #4
 8003b6a:	e017      	b.n	8003b9c <rshift+0x94>
 8003b6c:	6141      	str	r1, [r0, #20]
 8003b6e:	4674      	mov	r4, lr
 8003b70:	2900      	cmp	r1, #0
 8003b72:	d1f9      	bne.n	8003b68 <rshift+0x60>
 8003b74:	2300      	movs	r3, #0
 8003b76:	6103      	str	r3, [r0, #16]
 8003b78:	2300      	movs	r3, #0
 8003b7a:	6143      	str	r3, [r0, #20]
 8003b7c:	e8bd 81f0 	ldmia.w	sp!, {r4, r5, r6, r7, r8, pc}
 8003b80:	429d      	cmp	r5, r3
 8003b82:	bf88      	it	hi
 8003b84:	f100 0210 	addhi.w	r2, r0, #16
 8003b88:	d9f4      	bls.n	8003b74 <rshift+0x6c>
 8003b8a:	f853 1b04 	ldr.w	r1, [r3], #4
 8003b8e:	f842 1f04 	str.w	r1, [r2, #4]!
 8003b92:	429d      	cmp	r5, r3
 8003b94:	d8f9      	bhi.n	8003b8a <rshift+0x82>
 8003b96:	1ba4      	subs	r4, r4, r6
 8003b98:	eb0e 0484 	add.w	r4, lr, r4, lsl #2
 8003b9c:	eba4 030e 	sub.w	r3, r4, lr
 8003ba0:	109b      	asrs	r3, r3, #2
 8003ba2:	4574      	cmp	r4, lr
 8003ba4:	6103      	str	r3, [r0, #16]
 8003ba6:	d0e7      	beq.n	8003b78 <rshift+0x70>
 8003ba8:	e8bd 81f0 	ldmia.w	sp!, {r4, r5, r6, r7, r8, pc}

08003bac <__gethex>:
 8003bac:	e92d 4ff0 	stmdb	sp!, {r4, r5, r6, r7, r8, r9, sl, fp, lr}
 8003bb0:	4cae      	ldr	r4, [pc, #696]	; (8003e6c <__gethex+0x2c0>)
 8003bb2:	ed2d 8b02 	vpush	{d8}
 8003bb6:	6824      	ldr	r4, [r4, #0]
 8003bb8:	b08b      	sub	sp, #44	; 0x2c
 8003bba:	ee08 0a10 	vmov	s16, r0
 8003bbe:	4620      	mov	r0, r4
 8003bc0:	4689      	mov	r9, r1
 8003bc2:	9203      	str	r2, [sp, #12]
 8003bc4:	9307      	str	r3, [sp, #28]
 8003bc6:	9404      	str	r4, [sp, #16]
 8003bc8:	f7fd fbda 	bl	8001380 <strlen>
 8003bcc:	f8d9 3000 	ldr.w	r3, [r9]
 8003bd0:	1821      	adds	r1, r4, r0
 8003bd2:	4602      	mov	r2, r0
 8003bd4:	f811 bc01 	ldrb.w	fp, [r1, #-1]
 8003bd8:	7899      	ldrb	r1, [r3, #2]
 8003bda:	2930      	cmp	r1, #48	; 0x30
 8003bdc:	f040 81e5 	bne.w	8003faa <__gethex+0x3fe>
 8003be0:	f06f 0001 	mvn.w	r0, #1
 8003be4:	1ac0      	subs	r0, r0, r3
 8003be6:	3303      	adds	r3, #3
 8003be8:	eb00 0a03 	add.w	sl, r0, r3
 8003bec:	461c      	mov	r4, r3
 8003bee:	f813 1b01 	ldrb.w	r1, [r3], #1
 8003bf2:	2930      	cmp	r1, #48	; 0x30
 8003bf4:	d0f8      	beq.n	8003be8 <__gethex+0x3c>
 8003bf6:	f8df 8278 	ldr.w	r8, [pc, #632]	; 8003e70 <__gethex+0x2c4>
 8003bfa:	f818 3001 	ldrb.w	r3, [r8, r1]
 8003bfe:	2b00      	cmp	r3, #0
 8003c00:	f000 80f7 	beq.w	8003df2 <__gethex+0x246>
 8003c04:	7823      	ldrb	r3, [r4, #0]
 8003c06:	2700      	movs	r7, #0
 8003c08:	f818 3003 	ldrb.w	r3, [r8, r3]
 8003c0c:	463d      	mov	r5, r7
 8003c0e:	4626      	mov	r6, r4
 8003c10:	b12b      	cbz	r3, 8003c1e <__gethex+0x72>
 8003c12:	f816 3f01 	ldrb.w	r3, [r6, #1]!
 8003c16:	f818 3003 	ldrb.w	r3, [r8, r3]
 8003c1a:	2b00      	cmp	r3, #0
 8003c1c:	d1f9      	bne.n	8003c12 <__gethex+0x66>
 8003c1e:	9904      	ldr	r1, [sp, #16]
 8003c20:	9202      	str	r2, [sp, #8]
 8003c22:	4630      	mov	r0, r6
 8003c24:	f7fd fc1a 	bl	800145c <strncmp>
 8003c28:	9a02      	ldr	r2, [sp, #8]
 8003c2a:	9001      	str	r0, [sp, #4]
 8003c2c:	2800      	cmp	r0, #0
 8003c2e:	f000 8096 	beq.w	8003d5e <__gethex+0x1b2>
 8003c32:	2d00      	cmp	r5, #0
 8003c34:	f040 8096 	bne.w	8003d64 <__gethex+0x1b8>
 8003c38:	7833      	ldrb	r3, [r6, #0]
 8003c3a:	9501      	str	r5, [sp, #4]
 8003c3c:	f003 03df 	and.w	r3, r3, #223	; 0xdf
 8003c40:	2b50      	cmp	r3, #80	; 0x50
 8003c42:	4635      	mov	r5, r6
 8003c44:	f000 8098 	beq.w	8003d78 <__gethex+0x1cc>
 8003c48:	f8c9 6000 	str.w	r6, [r9]
 8003c4c:	2f00      	cmp	r7, #0
 8003c4e:	f040 80b0 	bne.w	8003db2 <__gethex+0x206>
 8003c52:	1b2b      	subs	r3, r5, r4
 8003c54:	3b01      	subs	r3, #1
 8003c56:	2b07      	cmp	r3, #7
 8003c58:	4639      	mov	r1, r7
 8003c5a:	dd04      	ble.n	8003c66 <__gethex+0xba>
 8003c5c:	105b      	asrs	r3, r3, #1
 8003c5e:	2b07      	cmp	r3, #7
 8003c60:	f101 0101 	add.w	r1, r1, #1
 8003c64:	dcfa      	bgt.n	8003c5c <__gethex+0xb0>
 8003c66:	ee18 0a10 	vmov	r0, s16
 8003c6a:	9205      	str	r2, [sp, #20]
 8003c6c:	f000 fc08 	bl	8004480 <_Balloc>
 8003c70:	9a05      	ldr	r2, [sp, #20]
 8003c72:	9002      	str	r0, [sp, #8]
 8003c74:	2800      	cmp	r0, #0
 8003c76:	f000 8271 	beq.w	800415c <__gethex+0x5b0>
 8003c7a:	9b02      	ldr	r3, [sp, #8]
 8003c7c:	42ac      	cmp	r4, r5
 8003c7e:	f103 0614 	add.w	r6, r3, #20
 8003c82:	9606      	str	r6, [sp, #24]
 8003c84:	f080 81e7 	bcs.w	8004056 <__gethex+0x4aa>
 8003c88:	2700      	movs	r7, #0
 8003c8a:	f1c2 0301 	rsb	r3, r2, #1
 8003c8e:	46b9      	mov	r9, r7
 8003c90:	9305      	str	r3, [sp, #20]
 8003c92:	e010      	b.n	8003cb6 <__gethex+0x10a>
 8003c94:	2f20      	cmp	r7, #32
 8003c96:	f000 8097 	beq.w	8003dc8 <__gethex+0x21c>
 8003c9a:	4639      	mov	r1, r7
 8003c9c:	3704      	adds	r7, #4
 8003c9e:	f815 3c01 	ldrb.w	r3, [r5, #-1]
 8003ca2:	f818 3003 	ldrb.w	r3, [r8, r3]
 8003ca6:	4655      	mov	r5, sl
 8003ca8:	f003 030f 	and.w	r3, r3, #15
 8003cac:	408b      	lsls	r3, r1
 8003cae:	42a5      	cmp	r5, r4
 8003cb0:	ea49 0903 	orr.w	r9, r9, r3
 8003cb4:	d916      	bls.n	8003ce4 <__gethex+0x138>
 8003cb6:	f815 3c01 	ldrb.w	r3, [r5, #-1]
 8003cba:	455b      	cmp	r3, fp
 8003cbc:	f105 3aff 	add.w	sl, r5, #4294967295	; 0xffffffff
 8003cc0:	d1e8      	bne.n	8003c94 <__gethex+0xe8>
 8003cc2:	9b05      	ldr	r3, [sp, #20]
 8003cc4:	4453      	add	r3, sl
 8003cc6:	42a3      	cmp	r3, r4
 8003cc8:	d3e4      	bcc.n	8003c94 <__gethex+0xe8>
 8003cca:	4618      	mov	r0, r3
 8003ccc:	9904      	ldr	r1, [sp, #16]
 8003cce:	9209      	str	r2, [sp, #36]	; 0x24
 8003cd0:	9308      	str	r3, [sp, #32]
 8003cd2:	f7fd fbc3 	bl	800145c <strncmp>
 8003cd6:	e9dd 3208 	ldrd	r3, r2, [sp, #32]
 8003cda:	2800      	cmp	r0, #0
 8003cdc:	d1da      	bne.n	8003c94 <__gethex+0xe8>
 8003cde:	461d      	mov	r5, r3
 8003ce0:	42a5      	cmp	r5, r4
 8003ce2:	d8e8      	bhi.n	8003cb6 <__gethex+0x10a>
 8003ce4:	f846 9b04 	str.w	r9, [r6], #4
 8003ce8:	9b06      	ldr	r3, [sp, #24]
 8003cea:	1af6      	subs	r6, r6, r3
 8003cec:	9b02      	ldr	r3, [sp, #8]
 8003cee:	10b6      	asrs	r6, r6, #2
 8003cf0:	611e      	str	r6, [r3, #16]
 8003cf2:	4648      	mov	r0, r9
 8003cf4:	f000 fcd4 	bl	80046a0 <__hi0bits>
 8003cf8:	9b03      	ldr	r3, [sp, #12]
 8003cfa:	0176      	lsls	r6, r6, #5
 8003cfc:	681c      	ldr	r4, [r3, #0]
 8003cfe:	1a30      	subs	r0, r6, r0
 8003d00:	42a0      	cmp	r0, r4
 8003d02:	f300 80b7 	bgt.w	8003e74 <__gethex+0x2c8>
 8003d06:	f2c0 812f 	blt.w	8003f68 <__gethex+0x3bc>
 8003d0a:	2700      	movs	r7, #0
 8003d0c:	9b03      	ldr	r3, [sp, #12]
 8003d0e:	9a01      	ldr	r2, [sp, #4]
 8003d10:	689b      	ldr	r3, [r3, #8]
 8003d12:	4293      	cmp	r3, r2
 8003d14:	f2c0 8193 	blt.w	800403e <__gethex+0x492>
 8003d18:	9903      	ldr	r1, [sp, #12]
 8003d1a:	9a01      	ldr	r2, [sp, #4]
 8003d1c:	684b      	ldr	r3, [r1, #4]
 8003d1e:	4293      	cmp	r3, r2
 8003d20:	f340 8084 	ble.w	8003e2c <__gethex+0x280>
 8003d24:	1a9d      	subs	r5, r3, r2
 8003d26:	42ac      	cmp	r4, r5
 8003d28:	f300 80c4 	bgt.w	8003eb4 <__gethex+0x308>
 8003d2c:	68ca      	ldr	r2, [r1, #12]
 8003d2e:	2a02      	cmp	r2, #2
 8003d30:	f000 81c6 	beq.w	80040c0 <__gethex+0x514>
 8003d34:	2a03      	cmp	r2, #3
 8003d36:	f000 81be 	beq.w	80040b6 <__gethex+0x50a>
 8003d3a:	2a01      	cmp	r2, #1
 8003d3c:	f000 81a2 	beq.w	8004084 <__gethex+0x4d8>
 8003d40:	ee18 0a10 	vmov	r0, s16
 8003d44:	9902      	ldr	r1, [sp, #8]
 8003d46:	f000 fbdb 	bl	8004500 <_Bfree>
 8003d4a:	2550      	movs	r5, #80	; 0x50
 8003d4c:	9a16      	ldr	r2, [sp, #88]	; 0x58
 8003d4e:	2300      	movs	r3, #0
 8003d50:	4628      	mov	r0, r5
 8003d52:	6013      	str	r3, [r2, #0]
 8003d54:	b00b      	add	sp, #44	; 0x2c
 8003d56:	ecbd 8b02 	vpop	{d8}
 8003d5a:	e8bd 8ff0 	ldmia.w	sp!, {r4, r5, r6, r7, r8, r9, sl, fp, pc}
 8003d5e:	2d00      	cmp	r5, #0
 8003d60:	f000 8111 	beq.w	8003f86 <__gethex+0x3da>
 8003d64:	1bad      	subs	r5, r5, r6
 8003d66:	00ab      	lsls	r3, r5, #2
 8003d68:	9301      	str	r3, [sp, #4]
 8003d6a:	7833      	ldrb	r3, [r6, #0]
 8003d6c:	f003 03df 	and.w	r3, r3, #223	; 0xdf
 8003d70:	2b50      	cmp	r3, #80	; 0x50
 8003d72:	4635      	mov	r5, r6
 8003d74:	f47f af68 	bne.w	8003c48 <__gethex+0x9c>
 8003d78:	786b      	ldrb	r3, [r5, #1]
 8003d7a:	2b2b      	cmp	r3, #43	; 0x2b
 8003d7c:	f000 80f2 	beq.w	8003f64 <__gethex+0x3b8>
 8003d80:	2b2d      	cmp	r3, #45	; 0x2d
 8003d82:	d06e      	beq.n	8003e62 <__gethex+0x2b6>
 8003d84:	1c6e      	adds	r6, r5, #1
 8003d86:	2000      	movs	r0, #0
 8003d88:	f818 1003 	ldrb.w	r1, [r8, r3]
 8003d8c:	1e4b      	subs	r3, r1, #1
 8003d8e:	2b18      	cmp	r3, #24
 8003d90:	d865      	bhi.n	8003e5e <__gethex+0x2b2>
 8003d92:	7873      	ldrb	r3, [r6, #1]
 8003d94:	f818 3003 	ldrb.w	r3, [r8, r3]
 8003d98:	3910      	subs	r1, #16
 8003d9a:	3601      	adds	r6, #1
 8003d9c:	bb33      	cbnz	r3, 8003dec <__gethex+0x240>
 8003d9e:	b100      	cbz	r0, 8003da2 <__gethex+0x1f6>
 8003da0:	4249      	negs	r1, r1
 8003da2:	9b01      	ldr	r3, [sp, #4]
 8003da4:	f8c9 6000 	str.w	r6, [r9]
 8003da8:	440b      	add	r3, r1
 8003daa:	9301      	str	r3, [sp, #4]
 8003dac:	2f00      	cmp	r7, #0
 8003dae:	f43f af50 	beq.w	8003c52 <__gethex+0xa6>
 8003db2:	f1ba 0f00 	cmp.w	sl, #0
 8003db6:	bf14      	ite	ne
 8003db8:	2500      	movne	r5, #0
 8003dba:	2506      	moveq	r5, #6
 8003dbc:	4628      	mov	r0, r5
 8003dbe:	b00b      	add	sp, #44	; 0x2c
 8003dc0:	ecbd 8b02 	vpop	{d8}
 8003dc4:	e8bd 8ff0 	ldmia.w	sp!, {r4, r5, r6, r7, r8, r9, sl, fp, pc}
 8003dc8:	2100      	movs	r1, #0
 8003dca:	f846 9b04 	str.w	r9, [r6], #4
 8003dce:	2704      	movs	r7, #4
 8003dd0:	4689      	mov	r9, r1
 8003dd2:	e764      	b.n	8003c9e <__gethex+0xf2>
 8003dd4:	eb01 0181 	add.w	r1, r1, r1, lsl #2
 8003dd8:	eb03 0341 	add.w	r3, r3, r1, lsl #1
 8003ddc:	f1a3 0110 	sub.w	r1, r3, #16
 8003de0:	f816 3f01 	ldrb.w	r3, [r6, #1]!
 8003de4:	f818 3003 	ldrb.w	r3, [r8, r3]
 8003de8:	2b00      	cmp	r3, #0
 8003dea:	d0d8      	beq.n	8003d9e <__gethex+0x1f2>
 8003dec:	2b19      	cmp	r3, #25
 8003dee:	ddf1      	ble.n	8003dd4 <__gethex+0x228>
 8003df0:	e7d5      	b.n	8003d9e <__gethex+0x1f2>
 8003df2:	9904      	ldr	r1, [sp, #16]
 8003df4:	9201      	str	r2, [sp, #4]
 8003df6:	4620      	mov	r0, r4
 8003df8:	f7fd fb30 	bl	800145c <strncmp>
 8003dfc:	9a01      	ldr	r2, [sp, #4]
 8003dfe:	2800      	cmp	r0, #0
 8003e00:	d176      	bne.n	8003ef0 <__gethex+0x344>
 8003e02:	5ca1      	ldrb	r1, [r4, r2]
 8003e04:	f818 3001 	ldrb.w	r3, [r8, r1]
 8003e08:	18a5      	adds	r5, r4, r2
 8003e0a:	2b00      	cmp	r3, #0
 8003e0c:	d072      	beq.n	8003ef4 <__gethex+0x348>
 8003e0e:	2930      	cmp	r1, #48	; 0x30
 8003e10:	462c      	mov	r4, r5
 8003e12:	d105      	bne.n	8003e20 <__gethex+0x274>
 8003e14:	f814 3f01 	ldrb.w	r3, [r4, #1]!
 8003e18:	2b30      	cmp	r3, #48	; 0x30
 8003e1a:	d0fb      	beq.n	8003e14 <__gethex+0x268>
 8003e1c:	f818 3003 	ldrb.w	r3, [r8, r3]
 8003e20:	fab3 f783 	clz	r7, r3
 8003e24:	097f      	lsrs	r7, r7, #5
 8003e26:	f04f 0a01 	mov.w	sl, #1
 8003e2a:	e6f0      	b.n	8003c0e <__gethex+0x62>
 8003e2c:	2501      	movs	r5, #1
 8003e2e:	b157      	cbz	r7, 8003e46 <__gethex+0x29a>
 8003e30:	9b03      	ldr	r3, [sp, #12]
 8003e32:	68db      	ldr	r3, [r3, #12]
 8003e34:	2b02      	cmp	r3, #2
 8003e36:	d065      	beq.n	8003f04 <__gethex+0x358>
 8003e38:	2b03      	cmp	r3, #3
 8003e3a:	d067      	beq.n	8003f0c <__gethex+0x360>
 8003e3c:	2b01      	cmp	r3, #1
 8003e3e:	f000 8088 	beq.w	8003f52 <__gethex+0x3a6>
 8003e42:	f045 0510 	orr.w	r5, r5, #16
 8003e46:	9b16      	ldr	r3, [sp, #88]	; 0x58
 8003e48:	9a02      	ldr	r2, [sp, #8]
 8003e4a:	601a      	str	r2, [r3, #0]
 8003e4c:	9b07      	ldr	r3, [sp, #28]
 8003e4e:	9a01      	ldr	r2, [sp, #4]
 8003e50:	601a      	str	r2, [r3, #0]
 8003e52:	4628      	mov	r0, r5
 8003e54:	b00b      	add	sp, #44	; 0x2c
 8003e56:	ecbd 8b02 	vpop	{d8}
 8003e5a:	e8bd 8ff0 	ldmia.w	sp!, {r4, r5, r6, r7, r8, r9, sl, fp, pc}
 8003e5e:	462e      	mov	r6, r5
 8003e60:	e6f2      	b.n	8003c48 <__gethex+0x9c>
 8003e62:	2001      	movs	r0, #1
 8003e64:	78ab      	ldrb	r3, [r5, #2]
 8003e66:	1cae      	adds	r6, r5, #2
 8003e68:	e78e      	b.n	8003d88 <__gethex+0x1dc>
 8003e6a:	bf00      	nop
 8003e6c:	08008204 	.word	0x08008204
 8003e70:	08008104 	.word	0x08008104
 8003e74:	9d02      	ldr	r5, [sp, #8]
 8003e76:	1b06      	subs	r6, r0, r4
 8003e78:	4631      	mov	r1, r6
 8003e7a:	4628      	mov	r0, r5
 8003e7c:	f001 f844 	bl	8004f08 <__any_on>
 8003e80:	4607      	mov	r7, r0
 8003e82:	b178      	cbz	r0, 8003ea4 <__gethex+0x2f8>
 8003e84:	1e72      	subs	r2, r6, #1
 8003e86:	1153      	asrs	r3, r2, #5
 8003e88:	9906      	ldr	r1, [sp, #24]
 8003e8a:	2701      	movs	r7, #1
 8003e8c:	f851 1023 	ldr.w	r1, [r1, r3, lsl #2]
 8003e90:	f002 031f 	and.w	r3, r2, #31
 8003e94:	fa07 f303 	lsl.w	r3, r7, r3
 8003e98:	420b      	tst	r3, r1
 8003e9a:	d003      	beq.n	8003ea4 <__gethex+0x2f8>
 8003e9c:	42ba      	cmp	r2, r7
 8003e9e:	f300 80e4 	bgt.w	800406a <__gethex+0x4be>
 8003ea2:	2702      	movs	r7, #2
 8003ea4:	9b01      	ldr	r3, [sp, #4]
 8003ea6:	9802      	ldr	r0, [sp, #8]
 8003ea8:	4433      	add	r3, r6
 8003eaa:	4631      	mov	r1, r6
 8003eac:	9301      	str	r3, [sp, #4]
 8003eae:	f7ff fe2b 	bl	8003b08 <rshift>
 8003eb2:	e72b      	b.n	8003d0c <__gethex+0x160>
 8003eb4:	1e6e      	subs	r6, r5, #1
 8003eb6:	2f00      	cmp	r7, #0
 8003eb8:	f040 80cb 	bne.w	8004052 <__gethex+0x4a6>
 8003ebc:	2e00      	cmp	r6, #0
 8003ebe:	f040 80ce 	bne.w	800405e <__gethex+0x4b2>
 8003ec2:	1173      	asrs	r3, r6, #5
 8003ec4:	9a06      	ldr	r2, [sp, #24]
 8003ec6:	9802      	ldr	r0, [sp, #8]
 8003ec8:	f852 2023 	ldr.w	r2, [r2, r3, lsl #2]
 8003ecc:	f006 061f 	and.w	r6, r6, #31
 8003ed0:	2301      	movs	r3, #1
 8003ed2:	fa03 f606 	lsl.w	r6, r3, r6
 8003ed6:	4216      	tst	r6, r2
 8003ed8:	4629      	mov	r1, r5
 8003eda:	bf18      	it	ne
 8003edc:	f047 0702 	orrne.w	r7, r7, #2
 8003ee0:	f7ff fe12 	bl	8003b08 <rshift>
 8003ee4:	9b03      	ldr	r3, [sp, #12]
 8003ee6:	685b      	ldr	r3, [r3, #4]
 8003ee8:	9301      	str	r3, [sp, #4]
 8003eea:	1b64      	subs	r4, r4, r5
 8003eec:	2502      	movs	r5, #2
 8003eee:	e79e      	b.n	8003e2e <__gethex+0x282>
 8003ef0:	7821      	ldrb	r1, [r4, #0]
 8003ef2:	4625      	mov	r5, r4
 8003ef4:	f001 01df 	and.w	r1, r1, #223	; 0xdf
 8003ef8:	2950      	cmp	r1, #80	; 0x50
 8003efa:	f000 80bf 	beq.w	800407c <__gethex+0x4d0>
 8003efe:	f8c9 5000 	str.w	r5, [r9]
 8003f02:	e756      	b.n	8003db2 <__gethex+0x206>
 8003f04:	9b17      	ldr	r3, [sp, #92]	; 0x5c
 8003f06:	f1c3 0301 	rsb	r3, r3, #1
 8003f0a:	9317      	str	r3, [sp, #92]	; 0x5c
 8003f0c:	9b17      	ldr	r3, [sp, #92]	; 0x5c
 8003f0e:	2b00      	cmp	r3, #0
 8003f10:	d097      	beq.n	8003e42 <__gethex+0x296>
 8003f12:	9b02      	ldr	r3, [sp, #8]
 8003f14:	f8dd 9018 	ldr.w	r9, [sp, #24]
 8003f18:	691e      	ldr	r6, [r3, #16]
 8003f1a:	2100      	movs	r1, #0
 8003f1c:	464b      	mov	r3, r9
 8003f1e:	ea4f 0886 	mov.w	r8, r6, lsl #2
 8003f22:	eb09 0086 	add.w	r0, r9, r6, lsl #2
 8003f26:	e003      	b.n	8003f30 <__gethex+0x384>
 8003f28:	4298      	cmp	r0, r3
 8003f2a:	f843 1c04 	str.w	r1, [r3, #-4]
 8003f2e:	d940      	bls.n	8003fb2 <__gethex+0x406>
 8003f30:	461f      	mov	r7, r3
 8003f32:	f853 2b04 	ldr.w	r2, [r3], #4
 8003f36:	f1b2 3fff 	cmp.w	r2, #4294967295	; 0xffffffff
 8003f3a:	d0f5      	beq.n	8003f28 <__gethex+0x37c>
 8003f3c:	3201      	adds	r2, #1
 8003f3e:	2d02      	cmp	r5, #2
 8003f40:	603a      	str	r2, [r7, #0]
 8003f42:	f000 80c2 	beq.w	80040ca <__gethex+0x51e>
 8003f46:	f014 041f 	ands.w	r4, r4, #31
 8003f4a:	f040 80e1 	bne.w	8004110 <__gethex+0x564>
 8003f4e:	2521      	movs	r5, #33	; 0x21
 8003f50:	e779      	b.n	8003e46 <__gethex+0x29a>
 8003f52:	07ba      	lsls	r2, r7, #30
 8003f54:	f57f af75 	bpl.w	8003e42 <__gethex+0x296>
 8003f58:	9b06      	ldr	r3, [sp, #24]
 8003f5a:	681b      	ldr	r3, [r3, #0]
 8003f5c:	431f      	orrs	r7, r3
 8003f5e:	07fb      	lsls	r3, r7, #31
 8003f60:	d4d7      	bmi.n	8003f12 <__gethex+0x366>
 8003f62:	e76e      	b.n	8003e42 <__gethex+0x296>
 8003f64:	2000      	movs	r0, #0
 8003f66:	e77d      	b.n	8003e64 <__gethex+0x2b8>
 8003f68:	e9dd 3101 	ldrd	r3, r1, [sp, #4]
 8003f6c:	1a22      	subs	r2, r4, r0
 8003f6e:	1a9b      	subs	r3, r3, r2
 8003f70:	ee18 0a10 	vmov	r0, s16
 8003f74:	9301      	str	r3, [sp, #4]
 8003f76:	f000 fd17 	bl	80049a8 <__lshift>
 8003f7a:	4603      	mov	r3, r0
 8003f7c:	3314      	adds	r3, #20
 8003f7e:	9002      	str	r0, [sp, #8]
 8003f80:	9306      	str	r3, [sp, #24]
 8003f82:	2700      	movs	r7, #0
 8003f84:	e6c2      	b.n	8003d0c <__gethex+0x160>
 8003f86:	5cb3      	ldrb	r3, [r6, r2]
 8003f88:	f818 1003 	ldrb.w	r1, [r8, r3]
 8003f8c:	18b0      	adds	r0, r6, r2
 8003f8e:	4606      	mov	r6, r0
 8003f90:	2900      	cmp	r1, #0
 8003f92:	f43f ae53 	beq.w	8003c3c <__gethex+0x90>
 8003f96:	f816 3f01 	ldrb.w	r3, [r6, #1]!
 8003f9a:	f818 1003 	ldrb.w	r1, [r8, r3]
 8003f9e:	2900      	cmp	r1, #0
 8003fa0:	d1f9      	bne.n	8003f96 <__gethex+0x3ea>
 8003fa2:	1b80      	subs	r0, r0, r6
 8003fa4:	0081      	lsls	r1, r0, #2
 8003fa6:	9101      	str	r1, [sp, #4]
 8003fa8:	e648      	b.n	8003c3c <__gethex+0x90>
 8003faa:	1c9c      	adds	r4, r3, #2
 8003fac:	f04f 0a00 	mov.w	sl, #0
 8003fb0:	e621      	b.n	8003bf6 <__gethex+0x4a>
 8003fb2:	9b02      	ldr	r3, [sp, #8]
 8003fb4:	689b      	ldr	r3, [r3, #8]
 8003fb6:	429e      	cmp	r6, r3
 8003fb8:	f280 808e 	bge.w	80040d8 <__gethex+0x52c>
 8003fbc:	4633      	mov	r3, r6
 8003fbe:	9902      	ldr	r1, [sp, #8]
 8003fc0:	eb01 0283 	add.w	r2, r1, r3, lsl #2
 8003fc4:	3301      	adds	r3, #1
 8003fc6:	610b      	str	r3, [r1, #16]
 8003fc8:	2d02      	cmp	r5, #2
 8003fca:	f04f 0101 	mov.w	r1, #1
 8003fce:	6151      	str	r1, [r2, #20]
 8003fd0:	d07b      	beq.n	80040ca <__gethex+0x51e>
 8003fd2:	429e      	cmp	r6, r3
 8003fd4:	dab7      	bge.n	8003f46 <__gethex+0x39a>
 8003fd6:	2b00      	cmp	r3, #0
 8003fd8:	f340 80a7 	ble.w	800412a <__gethex+0x57e>
 8003fdc:	9a02      	ldr	r2, [sp, #8]
 8003fde:	eb09 0383 	add.w	r3, r9, r3, lsl #2
 8003fe2:	6951      	ldr	r1, [r2, #20]
 8003fe4:	f102 0018 	add.w	r0, r2, #24
 8003fe8:	4283      	cmp	r3, r0
 8003fea:	ea4f 0151 	mov.w	r1, r1, lsr #1
 8003fee:	f240 80af 	bls.w	8004150 <__gethex+0x5a4>
 8003ff2:	464c      	mov	r4, r9
 8003ff4:	6802      	ldr	r2, [r0, #0]
 8003ff6:	ea41 71c2 	orr.w	r1, r1, r2, lsl #31
 8003ffa:	f844 1b04 	str.w	r1, [r4], #4
 8003ffe:	f850 1b04 	ldr.w	r1, [r0], #4
 8004002:	4283      	cmp	r3, r0
 8004004:	ea4f 0151 	mov.w	r1, r1, lsr #1
 8004008:	d8f4      	bhi.n	8003ff4 <__gethex+0x448>
 800400a:	9a02      	ldr	r2, [sp, #8]
 800400c:	1a9b      	subs	r3, r3, r2
 800400e:	3b19      	subs	r3, #25
 8004010:	089b      	lsrs	r3, r3, #2
 8004012:	3301      	adds	r3, #1
 8004014:	f849 1023 	str.w	r1, [r9, r3, lsl #2]
 8004018:	eb09 0383 	add.w	r3, r9, r3, lsl #2
 800401c:	2900      	cmp	r1, #0
 800401e:	f040 809b 	bne.w	8004158 <__gethex+0x5ac>
 8004022:	9902      	ldr	r1, [sp, #8]
 8004024:	eba3 0209 	sub.w	r2, r3, r9
 8004028:	1092      	asrs	r2, r2, #2
 800402a:	454b      	cmp	r3, r9
 800402c:	610a      	str	r2, [r1, #16]
 800402e:	d07f      	beq.n	8004130 <__gethex+0x584>
 8004030:	9b03      	ldr	r3, [sp, #12]
 8004032:	9a01      	ldr	r2, [sp, #4]
 8004034:	689b      	ldr	r3, [r3, #8]
 8004036:	3201      	adds	r2, #1
 8004038:	4293      	cmp	r3, r2
 800403a:	9201      	str	r2, [sp, #4]
 800403c:	da87      	bge.n	8003f4e <__gethex+0x3a2>
 800403e:	9902      	ldr	r1, [sp, #8]
 8004040:	ee18 0a10 	vmov	r0, s16
 8004044:	f000 fa5c 	bl	8004500 <_Bfree>
 8004048:	9a16      	ldr	r2, [sp, #88]	; 0x58
 800404a:	2300      	movs	r3, #0
 800404c:	6013      	str	r3, [r2, #0]
 800404e:	25a3      	movs	r5, #163	; 0xa3
 8004050:	e6b4      	b.n	8003dbc <__gethex+0x210>
 8004052:	2701      	movs	r7, #1
 8004054:	e735      	b.n	8003ec2 <__gethex+0x316>
 8004056:	9e06      	ldr	r6, [sp, #24]
 8004058:	f04f 0900 	mov.w	r9, #0
 800405c:	e642      	b.n	8003ce4 <__gethex+0x138>
 800405e:	9802      	ldr	r0, [sp, #8]
 8004060:	4631      	mov	r1, r6
 8004062:	f000 ff51 	bl	8004f08 <__any_on>
 8004066:	4607      	mov	r7, r0
 8004068:	e72b      	b.n	8003ec2 <__gethex+0x316>
 800406a:	1eb1      	subs	r1, r6, #2
 800406c:	4628      	mov	r0, r5
 800406e:	f000 ff4b 	bl	8004f08 <__any_on>
 8004072:	2800      	cmp	r0, #0
 8004074:	f43f af15 	beq.w	8003ea2 <__gethex+0x2f6>
 8004078:	2703      	movs	r7, #3
 800407a:	e713      	b.n	8003ea4 <__gethex+0x2f8>
 800407c:	2300      	movs	r3, #0
 800407e:	9301      	str	r3, [sp, #4]
 8004080:	2701      	movs	r7, #1
 8004082:	e679      	b.n	8003d78 <__gethex+0x1cc>
 8004084:	42ac      	cmp	r4, r5
 8004086:	f47f ae5b 	bne.w	8003d40 <__gethex+0x194>
 800408a:	2c01      	cmp	r4, #1
 800408c:	d008      	beq.n	80040a0 <__gethex+0x4f4>
 800408e:	9802      	ldr	r0, [sp, #8]
 8004090:	1e61      	subs	r1, r4, #1
 8004092:	f000 ff39 	bl	8004f08 <__any_on>
 8004096:	2800      	cmp	r0, #0
 8004098:	f43f ae52 	beq.w	8003d40 <__gethex+0x194>
 800409c:	9b03      	ldr	r3, [sp, #12]
 800409e:	685b      	ldr	r3, [r3, #4]
 80040a0:	9907      	ldr	r1, [sp, #28]
 80040a2:	600b      	str	r3, [r1, #0]
 80040a4:	9b02      	ldr	r3, [sp, #8]
 80040a6:	9906      	ldr	r1, [sp, #24]
 80040a8:	2201      	movs	r2, #1
 80040aa:	611a      	str	r2, [r3, #16]
 80040ac:	600a      	str	r2, [r1, #0]
 80040ae:	9a16      	ldr	r2, [sp, #88]	; 0x58
 80040b0:	2562      	movs	r5, #98	; 0x62
 80040b2:	6013      	str	r3, [r2, #0]
 80040b4:	e682      	b.n	8003dbc <__gethex+0x210>
 80040b6:	9a17      	ldr	r2, [sp, #92]	; 0x5c
 80040b8:	2a00      	cmp	r2, #0
 80040ba:	f43f ae41 	beq.w	8003d40 <__gethex+0x194>
 80040be:	e7ef      	b.n	80040a0 <__gethex+0x4f4>
 80040c0:	9a17      	ldr	r2, [sp, #92]	; 0x5c
 80040c2:	2a00      	cmp	r2, #0
 80040c4:	f47f ae3c 	bne.w	8003d40 <__gethex+0x194>
 80040c8:	e7ea      	b.n	80040a0 <__gethex+0x4f4>
 80040ca:	9b03      	ldr	r3, [sp, #12]
 80040cc:	681b      	ldr	r3, [r3, #0]
 80040ce:	3b01      	subs	r3, #1
 80040d0:	42a3      	cmp	r3, r4
 80040d2:	d031      	beq.n	8004138 <__gethex+0x58c>
 80040d4:	2522      	movs	r5, #34	; 0x22
 80040d6:	e6b6      	b.n	8003e46 <__gethex+0x29a>
 80040d8:	9b02      	ldr	r3, [sp, #8]
 80040da:	6859      	ldr	r1, [r3, #4]
 80040dc:	ee18 0a10 	vmov	r0, s16
 80040e0:	3101      	adds	r1, #1
 80040e2:	f000 f9cd 	bl	8004480 <_Balloc>
 80040e6:	4607      	mov	r7, r0
 80040e8:	2800      	cmp	r0, #0
 80040ea:	d03d      	beq.n	8004168 <__gethex+0x5bc>
 80040ec:	9902      	ldr	r1, [sp, #8]
 80040ee:	690b      	ldr	r3, [r1, #16]
 80040f0:	3302      	adds	r3, #2
 80040f2:	009a      	lsls	r2, r3, #2
 80040f4:	310c      	adds	r1, #12
 80040f6:	300c      	adds	r0, #12
 80040f8:	f7fb ffe6 	bl	80000c8 <memcpy>
 80040fc:	9902      	ldr	r1, [sp, #8]
 80040fe:	ee18 0a10 	vmov	r0, s16
 8004102:	f000 f9fd 	bl	8004500 <_Bfree>
 8004106:	f107 0914 	add.w	r9, r7, #20
 800410a:	693b      	ldr	r3, [r7, #16]
 800410c:	9702      	str	r7, [sp, #8]
 800410e:	e756      	b.n	8003fbe <__gethex+0x412>
 8004110:	44c8      	add	r8, r9
 8004112:	f1c4 0420 	rsb	r4, r4, #32
 8004116:	f858 0c04 	ldr.w	r0, [r8, #-4]
 800411a:	f000 fac1 	bl	80046a0 <__hi0bits>
 800411e:	42a0      	cmp	r0, r4
 8004120:	f6bf af15 	bge.w	8003f4e <__gethex+0x3a2>
 8004124:	9b02      	ldr	r3, [sp, #8]
 8004126:	691b      	ldr	r3, [r3, #16]
 8004128:	e755      	b.n	8003fd6 <__gethex+0x42a>
 800412a:	9a02      	ldr	r2, [sp, #8]
 800412c:	2300      	movs	r3, #0
 800412e:	6113      	str	r3, [r2, #16]
 8004130:	9a02      	ldr	r2, [sp, #8]
 8004132:	2300      	movs	r3, #0
 8004134:	6153      	str	r3, [r2, #20]
 8004136:	e77b      	b.n	8004030 <__gethex+0x484>
 8004138:	1163      	asrs	r3, r4, #5
 800413a:	f004 041f 	and.w	r4, r4, #31
 800413e:	f859 2023 	ldr.w	r2, [r9, r3, lsl #2]
 8004142:	2301      	movs	r3, #1
 8004144:	40a3      	lsls	r3, r4
 8004146:	4213      	tst	r3, r2
 8004148:	bf0c      	ite	eq
 800414a:	2522      	moveq	r5, #34	; 0x22
 800414c:	2521      	movne	r5, #33	; 0x21
 800414e:	e67a      	b.n	8003e46 <__gethex+0x29a>
 8004150:	f8c9 1000 	str.w	r1, [r9]
 8004154:	464b      	mov	r3, r9
 8004156:	b169      	cbz	r1, 8004174 <__gethex+0x5c8>
 8004158:	3304      	adds	r3, #4
 800415a:	e762      	b.n	8004022 <__gethex+0x476>
 800415c:	4b07      	ldr	r3, [pc, #28]	; (800417c <__gethex+0x5d0>)
 800415e:	4808      	ldr	r0, [pc, #32]	; (8004180 <__gethex+0x5d4>)
 8004160:	9a02      	ldr	r2, [sp, #8]
 8004162:	21de      	movs	r1, #222	; 0xde
 8004164:	f001 fe04 	bl	8005d70 <__assert_func>
 8004168:	4b04      	ldr	r3, [pc, #16]	; (800417c <__gethex+0x5d0>)
 800416a:	4805      	ldr	r0, [pc, #20]	; (8004180 <__gethex+0x5d4>)
 800416c:	463a      	mov	r2, r7
 800416e:	2184      	movs	r1, #132	; 0x84
 8004170:	f001 fdfe 	bl	8005d70 <__assert_func>
 8004174:	9b02      	ldr	r3, [sp, #8]
 8004176:	6119      	str	r1, [r3, #16]
 8004178:	e7da      	b.n	8004130 <__gethex+0x584>
 800417a:	bf00      	nop
 800417c:	080083e8 	.word	0x080083e8
 8004180:	080083fc 	.word	0x080083fc

08004184 <__match>:
 8004184:	b410      	push	{r4}
 8004186:	6804      	ldr	r4, [r0, #0]
 8004188:	e009      	b.n	800419e <__match+0x1a>
 800418a:	f814 3f01 	ldrb.w	r3, [r4, #1]!
 800418e:	f1a3 0c41 	sub.w	ip, r3, #65	; 0x41
 8004192:	f1bc 0f19 	cmp.w	ip, #25
 8004196:	bf98      	it	ls
 8004198:	3320      	addls	r3, #32
 800419a:	4293      	cmp	r3, r2
 800419c:	d109      	bne.n	80041b2 <__match+0x2e>
 800419e:	f811 2b01 	ldrb.w	r2, [r1], #1
 80041a2:	2a00      	cmp	r2, #0
 80041a4:	d1f1      	bne.n	800418a <__match+0x6>
 80041a6:	3401      	adds	r4, #1
 80041a8:	6004      	str	r4, [r0, #0]
 80041aa:	2001      	movs	r0, #1
 80041ac:	f85d 4b04 	ldr.w	r4, [sp], #4
 80041b0:	4770      	bx	lr
 80041b2:	2000      	movs	r0, #0
 80041b4:	f85d 4b04 	ldr.w	r4, [sp], #4
 80041b8:	4770      	bx	lr
 80041ba:	bf00      	nop

080041bc <__hexnan>:
 80041bc:	e92d 4ff0 	stmdb	sp!, {r4, r5, r6, r7, r8, r9, sl, fp, lr}
 80041c0:	6809      	ldr	r1, [r1, #0]
 80041c2:	b085      	sub	sp, #20
 80041c4:	114b      	asrs	r3, r1, #5
 80041c6:	f011 011f 	ands.w	r1, r1, #31
 80041ca:	9002      	str	r0, [sp, #8]
 80041cc:	eb02 0383 	add.w	r3, r2, r3, lsl #2
 80041d0:	9103      	str	r1, [sp, #12]
 80041d2:	f040 808e 	bne.w	80042f2 <__hexnan+0x136>
 80041d6:	1f1d      	subs	r5, r3, #4
 80041d8:	9301      	str	r3, [sp, #4]
 80041da:	9b02      	ldr	r3, [sp, #8]
 80041dc:	9901      	ldr	r1, [sp, #4]
 80041de:	681c      	ldr	r4, [r3, #0]
 80041e0:	2300      	movs	r3, #0
 80041e2:	f841 3c04 	str.w	r3, [r1, #-4]
 80041e6:	7861      	ldrb	r1, [r4, #1]
 80041e8:	3401      	adds	r4, #1
 80041ea:	2900      	cmp	r1, #0
 80041ec:	f000 8097 	beq.w	800431e <__hexnan+0x162>
 80041f0:	f8df 9170 	ldr.w	r9, [pc, #368]	; 8004364 <__hexnan+0x1a8>
 80041f4:	46a8      	mov	r8, r5
 80041f6:	46ac      	mov	ip, r5
 80041f8:	469a      	mov	sl, r3
 80041fa:	461e      	mov	r6, r3
 80041fc:	e00e      	b.n	800421c <__hexnan+0x60>
 80041fe:	2920      	cmp	r1, #32
 8004200:	f200 808b 	bhi.w	800431a <__hexnan+0x15e>
 8004204:	45b2      	cmp	sl, r6
 8004206:	da06      	bge.n	8004216 <__hexnan+0x5a>
 8004208:	45c4      	cmp	ip, r8
 800420a:	d201      	bcs.n	8004210 <__hexnan+0x54>
 800420c:	2b07      	cmp	r3, #7
 800420e:	dd5b      	ble.n	80042c8 <__hexnan+0x10c>
 8004210:	4562      	cmp	r2, ip
 8004212:	d351      	bcc.n	80042b8 <__hexnan+0xfc>
 8004214:	2308      	movs	r3, #8
 8004216:	f814 1f01 	ldrb.w	r1, [r4, #1]!
 800421a:	b1a1      	cbz	r1, 8004246 <__hexnan+0x8a>
 800421c:	f819 0001 	ldrb.w	r0, [r9, r1]
 8004220:	2800      	cmp	r0, #0
 8004222:	d0ec      	beq.n	80041fe <__hexnan+0x42>
 8004224:	3301      	adds	r3, #1
 8004226:	2b08      	cmp	r3, #8
 8004228:	f106 0601 	add.w	r6, r6, #1
 800422c:	dc3a      	bgt.n	80042a4 <__hexnan+0xe8>
 800422e:	f8dc 1000 	ldr.w	r1, [ip]
 8004232:	0109      	lsls	r1, r1, #4
 8004234:	f000 000f 	and.w	r0, r0, #15
 8004238:	4308      	orrs	r0, r1
 800423a:	f8cc 0000 	str.w	r0, [ip]
 800423e:	f814 1f01 	ldrb.w	r1, [r4, #1]!
 8004242:	2900      	cmp	r1, #0
 8004244:	d1ea      	bne.n	800421c <__hexnan+0x60>
 8004246:	2e00      	cmp	r6, #0
 8004248:	d069      	beq.n	800431e <__hexnan+0x162>
 800424a:	45e0      	cmp	r8, ip
 800424c:	d901      	bls.n	8004252 <__hexnan+0x96>
 800424e:	2b07      	cmp	r3, #7
 8004250:	dd73      	ble.n	800433a <__hexnan+0x17e>
 8004252:	4562      	cmp	r2, ip
 8004254:	d251      	bcs.n	80042fa <__hexnan+0x13e>
 8004256:	1f11      	subs	r1, r2, #4
 8004258:	4663      	mov	r3, ip
 800425a:	f853 0b04 	ldr.w	r0, [r3], #4
 800425e:	f841 0f04 	str.w	r0, [r1, #4]!
 8004262:	429d      	cmp	r5, r3
 8004264:	d2f9      	bcs.n	800425a <__hexnan+0x9e>
 8004266:	eba5 030c 	sub.w	r3, r5, ip
 800426a:	f023 0303 	bic.w	r3, r3, #3
 800426e:	1c69      	adds	r1, r5, #1
 8004270:	3304      	adds	r3, #4
 8004272:	f10c 0c01 	add.w	ip, ip, #1
 8004276:	4561      	cmp	r1, ip
 8004278:	bf38      	it	cc
 800427a:	2304      	movcc	r3, #4
 800427c:	4413      	add	r3, r2
 800427e:	2100      	movs	r1, #0
 8004280:	f843 1b04 	str.w	r1, [r3], #4
 8004284:	429d      	cmp	r5, r3
 8004286:	d2fb      	bcs.n	8004280 <__hexnan+0xc4>
 8004288:	9b01      	ldr	r3, [sp, #4]
 800428a:	f853 3c04 	ldr.w	r3, [r3, #-4]
 800428e:	b92b      	cbnz	r3, 800429c <__hexnan+0xe0>
 8004290:	42aa      	cmp	r2, r5
 8004292:	d048      	beq.n	8004326 <__hexnan+0x16a>
 8004294:	f855 3d04 	ldr.w	r3, [r5, #-4]!
 8004298:	2b00      	cmp	r3, #0
 800429a:	d0f9      	beq.n	8004290 <__hexnan+0xd4>
 800429c:	2005      	movs	r0, #5
 800429e:	b005      	add	sp, #20
 80042a0:	e8bd 8ff0 	ldmia.w	sp!, {r4, r5, r6, r7, r8, r9, sl, fp, pc}
 80042a4:	4562      	cmp	r2, ip
 80042a6:	d2b6      	bcs.n	8004216 <__hexnan+0x5a>
 80042a8:	2300      	movs	r3, #0
 80042aa:	f84c 3c04 	str.w	r3, [ip, #-4]
 80042ae:	4619      	mov	r1, r3
 80042b0:	f1ac 0c04 	sub.w	ip, ip, #4
 80042b4:	2301      	movs	r3, #1
 80042b6:	e7bd      	b.n	8004234 <__hexnan+0x78>
 80042b8:	2300      	movs	r3, #0
 80042ba:	f1ac 0804 	sub.w	r8, ip, #4
 80042be:	f84c 3c04 	str.w	r3, [ip, #-4]
 80042c2:	46b2      	mov	sl, r6
 80042c4:	46c4      	mov	ip, r8
 80042c6:	e7a6      	b.n	8004216 <__hexnan+0x5a>
 80042c8:	f1c3 0108 	rsb	r1, r3, #8
 80042cc:	0089      	lsls	r1, r1, #2
 80042ce:	f8dc 3000 	ldr.w	r3, [ip]
 80042d2:	f1c1 0e20 	rsb	lr, r1, #32
 80042d6:	4660      	mov	r0, ip
 80042d8:	468b      	mov	fp, r1
 80042da:	6841      	ldr	r1, [r0, #4]
 80042dc:	fa01 f70e 	lsl.w	r7, r1, lr
 80042e0:	433b      	orrs	r3, r7
 80042e2:	6003      	str	r3, [r0, #0]
 80042e4:	fa21 f30b 	lsr.w	r3, r1, fp
 80042e8:	f840 3f04 	str.w	r3, [r0, #4]!
 80042ec:	4540      	cmp	r0, r8
 80042ee:	d3f4      	bcc.n	80042da <__hexnan+0x11e>
 80042f0:	e78e      	b.n	8004210 <__hexnan+0x54>
 80042f2:	1d19      	adds	r1, r3, #4
 80042f4:	9101      	str	r1, [sp, #4]
 80042f6:	461d      	mov	r5, r3
 80042f8:	e76f      	b.n	80041da <__hexnan+0x1e>
 80042fa:	9b03      	ldr	r3, [sp, #12]
 80042fc:	2b00      	cmp	r3, #0
 80042fe:	d0c3      	beq.n	8004288 <__hexnan+0xcc>
 8004300:	9b03      	ldr	r3, [sp, #12]
 8004302:	9801      	ldr	r0, [sp, #4]
 8004304:	f1c3 0120 	rsb	r1, r3, #32
 8004308:	f04f 33ff 	mov.w	r3, #4294967295	; 0xffffffff
 800430c:	40cb      	lsrs	r3, r1
 800430e:	f850 1c04 	ldr.w	r1, [r0, #-4]
 8004312:	400b      	ands	r3, r1
 8004314:	f840 3c04 	str.w	r3, [r0, #-4]
 8004318:	e7b9      	b.n	800428e <__hexnan+0xd2>
 800431a:	2929      	cmp	r1, #41	; 0x29
 800431c:	d009      	beq.n	8004332 <__hexnan+0x176>
 800431e:	2004      	movs	r0, #4
 8004320:	b005      	add	sp, #20
 8004322:	e8bd 8ff0 	ldmia.w	sp!, {r4, r5, r6, r7, r8, r9, sl, fp, pc}
 8004326:	2301      	movs	r3, #1
 8004328:	2005      	movs	r0, #5
 800432a:	602b      	str	r3, [r5, #0]
 800432c:	b005      	add	sp, #20
 800432e:	e8bd 8ff0 	ldmia.w	sp!, {r4, r5, r6, r7, r8, r9, sl, fp, pc}
 8004332:	9902      	ldr	r1, [sp, #8]
 8004334:	3401      	adds	r4, #1
 8004336:	600c      	str	r4, [r1, #0]
 8004338:	e785      	b.n	8004246 <__hexnan+0x8a>
 800433a:	f1c3 0308 	rsb	r3, r3, #8
 800433e:	009b      	lsls	r3, r3, #2
 8004340:	f8dc 1000 	ldr.w	r1, [ip]
 8004344:	f1c3 0720 	rsb	r7, r3, #32
 8004348:	4664      	mov	r4, ip
 800434a:	6866      	ldr	r6, [r4, #4]
 800434c:	fa06 f007 	lsl.w	r0, r6, r7
 8004350:	4301      	orrs	r1, r0
 8004352:	6021      	str	r1, [r4, #0]
 8004354:	fa26 f103 	lsr.w	r1, r6, r3
 8004358:	f844 1f04 	str.w	r1, [r4, #4]!
 800435c:	45a0      	cmp	r8, r4
 800435e:	d8f4      	bhi.n	800434a <__hexnan+0x18e>
 8004360:	e777      	b.n	8004252 <__hexnan+0x96>
 8004362:	bf00      	nop
 8004364:	08008104 	.word	0x08008104

08004368 <__localeconv_l>:
 8004368:	30f0      	adds	r0, #240	; 0xf0
 800436a:	4770      	bx	lr

0800436c <_localeconv_r>:
 800436c:	4800      	ldr	r0, [pc, #0]	; (8004370 <_localeconv_r+0x4>)
 800436e:	4770      	bx	lr
 8004370:	20000158 	.word	0x20000158

08004374 <localeconv>:
 8004374:	4800      	ldr	r0, [pc, #0]	; (8004378 <localeconv+0x4>)
 8004376:	4770      	bx	lr
 8004378:	20000158 	.word	0x20000158

0800437c <malloc>:
 800437c:	4b02      	ldr	r3, [pc, #8]	; (8004388 <malloc+0xc>)
 800437e:	4601      	mov	r1, r0
 8004380:	6818      	ldr	r0, [r3, #0]
 8004382:	f000 be63 	b.w	800504c <_malloc_r>
 8004386:	bf00      	nop
 8004388:	20000000 	.word	0x20000000

0800438c <free>:
 800438c:	4b02      	ldr	r3, [pc, #8]	; (8004398 <free+0xc>)
 800438e:	4601      	mov	r1, r0
 8004390:	6818      	ldr	r0, [r3, #0]
 8004392:	f000 bdf9 	b.w	8004f88 <_free_r>
 8004396:	bf00      	nop
 8004398:	20000000 	.word	0x20000000

0800439c <_mbtowc_r>:
 800439c:	b410      	push	{r4}
 800439e:	4c03      	ldr	r4, [pc, #12]	; (80043ac <_mbtowc_r+0x10>)
 80043a0:	f8d4 40e4 	ldr.w	r4, [r4, #228]	; 0xe4
 80043a4:	46a4      	mov	ip, r4
 80043a6:	f85d 4b04 	ldr.w	r4, [sp], #4
 80043aa:	4760      	bx	ip
 80043ac:	20000068 	.word	0x20000068

080043b0 <__ascii_mbtowc>:
 80043b0:	b082      	sub	sp, #8
 80043b2:	b149      	cbz	r1, 80043c8 <__ascii_mbtowc+0x18>
 80043b4:	b15a      	cbz	r2, 80043ce <__ascii_mbtowc+0x1e>
 80043b6:	b16b      	cbz	r3, 80043d4 <__ascii_mbtowc+0x24>
 80043b8:	7813      	ldrb	r3, [r2, #0]
 80043ba:	600b      	str	r3, [r1, #0]
 80043bc:	7812      	ldrb	r2, [r2, #0]
 80043be:	1e10      	subs	r0, r2, #0
 80043c0:	bf18      	it	ne
 80043c2:	2001      	movne	r0, #1
 80043c4:	b002      	add	sp, #8
 80043c6:	4770      	bx	lr
 80043c8:	a901      	add	r1, sp, #4
 80043ca:	2a00      	cmp	r2, #0
 80043cc:	d1f3      	bne.n	80043b6 <__ascii_mbtowc+0x6>
 80043ce:	4610      	mov	r0, r2
 80043d0:	b002      	add	sp, #8
 80043d2:	4770      	bx	lr
 80043d4:	f06f 0001 	mvn.w	r0, #1
 80043d8:	e7f4      	b.n	80043c4 <__ascii_mbtowc+0x14>
 80043da:	bf00      	nop
 80043dc:	0000      	movs	r0, r0
	...

080043e0 <memchr>:
 80043e0:	f001 01ff 	and.w	r1, r1, #255	; 0xff
 80043e4:	2a10      	cmp	r2, #16
 80043e6:	db2b      	blt.n	8004440 <memchr+0x60>
 80043e8:	f010 0f07 	tst.w	r0, #7
 80043ec:	d008      	beq.n	8004400 <memchr+0x20>
 80043ee:	f810 3b01 	ldrb.w	r3, [r0], #1
 80043f2:	3a01      	subs	r2, #1
 80043f4:	428b      	cmp	r3, r1
 80043f6:	d02d      	beq.n	8004454 <memchr+0x74>
 80043f8:	f010 0f07 	tst.w	r0, #7
 80043fc:	b342      	cbz	r2, 8004450 <memchr+0x70>
 80043fe:	d1f6      	bne.n	80043ee <memchr+0xe>
 8004400:	b4f0      	push	{r4, r5, r6, r7}
 8004402:	ea41 2101 	orr.w	r1, r1, r1, lsl #8
 8004406:	ea41 4101 	orr.w	r1, r1, r1, lsl #16
 800440a:	f022 0407 	bic.w	r4, r2, #7
 800440e:	f07f 0700 	mvns.w	r7, #0
 8004412:	2300      	movs	r3, #0
 8004414:	e8f0 5602 	ldrd	r5, r6, [r0], #8
 8004418:	3c08      	subs	r4, #8
 800441a:	ea85 0501 	eor.w	r5, r5, r1
 800441e:	ea86 0601 	eor.w	r6, r6, r1
 8004422:	fa85 f547 	uadd8	r5, r5, r7
 8004426:	faa3 f587 	sel	r5, r3, r7
 800442a:	fa86 f647 	uadd8	r6, r6, r7
 800442e:	faa5 f687 	sel	r6, r5, r7
 8004432:	b98e      	cbnz	r6, 8004458 <memchr+0x78>
 8004434:	d1ee      	bne.n	8004414 <memchr+0x34>
 8004436:	bcf0      	pop	{r4, r5, r6, r7}
 8004438:	f001 01ff 	and.w	r1, r1, #255	; 0xff
 800443c:	f002 0207 	and.w	r2, r2, #7
 8004440:	b132      	cbz	r2, 8004450 <memchr+0x70>
 8004442:	f810 3b01 	ldrb.w	r3, [r0], #1
 8004446:	3a01      	subs	r2, #1
 8004448:	ea83 0301 	eor.w	r3, r3, r1
 800444c:	b113      	cbz	r3, 8004454 <memchr+0x74>
 800444e:	d1f8      	bne.n	8004442 <memchr+0x62>
 8004450:	2000      	movs	r0, #0
 8004452:	4770      	bx	lr
 8004454:	3801      	subs	r0, #1
 8004456:	4770      	bx	lr
 8004458:	2d00      	cmp	r5, #0
 800445a:	bf06      	itte	eq
 800445c:	4635      	moveq	r5, r6
 800445e:	3803      	subeq	r0, #3
 8004460:	3807      	subne	r0, #7
 8004462:	f015 0f01 	tst.w	r5, #1
 8004466:	d107      	bne.n	8004478 <memchr+0x98>
 8004468:	3001      	adds	r0, #1
 800446a:	f415 7f80 	tst.w	r5, #256	; 0x100
 800446e:	bf02      	ittt	eq
 8004470:	3001      	addeq	r0, #1
 8004472:	f415 3fc0 	tsteq.w	r5, #98304	; 0x18000
 8004476:	3001      	addeq	r0, #1
 8004478:	bcf0      	pop	{r4, r5, r6, r7}
 800447a:	3801      	subs	r0, #1
 800447c:	4770      	bx	lr
 800447e:	bf00      	nop

08004480 <_Balloc>:
 8004480:	b570      	push	{r4, r5, r6, lr}
 8004482:	6a46      	ldr	r6, [r0, #36]	; 0x24
 8004484:	4605      	mov	r5, r0
 8004486:	460c      	mov	r4, r1
 8004488:	b15e      	cbz	r6, 80044a2 <_Balloc+0x22>
 800448a:	68f3      	ldr	r3, [r6, #12]
 800448c:	b1a3      	cbz	r3, 80044b8 <_Balloc+0x38>
 800448e:	f853 0024 	ldr.w	r0, [r3, r4, lsl #2]
 8004492:	b1e8      	cbz	r0, 80044d0 <_Balloc+0x50>
 8004494:	6802      	ldr	r2, [r0, #0]
 8004496:	f843 2024 	str.w	r2, [r3, r4, lsl #2]
 800449a:	2300      	movs	r3, #0
 800449c:	e9c0 3303 	strd	r3, r3, [r0, #12]
 80044a0:	bd70      	pop	{r4, r5, r6, pc}
 80044a2:	2010      	movs	r0, #16
 80044a4:	f7ff ff6a 	bl	800437c <malloc>
 80044a8:	4606      	mov	r6, r0
 80044aa:	6268      	str	r0, [r5, #36]	; 0x24
 80044ac:	b1e8      	cbz	r0, 80044ea <_Balloc+0x6a>
 80044ae:	2300      	movs	r3, #0
 80044b0:	e9c0 3301 	strd	r3, r3, [r0, #4]
 80044b4:	6003      	str	r3, [r0, #0]
 80044b6:	60c3      	str	r3, [r0, #12]
 80044b8:	2221      	movs	r2, #33	; 0x21
 80044ba:	2104      	movs	r1, #4
 80044bc:	4628      	mov	r0, r5
 80044be:	f000 fd55 	bl	8004f6c <_calloc_r>
 80044c2:	6a6b      	ldr	r3, [r5, #36]	; 0x24
 80044c4:	60f0      	str	r0, [r6, #12]
 80044c6:	68db      	ldr	r3, [r3, #12]
 80044c8:	2b00      	cmp	r3, #0
 80044ca:	d1e0      	bne.n	800448e <_Balloc+0xe>
 80044cc:	2000      	movs	r0, #0
 80044ce:	bd70      	pop	{r4, r5, r6, pc}
 80044d0:	2101      	movs	r1, #1
 80044d2:	fa01 f604 	lsl.w	r6, r1, r4
 80044d6:	1d72      	adds	r2, r6, #5
 80044d8:	0092      	lsls	r2, r2, #2
 80044da:	4628      	mov	r0, r5
 80044dc:	f000 fd46 	bl	8004f6c <_calloc_r>
 80044e0:	2800      	cmp	r0, #0
 80044e2:	d0f3      	beq.n	80044cc <_Balloc+0x4c>
 80044e4:	e9c0 4601 	strd	r4, r6, [r0, #4]
 80044e8:	e7d7      	b.n	800449a <_Balloc+0x1a>
 80044ea:	4b03      	ldr	r3, [pc, #12]	; (80044f8 <_Balloc+0x78>)
 80044ec:	4803      	ldr	r0, [pc, #12]	; (80044fc <_Balloc+0x7c>)
 80044ee:	4632      	mov	r2, r6
 80044f0:	2166      	movs	r1, #102	; 0x66
 80044f2:	f001 fc3d 	bl	8005d70 <__assert_func>
 80044f6:	bf00      	nop
 80044f8:	0800839c 	.word	0x0800839c
 80044fc:	08008448 	.word	0x08008448

08004500 <_Bfree>:
 8004500:	b570      	push	{r4, r5, r6, lr}
 8004502:	6a45      	ldr	r5, [r0, #36]	; 0x24
 8004504:	4604      	mov	r4, r0
 8004506:	460e      	mov	r6, r1
 8004508:	b14d      	cbz	r5, 800451e <_Bfree+0x1e>
 800450a:	b13e      	cbz	r6, 800451c <_Bfree+0x1c>
 800450c:	6a63      	ldr	r3, [r4, #36]	; 0x24
 800450e:	6872      	ldr	r2, [r6, #4]
 8004510:	68db      	ldr	r3, [r3, #12]
 8004512:	f853 0022 	ldr.w	r0, [r3, r2, lsl #2]
 8004516:	6030      	str	r0, [r6, #0]
 8004518:	f843 6022 	str.w	r6, [r3, r2, lsl #2]
 800451c:	bd70      	pop	{r4, r5, r6, pc}
 800451e:	2010      	movs	r0, #16
 8004520:	f7ff ff2c 	bl	800437c <malloc>
 8004524:	4602      	mov	r2, r0
 8004526:	6260      	str	r0, [r4, #36]	; 0x24
 8004528:	b120      	cbz	r0, 8004534 <_Bfree+0x34>
 800452a:	e9c0 5501 	strd	r5, r5, [r0, #4]
 800452e:	6005      	str	r5, [r0, #0]
 8004530:	60c5      	str	r5, [r0, #12]
 8004532:	e7ea      	b.n	800450a <_Bfree+0xa>
 8004534:	4b02      	ldr	r3, [pc, #8]	; (8004540 <_Bfree+0x40>)
 8004536:	4803      	ldr	r0, [pc, #12]	; (8004544 <_Bfree+0x44>)
 8004538:	218a      	movs	r1, #138	; 0x8a
 800453a:	f001 fc19 	bl	8005d70 <__assert_func>
 800453e:	bf00      	nop
 8004540:	0800839c 	.word	0x0800839c
 8004544:	08008448 	.word	0x08008448

08004548 <__multadd>:
 8004548:	b5f0      	push	{r4, r5, r6, r7, lr}
 800454a:	690c      	ldr	r4, [r1, #16]
 800454c:	4606      	mov	r6, r0
 800454e:	b083      	sub	sp, #12
 8004550:	460d      	mov	r5, r1
 8004552:	f101 0e14 	add.w	lr, r1, #20
 8004556:	2000      	movs	r0, #0
 8004558:	f8de 1000 	ldr.w	r1, [lr]
 800455c:	fa1f fc81 	uxth.w	ip, r1
 8004560:	fb02 330c 	mla	r3, r2, ip, r3
 8004564:	ea4f 4c13 	mov.w	ip, r3, lsr #16
 8004568:	0c09      	lsrs	r1, r1, #16
 800456a:	fb02 cc01 	mla	ip, r2, r1, ip
 800456e:	3001      	adds	r0, #1
 8004570:	b29b      	uxth	r3, r3
 8004572:	eb03 430c 	add.w	r3, r3, ip, lsl #16
 8004576:	4284      	cmp	r4, r0
 8004578:	f84e 3b04 	str.w	r3, [lr], #4
 800457c:	ea4f 431c 	mov.w	r3, ip, lsr #16
 8004580:	dcea      	bgt.n	8004558 <__multadd+0x10>
 8004582:	b13b      	cbz	r3, 8004594 <__multadd+0x4c>
 8004584:	68aa      	ldr	r2, [r5, #8]
 8004586:	42a2      	cmp	r2, r4
 8004588:	dd07      	ble.n	800459a <__multadd+0x52>
 800458a:	eb05 0284 	add.w	r2, r5, r4, lsl #2
 800458e:	3401      	adds	r4, #1
 8004590:	6153      	str	r3, [r2, #20]
 8004592:	612c      	str	r4, [r5, #16]
 8004594:	4628      	mov	r0, r5
 8004596:	b003      	add	sp, #12
 8004598:	bdf0      	pop	{r4, r5, r6, r7, pc}
 800459a:	6869      	ldr	r1, [r5, #4]
 800459c:	9301      	str	r3, [sp, #4]
 800459e:	3101      	adds	r1, #1
 80045a0:	4630      	mov	r0, r6
 80045a2:	f7ff ff6d 	bl	8004480 <_Balloc>
 80045a6:	9b01      	ldr	r3, [sp, #4]
 80045a8:	4607      	mov	r7, r0
 80045aa:	b1a0      	cbz	r0, 80045d6 <__multadd+0x8e>
 80045ac:	692a      	ldr	r2, [r5, #16]
 80045ae:	9301      	str	r3, [sp, #4]
 80045b0:	3202      	adds	r2, #2
 80045b2:	0092      	lsls	r2, r2, #2
 80045b4:	f105 010c 	add.w	r1, r5, #12
 80045b8:	300c      	adds	r0, #12
 80045ba:	f7fb fd85 	bl	80000c8 <memcpy>
 80045be:	4629      	mov	r1, r5
 80045c0:	4630      	mov	r0, r6
 80045c2:	463d      	mov	r5, r7
 80045c4:	f7ff ff9c 	bl	8004500 <_Bfree>
 80045c8:	eb05 0284 	add.w	r2, r5, r4, lsl #2
 80045cc:	9b01      	ldr	r3, [sp, #4]
 80045ce:	6153      	str	r3, [r2, #20]
 80045d0:	3401      	adds	r4, #1
 80045d2:	612c      	str	r4, [r5, #16]
 80045d4:	e7de      	b.n	8004594 <__multadd+0x4c>
 80045d6:	4b03      	ldr	r3, [pc, #12]	; (80045e4 <__multadd+0x9c>)
 80045d8:	4803      	ldr	r0, [pc, #12]	; (80045e8 <__multadd+0xa0>)
 80045da:	463a      	mov	r2, r7
 80045dc:	21b5      	movs	r1, #181	; 0xb5
 80045de:	f001 fbc7 	bl	8005d70 <__assert_func>
 80045e2:	bf00      	nop
 80045e4:	080083e8 	.word	0x080083e8
 80045e8:	08008448 	.word	0x08008448

080045ec <__s2b>:
 80045ec:	e92d 43f8 	stmdb	sp!, {r3, r4, r5, r6, r7, r8, r9, lr}
 80045f0:	460c      	mov	r4, r1
 80045f2:	4928      	ldr	r1, [pc, #160]	; (8004694 <__s2b+0xa8>)
 80045f4:	461f      	mov	r7, r3
 80045f6:	4616      	mov	r6, r2
 80045f8:	f103 0208 	add.w	r2, r3, #8
 80045fc:	fb81 3102 	smull	r3, r1, r1, r2
 8004600:	2f09      	cmp	r7, #9
 8004602:	ea4f 73e2 	mov.w	r3, r2, asr #31
 8004606:	4605      	mov	r5, r0
 8004608:	ebc3 0361 	rsb	r3, r3, r1, asr #1
 800460c:	dd39      	ble.n	8004682 <__s2b+0x96>
 800460e:	f04f 0c01 	mov.w	ip, #1
 8004612:	2100      	movs	r1, #0
 8004614:	ea4f 0c4c 	mov.w	ip, ip, lsl #1
 8004618:	4563      	cmp	r3, ip
 800461a:	f101 0101 	add.w	r1, r1, #1
 800461e:	dcf9      	bgt.n	8004614 <__s2b+0x28>
 8004620:	4628      	mov	r0, r5
 8004622:	f7ff ff2d 	bl	8004480 <_Balloc>
 8004626:	4601      	mov	r1, r0
 8004628:	b368      	cbz	r0, 8004686 <__s2b+0x9a>
 800462a:	9b08      	ldr	r3, [sp, #32]
 800462c:	6143      	str	r3, [r0, #20]
 800462e:	2e09      	cmp	r6, #9
 8004630:	f04f 0301 	mov.w	r3, #1
 8004634:	6103      	str	r3, [r0, #16]
 8004636:	dc12      	bgt.n	800465e <__s2b+0x72>
 8004638:	340a      	adds	r4, #10
 800463a:	2609      	movs	r6, #9
 800463c:	42b7      	cmp	r7, r6
 800463e:	dd0b      	ble.n	8004658 <__s2b+0x6c>
 8004640:	1bbe      	subs	r6, r7, r6
 8004642:	4426      	add	r6, r4
 8004644:	f814 3b01 	ldrb.w	r3, [r4], #1
 8004648:	220a      	movs	r2, #10
 800464a:	3b30      	subs	r3, #48	; 0x30
 800464c:	4628      	mov	r0, r5
 800464e:	f7ff ff7b 	bl	8004548 <__multadd>
 8004652:	42a6      	cmp	r6, r4
 8004654:	4601      	mov	r1, r0
 8004656:	d1f5      	bne.n	8004644 <__s2b+0x58>
 8004658:	4608      	mov	r0, r1
 800465a:	e8bd 83f8 	ldmia.w	sp!, {r3, r4, r5, r6, r7, r8, r9, pc}
 800465e:	f104 0909 	add.w	r9, r4, #9
 8004662:	46c8      	mov	r8, r9
 8004664:	4434      	add	r4, r6
 8004666:	f818 3b01 	ldrb.w	r3, [r8], #1
 800466a:	220a      	movs	r2, #10
 800466c:	3b30      	subs	r3, #48	; 0x30
 800466e:	4628      	mov	r0, r5
 8004670:	f7ff ff6a 	bl	8004548 <__multadd>
 8004674:	45a0      	cmp	r8, r4
 8004676:	4601      	mov	r1, r0
 8004678:	d1f5      	bne.n	8004666 <__s2b+0x7a>
 800467a:	f1a6 0408 	sub.w	r4, r6, #8
 800467e:	444c      	add	r4, r9
 8004680:	e7dc      	b.n	800463c <__s2b+0x50>
 8004682:	2100      	movs	r1, #0
 8004684:	e7cc      	b.n	8004620 <__s2b+0x34>
 8004686:	460a      	mov	r2, r1
 8004688:	4b03      	ldr	r3, [pc, #12]	; (8004698 <__s2b+0xac>)
 800468a:	4804      	ldr	r0, [pc, #16]	; (800469c <__s2b+0xb0>)
 800468c:	21ce      	movs	r1, #206	; 0xce
 800468e:	f001 fb6f 	bl	8005d70 <__assert_func>
 8004692:	bf00      	nop
 8004694:	38e38e39 	.word	0x38e38e39
 8004698:	080083e8 	.word	0x080083e8
 800469c:	08008448 	.word	0x08008448

080046a0 <__hi0bits>:
 80046a0:	0c03      	lsrs	r3, r0, #16
 80046a2:	041b      	lsls	r3, r3, #16
 80046a4:	b9d3      	cbnz	r3, 80046dc <__hi0bits+0x3c>
 80046a6:	0400      	lsls	r0, r0, #16
 80046a8:	2310      	movs	r3, #16
 80046aa:	f010 4f7f 	tst.w	r0, #4278190080	; 0xff000000
 80046ae:	bf04      	itt	eq
 80046b0:	0200      	lsleq	r0, r0, #8
 80046b2:	3308      	addeq	r3, #8
 80046b4:	f010 4f70 	tst.w	r0, #4026531840	; 0xf0000000
 80046b8:	bf04      	itt	eq
 80046ba:	0100      	lsleq	r0, r0, #4
 80046bc:	3304      	addeq	r3, #4
 80046be:	f010 4f40 	tst.w	r0, #3221225472	; 0xc0000000
 80046c2:	bf04      	itt	eq
 80046c4:	0080      	lsleq	r0, r0, #2
 80046c6:	3302      	addeq	r3, #2
 80046c8:	2800      	cmp	r0, #0
 80046ca:	db05      	blt.n	80046d8 <__hi0bits+0x38>
 80046cc:	f010 4f80 	tst.w	r0, #1073741824	; 0x40000000
 80046d0:	f103 0301 	add.w	r3, r3, #1
 80046d4:	bf08      	it	eq
 80046d6:	2320      	moveq	r3, #32
 80046d8:	4618      	mov	r0, r3
 80046da:	4770      	bx	lr
 80046dc:	2300      	movs	r3, #0
 80046de:	e7e4      	b.n	80046aa <__hi0bits+0xa>

080046e0 <__lo0bits>:
 80046e0:	6803      	ldr	r3, [r0, #0]
 80046e2:	f013 0207 	ands.w	r2, r3, #7
 80046e6:	4601      	mov	r1, r0
 80046e8:	d007      	beq.n	80046fa <__lo0bits+0x1a>
 80046ea:	07da      	lsls	r2, r3, #31
 80046ec:	d41f      	bmi.n	800472e <__lo0bits+0x4e>
 80046ee:	0798      	lsls	r0, r3, #30
 80046f0:	d521      	bpl.n	8004736 <__lo0bits+0x56>
 80046f2:	085b      	lsrs	r3, r3, #1
 80046f4:	600b      	str	r3, [r1, #0]
 80046f6:	2001      	movs	r0, #1
 80046f8:	4770      	bx	lr
 80046fa:	b298      	uxth	r0, r3
 80046fc:	b1a0      	cbz	r0, 8004728 <__lo0bits+0x48>
 80046fe:	4610      	mov	r0, r2
 8004700:	b2da      	uxtb	r2, r3
 8004702:	b90a      	cbnz	r2, 8004708 <__lo0bits+0x28>
 8004704:	3008      	adds	r0, #8
 8004706:	0a1b      	lsrs	r3, r3, #8
 8004708:	071a      	lsls	r2, r3, #28
 800470a:	bf04      	itt	eq
 800470c:	091b      	lsreq	r3, r3, #4
 800470e:	3004      	addeq	r0, #4
 8004710:	079a      	lsls	r2, r3, #30
 8004712:	bf04      	itt	eq
 8004714:	089b      	lsreq	r3, r3, #2
 8004716:	3002      	addeq	r0, #2
 8004718:	07da      	lsls	r2, r3, #31
 800471a:	d403      	bmi.n	8004724 <__lo0bits+0x44>
 800471c:	085b      	lsrs	r3, r3, #1
 800471e:	f100 0001 	add.w	r0, r0, #1
 8004722:	d006      	beq.n	8004732 <__lo0bits+0x52>
 8004724:	600b      	str	r3, [r1, #0]
 8004726:	4770      	bx	lr
 8004728:	0c1b      	lsrs	r3, r3, #16
 800472a:	2010      	movs	r0, #16
 800472c:	e7e8      	b.n	8004700 <__lo0bits+0x20>
 800472e:	2000      	movs	r0, #0
 8004730:	4770      	bx	lr
 8004732:	2020      	movs	r0, #32
 8004734:	4770      	bx	lr
 8004736:	089b      	lsrs	r3, r3, #2
 8004738:	600b      	str	r3, [r1, #0]
 800473a:	2002      	movs	r0, #2
 800473c:	4770      	bx	lr
 800473e:	bf00      	nop

08004740 <__i2b>:
 8004740:	b510      	push	{r4, lr}
 8004742:	460c      	mov	r4, r1
 8004744:	2101      	movs	r1, #1
 8004746:	f7ff fe9b 	bl	8004480 <_Balloc>
 800474a:	4602      	mov	r2, r0
 800474c:	b118      	cbz	r0, 8004756 <__i2b+0x16>
 800474e:	2301      	movs	r3, #1
 8004750:	e9c0 3404 	strd	r3, r4, [r0, #16]
 8004754:	bd10      	pop	{r4, pc}
 8004756:	4b03      	ldr	r3, [pc, #12]	; (8004764 <__i2b+0x24>)
 8004758:	4803      	ldr	r0, [pc, #12]	; (8004768 <__i2b+0x28>)
 800475a:	f44f 71a0 	mov.w	r1, #320	; 0x140
 800475e:	f001 fb07 	bl	8005d70 <__assert_func>
 8004762:	bf00      	nop
 8004764:	080083e8 	.word	0x080083e8
 8004768:	08008448 	.word	0x08008448

0800476c <__multiply>:
 800476c:	e92d 4ff0 	stmdb	sp!, {r4, r5, r6, r7, r8, r9, sl, fp, lr}
 8004770:	690e      	ldr	r6, [r1, #16]
 8004772:	6915      	ldr	r5, [r2, #16]
 8004774:	42ae      	cmp	r6, r5
 8004776:	b085      	sub	sp, #20
 8004778:	4688      	mov	r8, r1
 800477a:	4614      	mov	r4, r2
 800477c:	db05      	blt.n	800478a <__multiply+0x1e>
 800477e:	462a      	mov	r2, r5
 8004780:	4623      	mov	r3, r4
 8004782:	4635      	mov	r5, r6
 8004784:	460c      	mov	r4, r1
 8004786:	4616      	mov	r6, r2
 8004788:	4698      	mov	r8, r3
 800478a:	68a3      	ldr	r3, [r4, #8]
 800478c:	6861      	ldr	r1, [r4, #4]
 800478e:	19af      	adds	r7, r5, r6
 8004790:	42bb      	cmp	r3, r7
 8004792:	bfb8      	it	lt
 8004794:	3101      	addlt	r1, #1
 8004796:	f7ff fe73 	bl	8004480 <_Balloc>
 800479a:	9001      	str	r0, [sp, #4]
 800479c:	2800      	cmp	r0, #0
 800479e:	f000 8087 	beq.w	80048b0 <__multiply+0x144>
 80047a2:	9b01      	ldr	r3, [sp, #4]
 80047a4:	f103 0914 	add.w	r9, r3, #20
 80047a8:	eb09 0a87 	add.w	sl, r9, r7, lsl #2
 80047ac:	45d1      	cmp	r9, sl
 80047ae:	d205      	bcs.n	80047bc <__multiply+0x50>
 80047b0:	464b      	mov	r3, r9
 80047b2:	2200      	movs	r2, #0
 80047b4:	f843 2b04 	str.w	r2, [r3], #4
 80047b8:	459a      	cmp	sl, r3
 80047ba:	d8fb      	bhi.n	80047b4 <__multiply+0x48>
 80047bc:	f108 0814 	add.w	r8, r8, #20
 80047c0:	eb08 0b86 	add.w	fp, r8, r6, lsl #2
 80047c4:	f104 0314 	add.w	r3, r4, #20
 80047c8:	45d8      	cmp	r8, fp
 80047ca:	461a      	mov	r2, r3
 80047cc:	eb03 0585 	add.w	r5, r3, r5, lsl #2
 80047d0:	d25f      	bcs.n	8004892 <__multiply+0x126>
 80047d2:	1b2b      	subs	r3, r5, r4
 80047d4:	3b15      	subs	r3, #21
 80047d6:	f023 0303 	bic.w	r3, r3, #3
 80047da:	3304      	adds	r3, #4
 80047dc:	3415      	adds	r4, #21
 80047de:	42a5      	cmp	r5, r4
 80047e0:	bf38      	it	cc
 80047e2:	2304      	movcc	r3, #4
 80047e4:	e9cd a702 	strd	sl, r7, [sp, #8]
 80047e8:	46ac      	mov	ip, r5
 80047ea:	461f      	mov	r7, r3
 80047ec:	4692      	mov	sl, r2
 80047ee:	e005      	b.n	80047fc <__multiply+0x90>
 80047f0:	0c00      	lsrs	r0, r0, #16
 80047f2:	d129      	bne.n	8004848 <__multiply+0xdc>
 80047f4:	45c3      	cmp	fp, r8
 80047f6:	f109 0904 	add.w	r9, r9, #4
 80047fa:	d948      	bls.n	800488e <__multiply+0x122>
 80047fc:	f858 0b04 	ldr.w	r0, [r8], #4
 8004800:	b285      	uxth	r5, r0
 8004802:	2d00      	cmp	r5, #0
 8004804:	d0f4      	beq.n	80047f0 <__multiply+0x84>
 8004806:	4656      	mov	r6, sl
 8004808:	464c      	mov	r4, r9
 800480a:	2300      	movs	r3, #0
 800480c:	f856 0b04 	ldr.w	r0, [r6], #4
 8004810:	6821      	ldr	r1, [r4, #0]
 8004812:	b282      	uxth	r2, r0
 8004814:	fa1f fe81 	uxth.w	lr, r1
 8004818:	fb05 ee02 	mla	lr, r5, r2, lr
 800481c:	0c00      	lsrs	r0, r0, #16
 800481e:	0c0a      	lsrs	r2, r1, #16
 8004820:	4473      	add	r3, lr
 8004822:	fb05 2200 	mla	r2, r5, r0, r2
 8004826:	eb02 4213 	add.w	r2, r2, r3, lsr #16
 800482a:	b29b      	uxth	r3, r3
 800482c:	ea43 4302 	orr.w	r3, r3, r2, lsl #16
 8004830:	45b4      	cmp	ip, r6
 8004832:	f844 3b04 	str.w	r3, [r4], #4
 8004836:	ea4f 4312 	mov.w	r3, r2, lsr #16
 800483a:	d8e7      	bhi.n	800480c <__multiply+0xa0>
 800483c:	f849 3007 	str.w	r3, [r9, r7]
 8004840:	f858 0c04 	ldr.w	r0, [r8, #-4]
 8004844:	0c00      	lsrs	r0, r0, #16
 8004846:	d0d5      	beq.n	80047f4 <__multiply+0x88>
 8004848:	f8d9 3000 	ldr.w	r3, [r9]
 800484c:	4654      	mov	r4, sl
 800484e:	4619      	mov	r1, r3
 8004850:	464d      	mov	r5, r9
 8004852:	2200      	movs	r2, #0
 8004854:	8826      	ldrh	r6, [r4, #0]
 8004856:	0c09      	lsrs	r1, r1, #16
 8004858:	fb00 1106 	mla	r1, r0, r6, r1
 800485c:	440a      	add	r2, r1
 800485e:	b29b      	uxth	r3, r3
 8004860:	ea43 4302 	orr.w	r3, r3, r2, lsl #16
 8004864:	f845 3b04 	str.w	r3, [r5], #4
 8004868:	f854 6b04 	ldr.w	r6, [r4], #4
 800486c:	6829      	ldr	r1, [r5, #0]
 800486e:	0c36      	lsrs	r6, r6, #16
 8004870:	b28b      	uxth	r3, r1
 8004872:	fb00 3306 	mla	r3, r0, r6, r3
 8004876:	eb03 4312 	add.w	r3, r3, r2, lsr #16
 800487a:	45a4      	cmp	ip, r4
 800487c:	ea4f 4213 	mov.w	r2, r3, lsr #16
 8004880:	d8e8      	bhi.n	8004854 <__multiply+0xe8>
 8004882:	45c3      	cmp	fp, r8
 8004884:	f849 3007 	str.w	r3, [r9, r7]
 8004888:	f109 0904 	add.w	r9, r9, #4
 800488c:	d8b6      	bhi.n	80047fc <__multiply+0x90>
 800488e:	e9dd a702 	ldrd	sl, r7, [sp, #8]
 8004892:	2f00      	cmp	r7, #0
 8004894:	dc02      	bgt.n	800489c <__multiply+0x130>
 8004896:	e005      	b.n	80048a4 <__multiply+0x138>
 8004898:	3f01      	subs	r7, #1
 800489a:	d003      	beq.n	80048a4 <__multiply+0x138>
 800489c:	f85a 3d04 	ldr.w	r3, [sl, #-4]!
 80048a0:	2b00      	cmp	r3, #0
 80048a2:	d0f9      	beq.n	8004898 <__multiply+0x12c>
 80048a4:	9b01      	ldr	r3, [sp, #4]
 80048a6:	4618      	mov	r0, r3
 80048a8:	611f      	str	r7, [r3, #16]
 80048aa:	b005      	add	sp, #20
 80048ac:	e8bd 8ff0 	ldmia.w	sp!, {r4, r5, r6, r7, r8, r9, sl, fp, pc}
 80048b0:	4b03      	ldr	r3, [pc, #12]	; (80048c0 <__multiply+0x154>)
 80048b2:	4804      	ldr	r0, [pc, #16]	; (80048c4 <__multiply+0x158>)
 80048b4:	9a01      	ldr	r2, [sp, #4]
 80048b6:	f240 115d 	movw	r1, #349	; 0x15d
 80048ba:	f001 fa59 	bl	8005d70 <__assert_func>
 80048be:	bf00      	nop
 80048c0:	080083e8 	.word	0x080083e8
 80048c4:	08008448 	.word	0x08008448

080048c8 <__pow5mult>:
 80048c8:	e92d 41f0 	stmdb	sp!, {r4, r5, r6, r7, r8, lr}
 80048cc:	f012 0303 	ands.w	r3, r2, #3
 80048d0:	b082      	sub	sp, #8
 80048d2:	4614      	mov	r4, r2
 80048d4:	4607      	mov	r7, r0
 80048d6:	d12d      	bne.n	8004934 <__pow5mult+0x6c>
 80048d8:	460e      	mov	r6, r1
 80048da:	10a4      	asrs	r4, r4, #2
 80048dc:	d01c      	beq.n	8004918 <__pow5mult+0x50>
 80048de:	6a7a      	ldr	r2, [r7, #36]	; 0x24
 80048e0:	b38a      	cbz	r2, 8004946 <__pow5mult+0x7e>
 80048e2:	6895      	ldr	r5, [r2, #8]
 80048e4:	2d00      	cmp	r5, #0
 80048e6:	d039      	beq.n	800495c <__pow5mult+0x94>
 80048e8:	07e3      	lsls	r3, r4, #31
 80048ea:	f04f 0800 	mov.w	r8, #0
 80048ee:	d406      	bmi.n	80048fe <__pow5mult+0x36>
 80048f0:	1064      	asrs	r4, r4, #1
 80048f2:	d011      	beq.n	8004918 <__pow5mult+0x50>
 80048f4:	6828      	ldr	r0, [r5, #0]
 80048f6:	b198      	cbz	r0, 8004920 <__pow5mult+0x58>
 80048f8:	4605      	mov	r5, r0
 80048fa:	07e3      	lsls	r3, r4, #31
 80048fc:	d5f8      	bpl.n	80048f0 <__pow5mult+0x28>
 80048fe:	4631      	mov	r1, r6
 8004900:	462a      	mov	r2, r5
 8004902:	4638      	mov	r0, r7
 8004904:	f7ff ff32 	bl	800476c <__multiply>
 8004908:	4631      	mov	r1, r6
 800490a:	4603      	mov	r3, r0
 800490c:	4638      	mov	r0, r7
 800490e:	461e      	mov	r6, r3
 8004910:	f7ff fdf6 	bl	8004500 <_Bfree>
 8004914:	1064      	asrs	r4, r4, #1
 8004916:	d1ed      	bne.n	80048f4 <__pow5mult+0x2c>
 8004918:	4630      	mov	r0, r6
 800491a:	b002      	add	sp, #8
 800491c:	e8bd 81f0 	ldmia.w	sp!, {r4, r5, r6, r7, r8, pc}
 8004920:	462a      	mov	r2, r5
 8004922:	4629      	mov	r1, r5
 8004924:	4638      	mov	r0, r7
 8004926:	f7ff ff21 	bl	800476c <__multiply>
 800492a:	6028      	str	r0, [r5, #0]
 800492c:	f8c0 8000 	str.w	r8, [r0]
 8004930:	4605      	mov	r5, r0
 8004932:	e7e2      	b.n	80048fa <__pow5mult+0x32>
 8004934:	3b01      	subs	r3, #1
 8004936:	4a18      	ldr	r2, [pc, #96]	; (8004998 <__pow5mult+0xd0>)
 8004938:	f852 2023 	ldr.w	r2, [r2, r3, lsl #2]
 800493c:	2300      	movs	r3, #0
 800493e:	f7ff fe03 	bl	8004548 <__multadd>
 8004942:	4606      	mov	r6, r0
 8004944:	e7c9      	b.n	80048da <__pow5mult+0x12>
 8004946:	2010      	movs	r0, #16
 8004948:	f7ff fd18 	bl	800437c <malloc>
 800494c:	4602      	mov	r2, r0
 800494e:	6278      	str	r0, [r7, #36]	; 0x24
 8004950:	b1e0      	cbz	r0, 800498c <__pow5mult+0xc4>
 8004952:	2300      	movs	r3, #0
 8004954:	e9c0 3301 	strd	r3, r3, [r0, #4]
 8004958:	6003      	str	r3, [r0, #0]
 800495a:	60c3      	str	r3, [r0, #12]
 800495c:	2101      	movs	r1, #1
 800495e:	4638      	mov	r0, r7
 8004960:	9201      	str	r2, [sp, #4]
 8004962:	f7ff fd8d 	bl	8004480 <_Balloc>
 8004966:	9a01      	ldr	r2, [sp, #4]
 8004968:	4605      	mov	r5, r0
 800496a:	b140      	cbz	r0, 800497e <__pow5mult+0xb6>
 800496c:	2301      	movs	r3, #1
 800496e:	f240 2171 	movw	r1, #625	; 0x271
 8004972:	e9c0 3104 	strd	r3, r1, [r0, #16]
 8004976:	2300      	movs	r3, #0
 8004978:	6090      	str	r0, [r2, #8]
 800497a:	6003      	str	r3, [r0, #0]
 800497c:	e7b4      	b.n	80048e8 <__pow5mult+0x20>
 800497e:	4b07      	ldr	r3, [pc, #28]	; (800499c <__pow5mult+0xd4>)
 8004980:	4807      	ldr	r0, [pc, #28]	; (80049a0 <__pow5mult+0xd8>)
 8004982:	462a      	mov	r2, r5
 8004984:	f44f 71a0 	mov.w	r1, #320	; 0x140
 8004988:	f001 f9f2 	bl	8005d70 <__assert_func>
 800498c:	4b05      	ldr	r3, [pc, #20]	; (80049a4 <__pow5mult+0xdc>)
 800498e:	4804      	ldr	r0, [pc, #16]	; (80049a0 <__pow5mult+0xd8>)
 8004990:	f44f 71d7 	mov.w	r1, #430	; 0x1ae
 8004994:	f001 f9ec 	bl	8005d70 <__assert_func>
 8004998:	08008210 	.word	0x08008210
 800499c:	080083e8 	.word	0x080083e8
 80049a0:	08008448 	.word	0x08008448
 80049a4:	0800839c 	.word	0x0800839c

080049a8 <__lshift>:
 80049a8:	e92d 47f0 	stmdb	sp!, {r4, r5, r6, r7, r8, r9, sl, lr}
 80049ac:	460d      	mov	r5, r1
 80049ae:	4691      	mov	r9, r2
 80049b0:	692f      	ldr	r7, [r5, #16]
 80049b2:	68ab      	ldr	r3, [r5, #8]
 80049b4:	6849      	ldr	r1, [r1, #4]
 80049b6:	eb07 1762 	add.w	r7, r7, r2, asr #5
 80049ba:	1c7c      	adds	r4, r7, #1
 80049bc:	429c      	cmp	r4, r3
 80049be:	4680      	mov	r8, r0
 80049c0:	ea4f 1a62 	mov.w	sl, r2, asr #5
 80049c4:	dd04      	ble.n	80049d0 <__lshift+0x28>
 80049c6:	005b      	lsls	r3, r3, #1
 80049c8:	429c      	cmp	r4, r3
 80049ca:	f101 0101 	add.w	r1, r1, #1
 80049ce:	dcfa      	bgt.n	80049c6 <__lshift+0x1e>
 80049d0:	4640      	mov	r0, r8
 80049d2:	f7ff fd55 	bl	8004480 <_Balloc>
 80049d6:	4606      	mov	r6, r0
 80049d8:	2800      	cmp	r0, #0
 80049da:	d04d      	beq.n	8004a78 <__lshift+0xd0>
 80049dc:	f1ba 0f00 	cmp.w	sl, #0
 80049e0:	f100 0014 	add.w	r0, r0, #20
 80049e4:	dd0e      	ble.n	8004a04 <__lshift+0x5c>
 80049e6:	f10a 0205 	add.w	r2, sl, #5
 80049ea:	ea4f 0c82 	mov.w	ip, r2, lsl #2
 80049ee:	4603      	mov	r3, r0
 80049f0:	eb06 0282 	add.w	r2, r6, r2, lsl #2
 80049f4:	2100      	movs	r1, #0
 80049f6:	f843 1b04 	str.w	r1, [r3], #4
 80049fa:	4293      	cmp	r3, r2
 80049fc:	d1fb      	bne.n	80049f6 <__lshift+0x4e>
 80049fe:	f1ac 0314 	sub.w	r3, ip, #20
 8004a02:	4418      	add	r0, r3
 8004a04:	6929      	ldr	r1, [r5, #16]
 8004a06:	f105 0314 	add.w	r3, r5, #20
 8004a0a:	f019 091f 	ands.w	r9, r9, #31
 8004a0e:	eb03 0181 	add.w	r1, r3, r1, lsl #2
 8004a12:	d029      	beq.n	8004a68 <__lshift+0xc0>
 8004a14:	f1c9 0e20 	rsb	lr, r9, #32
 8004a18:	4684      	mov	ip, r0
 8004a1a:	f04f 0a00 	mov.w	sl, #0
 8004a1e:	681a      	ldr	r2, [r3, #0]
 8004a20:	fa02 f209 	lsl.w	r2, r2, r9
 8004a24:	ea42 020a 	orr.w	r2, r2, sl
 8004a28:	f84c 2b04 	str.w	r2, [ip], #4
 8004a2c:	f853 2b04 	ldr.w	r2, [r3], #4
 8004a30:	4299      	cmp	r1, r3
 8004a32:	fa22 fa0e 	lsr.w	sl, r2, lr
 8004a36:	d8f2      	bhi.n	8004a1e <__lshift+0x76>
 8004a38:	1b4b      	subs	r3, r1, r5
 8004a3a:	3b15      	subs	r3, #21
 8004a3c:	f023 0303 	bic.w	r3, r3, #3
 8004a40:	3304      	adds	r3, #4
 8004a42:	f105 0215 	add.w	r2, r5, #21
 8004a46:	4291      	cmp	r1, r2
 8004a48:	bf38      	it	cc
 8004a4a:	2304      	movcc	r3, #4
 8004a4c:	f1ba 0f00 	cmp.w	sl, #0
 8004a50:	bf18      	it	ne
 8004a52:	4627      	movne	r7, r4
 8004a54:	f840 a003 	str.w	sl, [r0, r3]
 8004a58:	4640      	mov	r0, r8
 8004a5a:	6137      	str	r7, [r6, #16]
 8004a5c:	4629      	mov	r1, r5
 8004a5e:	f7ff fd4f 	bl	8004500 <_Bfree>
 8004a62:	4630      	mov	r0, r6
 8004a64:	e8bd 87f0 	ldmia.w	sp!, {r4, r5, r6, r7, r8, r9, sl, pc}
 8004a68:	3804      	subs	r0, #4
 8004a6a:	f853 2b04 	ldr.w	r2, [r3], #4
 8004a6e:	f840 2f04 	str.w	r2, [r0, #4]!
 8004a72:	4299      	cmp	r1, r3
 8004a74:	d8f9      	bhi.n	8004a6a <__lshift+0xc2>
 8004a76:	e7ef      	b.n	8004a58 <__lshift+0xb0>
 8004a78:	4b03      	ldr	r3, [pc, #12]	; (8004a88 <__lshift+0xe0>)
 8004a7a:	4804      	ldr	r0, [pc, #16]	; (8004a8c <__lshift+0xe4>)
 8004a7c:	4632      	mov	r2, r6
 8004a7e:	f240 11d9 	movw	r1, #473	; 0x1d9
 8004a82:	f001 f975 	bl	8005d70 <__assert_func>
 8004a86:	bf00      	nop
 8004a88:	080083e8 	.word	0x080083e8
 8004a8c:	08008448 	.word	0x08008448

08004a90 <__mcmp>:
 8004a90:	690b      	ldr	r3, [r1, #16]
 8004a92:	4684      	mov	ip, r0
 8004a94:	6900      	ldr	r0, [r0, #16]
 8004a96:	1ac0      	subs	r0, r0, r3
 8004a98:	d116      	bne.n	8004ac8 <__mcmp+0x38>
 8004a9a:	f10c 0c14 	add.w	ip, ip, #20
 8004a9e:	3114      	adds	r1, #20
 8004aa0:	eb0c 0283 	add.w	r2, ip, r3, lsl #2
 8004aa4:	b410      	push	{r4}
 8004aa6:	eb01 0383 	add.w	r3, r1, r3, lsl #2
 8004aaa:	e001      	b.n	8004ab0 <__mcmp+0x20>
 8004aac:	4594      	cmp	ip, r2
 8004aae:	d208      	bcs.n	8004ac2 <__mcmp+0x32>
 8004ab0:	f852 4d04 	ldr.w	r4, [r2, #-4]!
 8004ab4:	f853 1d04 	ldr.w	r1, [r3, #-4]!
 8004ab8:	428c      	cmp	r4, r1
 8004aba:	d0f7      	beq.n	8004aac <__mcmp+0x1c>
 8004abc:	d205      	bcs.n	8004aca <__mcmp+0x3a>
 8004abe:	f04f 30ff 	mov.w	r0, #4294967295	; 0xffffffff
 8004ac2:	f85d 4b04 	ldr.w	r4, [sp], #4
 8004ac6:	4770      	bx	lr
 8004ac8:	4770      	bx	lr
 8004aca:	2001      	movs	r0, #1
 8004acc:	f85d 4b04 	ldr.w	r4, [sp], #4
 8004ad0:	4770      	bx	lr
 8004ad2:	bf00      	nop

08004ad4 <__mdiff>:
 8004ad4:	e92d 4ff8 	stmdb	sp!, {r3, r4, r5, r6, r7, r8, r9, sl, fp, lr}
 8004ad8:	690f      	ldr	r7, [r1, #16]
 8004ada:	6913      	ldr	r3, [r2, #16]
 8004adc:	1aff      	subs	r7, r7, r3
 8004ade:	2f00      	cmp	r7, #0
 8004ae0:	460e      	mov	r6, r1
 8004ae2:	4690      	mov	r8, r2
 8004ae4:	d17a      	bne.n	8004bdc <__mdiff+0x108>
 8004ae6:	f101 0514 	add.w	r5, r1, #20
 8004aea:	3214      	adds	r2, #20
 8004aec:	eb02 0283 	add.w	r2, r2, r3, lsl #2
 8004af0:	eb05 0383 	add.w	r3, r5, r3, lsl #2
 8004af4:	e001      	b.n	8004afa <__mdiff+0x26>
 8004af6:	429d      	cmp	r5, r3
 8004af8:	d273      	bcs.n	8004be2 <__mdiff+0x10e>
 8004afa:	f853 1d04 	ldr.w	r1, [r3, #-4]!
 8004afe:	f852 4d04 	ldr.w	r4, [r2, #-4]!
 8004b02:	42a1      	cmp	r1, r4
 8004b04:	d0f7      	beq.n	8004af6 <__mdiff+0x22>
 8004b06:	d364      	bcc.n	8004bd2 <__mdiff+0xfe>
 8004b08:	6871      	ldr	r1, [r6, #4]
 8004b0a:	f7ff fcb9 	bl	8004480 <_Balloc>
 8004b0e:	4681      	mov	r9, r0
 8004b10:	2800      	cmp	r0, #0
 8004b12:	d072      	beq.n	8004bfa <__mdiff+0x126>
 8004b14:	6935      	ldr	r5, [r6, #16]
 8004b16:	f8d8 2010 	ldr.w	r2, [r8, #16]
 8004b1a:	60c7      	str	r7, [r0, #12]
 8004b1c:	f108 0e14 	add.w	lr, r8, #20
 8004b20:	f106 0014 	add.w	r0, r6, #20
 8004b24:	f109 0a14 	add.w	sl, r9, #20
 8004b28:	f106 0c10 	add.w	ip, r6, #16
 8004b2c:	eb0e 0282 	add.w	r2, lr, r2, lsl #2
 8004b30:	eb00 0785 	add.w	r7, r0, r5, lsl #2
 8004b34:	4656      	mov	r6, sl
 8004b36:	2100      	movs	r1, #0
 8004b38:	f85e 4b04 	ldr.w	r4, [lr], #4
 8004b3c:	f85c bf04 	ldr.w	fp, [ip, #4]!
 8004b40:	b2a3      	uxth	r3, r4
 8004b42:	fa11 f18b 	uxtah	r1, r1, fp
 8004b46:	1acb      	subs	r3, r1, r3
 8004b48:	0c21      	lsrs	r1, r4, #16
 8004b4a:	ebc1 411b 	rsb	r1, r1, fp, lsr #16
 8004b4e:	eb01 4123 	add.w	r1, r1, r3, asr #16
 8004b52:	b29b      	uxth	r3, r3
 8004b54:	ea43 4301 	orr.w	r3, r3, r1, lsl #16
 8004b58:	4572      	cmp	r2, lr
 8004b5a:	f846 3b04 	str.w	r3, [r6], #4
 8004b5e:	ea4f 4121 	mov.w	r1, r1, asr #16
 8004b62:	d8e9      	bhi.n	8004b38 <__mdiff+0x64>
 8004b64:	eba2 0408 	sub.w	r4, r2, r8
 8004b68:	3c15      	subs	r4, #21
 8004b6a:	f108 0815 	add.w	r8, r8, #21
 8004b6e:	4542      	cmp	r2, r8
 8004b70:	f024 0603 	bic.w	r6, r4, #3
 8004b74:	f106 0604 	add.w	r6, r6, #4
 8004b78:	bf38      	it	cc
 8004b7a:	2604      	movcc	r6, #4
 8004b7c:	4430      	add	r0, r6
 8004b7e:	f024 0203 	bic.w	r2, r4, #3
 8004b82:	bf38      	it	cc
 8004b84:	2200      	movcc	r2, #0
 8004b86:	4287      	cmp	r7, r0
 8004b88:	4452      	add	r2, sl
 8004b8a:	44b2      	add	sl, r6
 8004b8c:	d916      	bls.n	8004bbc <__mdiff+0xe8>
 8004b8e:	4656      	mov	r6, sl
 8004b90:	4604      	mov	r4, r0
 8004b92:	f854 3b04 	ldr.w	r3, [r4], #4
 8004b96:	fa11 f183 	uxtah	r1, r1, r3
 8004b9a:	140a      	asrs	r2, r1, #16
 8004b9c:	eb02 4213 	add.w	r2, r2, r3, lsr #16
 8004ba0:	b289      	uxth	r1, r1
 8004ba2:	ea41 4302 	orr.w	r3, r1, r2, lsl #16
 8004ba6:	42a7      	cmp	r7, r4
 8004ba8:	f846 3b04 	str.w	r3, [r6], #4
 8004bac:	ea4f 4122 	mov.w	r1, r2, asr #16
 8004bb0:	d8ef      	bhi.n	8004b92 <__mdiff+0xbe>
 8004bb2:	1e7a      	subs	r2, r7, #1
 8004bb4:	1a10      	subs	r0, r2, r0
 8004bb6:	f020 0203 	bic.w	r2, r0, #3
 8004bba:	4452      	add	r2, sl
 8004bbc:	b923      	cbnz	r3, 8004bc8 <__mdiff+0xf4>
 8004bbe:	f852 3d04 	ldr.w	r3, [r2, #-4]!
 8004bc2:	3d01      	subs	r5, #1
 8004bc4:	2b00      	cmp	r3, #0
 8004bc6:	d0fa      	beq.n	8004bbe <__mdiff+0xea>
 8004bc8:	f8c9 5010 	str.w	r5, [r9, #16]
 8004bcc:	4648      	mov	r0, r9
 8004bce:	e8bd 8ff8 	ldmia.w	sp!, {r3, r4, r5, r6, r7, r8, r9, sl, fp, pc}
 8004bd2:	4633      	mov	r3, r6
 8004bd4:	2701      	movs	r7, #1
 8004bd6:	4646      	mov	r6, r8
 8004bd8:	4698      	mov	r8, r3
 8004bda:	e795      	b.n	8004b08 <__mdiff+0x34>
 8004bdc:	dbf9      	blt.n	8004bd2 <__mdiff+0xfe>
 8004bde:	2700      	movs	r7, #0
 8004be0:	e792      	b.n	8004b08 <__mdiff+0x34>
 8004be2:	2100      	movs	r1, #0
 8004be4:	f7ff fc4c 	bl	8004480 <_Balloc>
 8004be8:	4681      	mov	r9, r0
 8004bea:	b168      	cbz	r0, 8004c08 <__mdiff+0x134>
 8004bec:	2201      	movs	r2, #1
 8004bee:	2300      	movs	r3, #0
 8004bf0:	e9c9 2304 	strd	r2, r3, [r9, #16]
 8004bf4:	4648      	mov	r0, r9
 8004bf6:	e8bd 8ff8 	ldmia.w	sp!, {r3, r4, r5, r6, r7, r8, r9, sl, fp, pc}
 8004bfa:	4b07      	ldr	r3, [pc, #28]	; (8004c18 <__mdiff+0x144>)
 8004bfc:	4807      	ldr	r0, [pc, #28]	; (8004c1c <__mdiff+0x148>)
 8004bfe:	464a      	mov	r2, r9
 8004c00:	f44f 7110 	mov.w	r1, #576	; 0x240
 8004c04:	f001 f8b4 	bl	8005d70 <__assert_func>
 8004c08:	4b03      	ldr	r3, [pc, #12]	; (8004c18 <__mdiff+0x144>)
 8004c0a:	4804      	ldr	r0, [pc, #16]	; (8004c1c <__mdiff+0x148>)
 8004c0c:	464a      	mov	r2, r9
 8004c0e:	f240 2132 	movw	r1, #562	; 0x232
 8004c12:	f001 f8ad 	bl	8005d70 <__assert_func>
 8004c16:	bf00      	nop
 8004c18:	080083e8 	.word	0x080083e8
 8004c1c:	08008448 	.word	0x08008448

08004c20 <__ulp>:
 8004c20:	b082      	sub	sp, #8
 8004c22:	ed8d 0b00 	vstr	d0, [sp]
 8004c26:	4b15      	ldr	r3, [pc, #84]	; (8004c7c <__ulp+0x5c>)
 8004c28:	9a01      	ldr	r2, [sp, #4]
 8004c2a:	4013      	ands	r3, r2
 8004c2c:	f1a3 7350 	sub.w	r3, r3, #54525952	; 0x3400000
 8004c30:	2b00      	cmp	r3, #0
 8004c32:	dd05      	ble.n	8004c40 <__ulp+0x20>
 8004c34:	2000      	movs	r0, #0
 8004c36:	4619      	mov	r1, r3
 8004c38:	ec41 0b10 	vmov	d0, r0, r1
 8004c3c:	b002      	add	sp, #8
 8004c3e:	4770      	bx	lr
 8004c40:	425b      	negs	r3, r3
 8004c42:	f1b3 7fa0 	cmp.w	r3, #20971520	; 0x1400000
 8004c46:	ea4f 5223 	mov.w	r2, r3, asr #20
 8004c4a:	da08      	bge.n	8004c5e <__ulp+0x3e>
 8004c4c:	f44f 2300 	mov.w	r3, #524288	; 0x80000
 8004c50:	2000      	movs	r0, #0
 8004c52:	fa43 f102 	asr.w	r1, r3, r2
 8004c56:	ec41 0b10 	vmov	d0, r0, r1
 8004c5a:	b002      	add	sp, #8
 8004c5c:	4770      	bx	lr
 8004c5e:	3a14      	subs	r2, #20
 8004c60:	2a1e      	cmp	r2, #30
 8004c62:	bfda      	itte	le
 8004c64:	f04f 4300 	movle.w	r3, #2147483648	; 0x80000000
 8004c68:	fa23 f202 	lsrle.w	r2, r3, r2
 8004c6c:	2201      	movgt	r2, #1
 8004c6e:	2100      	movs	r1, #0
 8004c70:	4610      	mov	r0, r2
 8004c72:	ec41 0b10 	vmov	d0, r0, r1
 8004c76:	b002      	add	sp, #8
 8004c78:	4770      	bx	lr
 8004c7a:	bf00      	nop
 8004c7c:	7ff00000 	.word	0x7ff00000

08004c80 <__b2d>:
 8004c80:	b5f8      	push	{r3, r4, r5, r6, r7, lr}
 8004c82:	6904      	ldr	r4, [r0, #16]
 8004c84:	f100 0614 	add.w	r6, r0, #20
 8004c88:	eb06 0484 	add.w	r4, r6, r4, lsl #2
 8004c8c:	1f27      	subs	r7, r4, #4
 8004c8e:	f854 5c04 	ldr.w	r5, [r4, #-4]
 8004c92:	4628      	mov	r0, r5
 8004c94:	f7ff fd04 	bl	80046a0 <__hi0bits>
 8004c98:	f1c0 0320 	rsb	r3, r0, #32
 8004c9c:	280a      	cmp	r0, #10
 8004c9e:	600b      	str	r3, [r1, #0]
 8004ca0:	dd31      	ble.n	8004d06 <__b2d+0x86>
 8004ca2:	42be      	cmp	r6, r7
 8004ca4:	d21b      	bcs.n	8004cde <__b2d+0x5e>
 8004ca6:	380b      	subs	r0, #11
 8004ca8:	f854 1c08 	ldr.w	r1, [r4, #-8]
 8004cac:	d023      	beq.n	8004cf6 <__b2d+0x76>
 8004cae:	f1c0 0c20 	rsb	ip, r0, #32
 8004cb2:	4085      	lsls	r5, r0
 8004cb4:	fa21 f70c 	lsr.w	r7, r1, ip
 8004cb8:	432f      	orrs	r7, r5
 8004cba:	f1a4 0508 	sub.w	r5, r4, #8
 8004cbe:	f047 537f 	orr.w	r3, r7, #1069547520	; 0x3fc00000
 8004cc2:	42ae      	cmp	r6, r5
 8004cc4:	f443 1340 	orr.w	r3, r3, #3145728	; 0x300000
 8004cc8:	d236      	bcs.n	8004d38 <__b2d+0xb8>
 8004cca:	4081      	lsls	r1, r0
 8004ccc:	f854 0c0c 	ldr.w	r0, [r4, #-12]
 8004cd0:	fa20 f00c 	lsr.w	r0, r0, ip
 8004cd4:	4308      	orrs	r0, r1
 8004cd6:	4602      	mov	r2, r0
 8004cd8:	ec43 2b10 	vmov	d0, r2, r3
 8004cdc:	bdf8      	pop	{r3, r4, r5, r6, r7, pc}
 8004cde:	380b      	subs	r0, #11
 8004ce0:	d008      	beq.n	8004cf4 <__b2d+0x74>
 8004ce2:	fa05 f000 	lsl.w	r0, r5, r0
 8004ce6:	f040 537f 	orr.w	r3, r0, #1069547520	; 0x3fc00000
 8004cea:	2000      	movs	r0, #0
 8004cec:	f443 1340 	orr.w	r3, r3, #3145728	; 0x300000
 8004cf0:	4602      	mov	r2, r0
 8004cf2:	e7f1      	b.n	8004cd8 <__b2d+0x58>
 8004cf4:	4601      	mov	r1, r0
 8004cf6:	f045 537f 	orr.w	r3, r5, #1069547520	; 0x3fc00000
 8004cfa:	f443 1340 	orr.w	r3, r3, #3145728	; 0x300000
 8004cfe:	460a      	mov	r2, r1
 8004d00:	ec43 2b10 	vmov	d0, r2, r3
 8004d04:	bdf8      	pop	{r3, r4, r5, r6, r7, pc}
 8004d06:	f1c0 0c0b 	rsb	ip, r0, #11
 8004d0a:	fa25 f10c 	lsr.w	r1, r5, ip
 8004d0e:	42be      	cmp	r6, r7
 8004d10:	f041 537f 	orr.w	r3, r1, #1069547520	; 0x3fc00000
 8004d14:	bf38      	it	cc
 8004d16:	f854 1c08 	ldrcc.w	r1, [r4, #-8]
 8004d1a:	f100 0015 	add.w	r0, r0, #21
 8004d1e:	bf34      	ite	cc
 8004d20:	fa21 f10c 	lsrcc.w	r1, r1, ip
 8004d24:	2100      	movcs	r1, #0
 8004d26:	fa05 f000 	lsl.w	r0, r5, r0
 8004d2a:	f443 1340 	orr.w	r3, r3, #3145728	; 0x300000
 8004d2e:	ea40 0201 	orr.w	r2, r0, r1
 8004d32:	ec43 2b10 	vmov	d0, r2, r3
 8004d36:	bdf8      	pop	{r3, r4, r5, r6, r7, pc}
 8004d38:	fa01 f000 	lsl.w	r0, r1, r0
 8004d3c:	4602      	mov	r2, r0
 8004d3e:	e7cb      	b.n	8004cd8 <__b2d+0x58>

08004d40 <__d2b>:
 8004d40:	e92d 43f0 	stmdb	sp!, {r4, r5, r6, r7, r8, r9, lr}
 8004d44:	4688      	mov	r8, r1
 8004d46:	b083      	sub	sp, #12
 8004d48:	2101      	movs	r1, #1
 8004d4a:	ec57 6b10 	vmov	r6, r7, d0
 8004d4e:	4615      	mov	r5, r2
 8004d50:	f7ff fb96 	bl	8004480 <_Balloc>
 8004d54:	4604      	mov	r4, r0
 8004d56:	2800      	cmp	r0, #0
 8004d58:	d04f      	beq.n	8004dfa <__d2b+0xba>
 8004d5a:	f3c7 590a 	ubfx	r9, r7, #20, #11
 8004d5e:	f3c7 0313 	ubfx	r3, r7, #0, #20
 8004d62:	f1b9 0f00 	cmp.w	r9, #0
 8004d66:	d001      	beq.n	8004d6c <__d2b+0x2c>
 8004d68:	f443 1380 	orr.w	r3, r3, #1048576	; 0x100000
 8004d6c:	2e00      	cmp	r6, #0
 8004d6e:	9301      	str	r3, [sp, #4]
 8004d70:	d024      	beq.n	8004dbc <__d2b+0x7c>
 8004d72:	4668      	mov	r0, sp
 8004d74:	9600      	str	r6, [sp, #0]
 8004d76:	f7ff fcb3 	bl	80046e0 <__lo0bits>
 8004d7a:	2800      	cmp	r0, #0
 8004d7c:	d039      	beq.n	8004df2 <__d2b+0xb2>
 8004d7e:	e9dd 1300 	ldrd	r1, r3, [sp]
 8004d82:	f1c0 0220 	rsb	r2, r0, #32
 8004d86:	fa03 f202 	lsl.w	r2, r3, r2
 8004d8a:	430a      	orrs	r2, r1
 8004d8c:	40c3      	lsrs	r3, r0
 8004d8e:	6162      	str	r2, [r4, #20]
 8004d90:	9301      	str	r3, [sp, #4]
 8004d92:	2b00      	cmp	r3, #0
 8004d94:	bf14      	ite	ne
 8004d96:	2202      	movne	r2, #2
 8004d98:	2201      	moveq	r2, #1
 8004d9a:	61a3      	str	r3, [r4, #24]
 8004d9c:	6122      	str	r2, [r4, #16]
 8004d9e:	f1b9 0f00 	cmp.w	r9, #0
 8004da2:	d016      	beq.n	8004dd2 <__d2b+0x92>
 8004da4:	f2a9 4333 	subw	r3, r9, #1075	; 0x433
 8004da8:	4403      	add	r3, r0
 8004daa:	f1c0 0035 	rsb	r0, r0, #53	; 0x35
 8004dae:	f8c8 3000 	str.w	r3, [r8]
 8004db2:	6028      	str	r0, [r5, #0]
 8004db4:	4620      	mov	r0, r4
 8004db6:	b003      	add	sp, #12
 8004db8:	e8bd 83f0 	ldmia.w	sp!, {r4, r5, r6, r7, r8, r9, pc}
 8004dbc:	a801      	add	r0, sp, #4
 8004dbe:	f7ff fc8f 	bl	80046e0 <__lo0bits>
 8004dc2:	9b01      	ldr	r3, [sp, #4]
 8004dc4:	6163      	str	r3, [r4, #20]
 8004dc6:	2201      	movs	r2, #1
 8004dc8:	3020      	adds	r0, #32
 8004dca:	6122      	str	r2, [r4, #16]
 8004dcc:	f1b9 0f00 	cmp.w	r9, #0
 8004dd0:	d1e8      	bne.n	8004da4 <__d2b+0x64>
 8004dd2:	eb04 0382 	add.w	r3, r4, r2, lsl #2
 8004dd6:	f2a0 4032 	subw	r0, r0, #1074	; 0x432
 8004dda:	f8c8 0000 	str.w	r0, [r8]
 8004dde:	6918      	ldr	r0, [r3, #16]
 8004de0:	f7ff fc5e 	bl	80046a0 <__hi0bits>
 8004de4:	ebc0 1042 	rsb	r0, r0, r2, lsl #5
 8004de8:	6028      	str	r0, [r5, #0]
 8004dea:	4620      	mov	r0, r4
 8004dec:	b003      	add	sp, #12
 8004dee:	e8bd 83f0 	ldmia.w	sp!, {r4, r5, r6, r7, r8, r9, pc}
 8004df2:	9b00      	ldr	r3, [sp, #0]
 8004df4:	6163      	str	r3, [r4, #20]
 8004df6:	9b01      	ldr	r3, [sp, #4]
 8004df8:	e7cb      	b.n	8004d92 <__d2b+0x52>
 8004dfa:	4b03      	ldr	r3, [pc, #12]	; (8004e08 <__d2b+0xc8>)
 8004dfc:	4803      	ldr	r0, [pc, #12]	; (8004e0c <__d2b+0xcc>)
 8004dfe:	4622      	mov	r2, r4
 8004e00:	f240 310a 	movw	r1, #778	; 0x30a
 8004e04:	f000 ffb4 	bl	8005d70 <__assert_func>
 8004e08:	080083e8 	.word	0x080083e8
 8004e0c:	08008448 	.word	0x08008448

08004e10 <__ratio>:
 8004e10:	e92d 43f0 	stmdb	sp!, {r4, r5, r6, r7, r8, r9, lr}
 8004e14:	b083      	sub	sp, #12
 8004e16:	460e      	mov	r6, r1
 8004e18:	4669      	mov	r1, sp
 8004e1a:	4607      	mov	r7, r0
 8004e1c:	f7ff ff30 	bl	8004c80 <__b2d>
 8004e20:	a901      	add	r1, sp, #4
 8004e22:	4630      	mov	r0, r6
 8004e24:	ec55 4b10 	vmov	r4, r5, d0
 8004e28:	f7ff ff2a 	bl	8004c80 <__b2d>
 8004e2c:	693b      	ldr	r3, [r7, #16]
 8004e2e:	6931      	ldr	r1, [r6, #16]
 8004e30:	1a59      	subs	r1, r3, r1
 8004e32:	e9dd 2300 	ldrd	r2, r3, [sp]
 8004e36:	1ad3      	subs	r3, r2, r3
 8004e38:	eb03 1341 	add.w	r3, r3, r1, lsl #5
 8004e3c:	2b00      	cmp	r3, #0
 8004e3e:	ec51 0b10 	vmov	r0, r1, d0
 8004e42:	dd0d      	ble.n	8004e60 <__ratio+0x50>
 8004e44:	eb05 5903 	add.w	r9, r5, r3, lsl #20
 8004e48:	464d      	mov	r5, r9
 8004e4a:	4602      	mov	r2, r0
 8004e4c:	460b      	mov	r3, r1
 8004e4e:	4620      	mov	r0, r4
 8004e50:	4629      	mov	r1, r5
 8004e52:	f001 ff25 	bl	8006ca0 <__aeabi_ddiv>
 8004e56:	ec41 0b10 	vmov	d0, r0, r1
 8004e5a:	b003      	add	sp, #12
 8004e5c:	e8bd 83f0 	ldmia.w	sp!, {r4, r5, r6, r7, r8, r9, pc}
 8004e60:	ebc3 3303 	rsb	r3, r3, r3, lsl #12
 8004e64:	eb01 5703 	add.w	r7, r1, r3, lsl #20
 8004e68:	4639      	mov	r1, r7
 8004e6a:	e7ee      	b.n	8004e4a <__ratio+0x3a>

08004e6c <_mprec_log10>:
 8004e6c:	2817      	cmp	r0, #23
 8004e6e:	b570      	push	{r4, r5, r6, lr}
 8004e70:	4606      	mov	r6, r0
 8004e72:	dd0c      	ble.n	8004e8e <_mprec_log10+0x22>
 8004e74:	490a      	ldr	r1, [pc, #40]	; (8004ea0 <_mprec_log10+0x34>)
 8004e76:	4d0b      	ldr	r5, [pc, #44]	; (8004ea4 <_mprec_log10+0x38>)
 8004e78:	2000      	movs	r0, #0
 8004e7a:	2400      	movs	r4, #0
 8004e7c:	4622      	mov	r2, r4
 8004e7e:	462b      	mov	r3, r5
 8004e80:	f001 fde4 	bl	8006a4c <__aeabi_dmul>
 8004e84:	3e01      	subs	r6, #1
 8004e86:	d1f9      	bne.n	8004e7c <_mprec_log10+0x10>
 8004e88:	ec41 0b10 	vmov	d0, r0, r1
 8004e8c:	bd70      	pop	{r4, r5, r6, pc}
 8004e8e:	4b06      	ldr	r3, [pc, #24]	; (8004ea8 <_mprec_log10+0x3c>)
 8004e90:	eb03 06c0 	add.w	r6, r3, r0, lsl #3
 8004e94:	e9d6 0104 	ldrd	r0, r1, [r6, #16]
 8004e98:	ec41 0b10 	vmov	d0, r0, r1
 8004e9c:	bd70      	pop	{r4, r5, r6, pc}
 8004e9e:	bf00      	nop
 8004ea0:	3ff00000 	.word	0x3ff00000
 8004ea4:	40240000 	.word	0x40240000
 8004ea8:	08008210 	.word	0x08008210

08004eac <__copybits>:
 8004eac:	3901      	subs	r1, #1
 8004eae:	1149      	asrs	r1, r1, #5
 8004eb0:	f101 0c01 	add.w	ip, r1, #1
 8004eb4:	6911      	ldr	r1, [r2, #16]
 8004eb6:	f102 0314 	add.w	r3, r2, #20
 8004eba:	eb03 0181 	add.w	r1, r3, r1, lsl #2
 8004ebe:	428b      	cmp	r3, r1
 8004ec0:	eb00 0c8c 	add.w	ip, r0, ip, lsl #2
 8004ec4:	d216      	bcs.n	8004ef4 <__copybits+0x48>
 8004ec6:	b510      	push	{r4, lr}
 8004ec8:	f1a0 0e04 	sub.w	lr, r0, #4
 8004ecc:	f853 4b04 	ldr.w	r4, [r3], #4
 8004ed0:	f84e 4f04 	str.w	r4, [lr, #4]!
 8004ed4:	4299      	cmp	r1, r3
 8004ed6:	d8f9      	bhi.n	8004ecc <__copybits+0x20>
 8004ed8:	1a8b      	subs	r3, r1, r2
 8004eda:	3b15      	subs	r3, #21
 8004edc:	f023 0303 	bic.w	r3, r3, #3
 8004ee0:	3304      	adds	r3, #4
 8004ee2:	4418      	add	r0, r3
 8004ee4:	4584      	cmp	ip, r0
 8004ee6:	d904      	bls.n	8004ef2 <__copybits+0x46>
 8004ee8:	2300      	movs	r3, #0
 8004eea:	f840 3b04 	str.w	r3, [r0], #4
 8004eee:	4584      	cmp	ip, r0
 8004ef0:	d8fb      	bhi.n	8004eea <__copybits+0x3e>
 8004ef2:	bd10      	pop	{r4, pc}
 8004ef4:	4584      	cmp	ip, r0
 8004ef6:	d905      	bls.n	8004f04 <__copybits+0x58>
 8004ef8:	2300      	movs	r3, #0
 8004efa:	f840 3b04 	str.w	r3, [r0], #4
 8004efe:	4584      	cmp	ip, r0
 8004f00:	d8fb      	bhi.n	8004efa <__copybits+0x4e>
 8004f02:	4770      	bx	lr
 8004f04:	4770      	bx	lr
 8004f06:	bf00      	nop

08004f08 <__any_on>:
 8004f08:	6903      	ldr	r3, [r0, #16]
 8004f0a:	114a      	asrs	r2, r1, #5
 8004f0c:	4293      	cmp	r3, r2
 8004f0e:	f100 0014 	add.w	r0, r0, #20
 8004f12:	da09      	bge.n	8004f28 <__any_on+0x20>
 8004f14:	eb00 0383 	add.w	r3, r0, r3, lsl #2
 8004f18:	e002      	b.n	8004f20 <__any_on+0x18>
 8004f1a:	f853 2d04 	ldr.w	r2, [r3, #-4]!
 8004f1e:	b9ca      	cbnz	r2, 8004f54 <__any_on+0x4c>
 8004f20:	4283      	cmp	r3, r0
 8004f22:	d8fa      	bhi.n	8004f1a <__any_on+0x12>
 8004f24:	2000      	movs	r0, #0
 8004f26:	4770      	bx	lr
 8004f28:	dd11      	ble.n	8004f4e <__any_on+0x46>
 8004f2a:	f011 011f 	ands.w	r1, r1, #31
 8004f2e:	d00e      	beq.n	8004f4e <__any_on+0x46>
 8004f30:	b410      	push	{r4}
 8004f32:	f850 4022 	ldr.w	r4, [r0, r2, lsl #2]
 8004f36:	eb00 0382 	add.w	r3, r0, r2, lsl #2
 8004f3a:	fa24 f201 	lsr.w	r2, r4, r1
 8004f3e:	fa02 f101 	lsl.w	r1, r2, r1
 8004f42:	428c      	cmp	r4, r1
 8004f44:	d00c      	beq.n	8004f60 <__any_on+0x58>
 8004f46:	2001      	movs	r0, #1
 8004f48:	f85d 4b04 	ldr.w	r4, [sp], #4
 8004f4c:	4770      	bx	lr
 8004f4e:	eb00 0382 	add.w	r3, r0, r2, lsl #2
 8004f52:	e7e5      	b.n	8004f20 <__any_on+0x18>
 8004f54:	2001      	movs	r0, #1
 8004f56:	4770      	bx	lr
 8004f58:	f853 2d04 	ldr.w	r2, [r3, #-4]!
 8004f5c:	2a00      	cmp	r2, #0
 8004f5e:	d1f2      	bne.n	8004f46 <__any_on+0x3e>
 8004f60:	4283      	cmp	r3, r0
 8004f62:	d8f9      	bhi.n	8004f58 <__any_on+0x50>
 8004f64:	2000      	movs	r0, #0
 8004f66:	f85d 4b04 	ldr.w	r4, [sp], #4
 8004f6a:	4770      	bx	lr

08004f6c <_calloc_r>:
 8004f6c:	b538      	push	{r3, r4, r5, lr}
 8004f6e:	fb02 f501 	mul.w	r5, r2, r1
 8004f72:	4629      	mov	r1, r5
 8004f74:	f000 f86a 	bl	800504c <_malloc_r>
 8004f78:	4604      	mov	r4, r0
 8004f7a:	b118      	cbz	r0, 8004f84 <_calloc_r+0x18>
 8004f7c:	462a      	mov	r2, r5
 8004f7e:	2100      	movs	r1, #0
 8004f80:	f7fb f93c 	bl	80001fc <memset>
 8004f84:	4620      	mov	r0, r4
 8004f86:	bd38      	pop	{r3, r4, r5, pc}

08004f88 <_free_r>:
 8004f88:	2900      	cmp	r1, #0
 8004f8a:	d058      	beq.n	800503e <_free_r+0xb6>
 8004f8c:	b530      	push	{r4, r5, lr}
 8004f8e:	f851 3c04 	ldr.w	r3, [r1, #-4]
 8004f92:	b083      	sub	sp, #12
 8004f94:	2b00      	cmp	r3, #0
 8004f96:	f1a1 0404 	sub.w	r4, r1, #4
 8004f9a:	bfb8      	it	lt
 8004f9c:	18e4      	addlt	r4, r4, r3
 8004f9e:	9001      	str	r0, [sp, #4]
 8004fa0:	f001 facc 	bl	800653c <__malloc_lock>
 8004fa4:	4a28      	ldr	r2, [pc, #160]	; (8005048 <_free_r+0xc0>)
 8004fa6:	9801      	ldr	r0, [sp, #4]
 8004fa8:	6813      	ldr	r3, [r2, #0]
 8004faa:	b133      	cbz	r3, 8004fba <_free_r+0x32>
 8004fac:	42a3      	cmp	r3, r4
 8004fae:	d90d      	bls.n	8004fcc <_free_r+0x44>
 8004fb0:	6821      	ldr	r1, [r4, #0]
 8004fb2:	eb04 0c01 	add.w	ip, r4, r1
 8004fb6:	4563      	cmp	r3, ip
 8004fb8:	d02f      	beq.n	800501a <_free_r+0x92>
 8004fba:	6063      	str	r3, [r4, #4]
 8004fbc:	6014      	str	r4, [r2, #0]
 8004fbe:	b003      	add	sp, #12
 8004fc0:	e8bd 4030 	ldmia.w	sp!, {r4, r5, lr}
 8004fc4:	f001 babc 	b.w	8006540 <__malloc_unlock>
 8004fc8:	42a3      	cmp	r3, r4
 8004fca:	d810      	bhi.n	8004fee <_free_r+0x66>
 8004fcc:	461a      	mov	r2, r3
 8004fce:	685b      	ldr	r3, [r3, #4]
 8004fd0:	2b00      	cmp	r3, #0
 8004fd2:	d1f9      	bne.n	8004fc8 <_free_r+0x40>
 8004fd4:	6811      	ldr	r1, [r2, #0]
 8004fd6:	eb02 0c01 	add.w	ip, r2, r1
 8004fda:	4564      	cmp	r4, ip
 8004fdc:	d019      	beq.n	8005012 <_free_r+0x8a>
 8004fde:	d32f      	bcc.n	8005040 <_free_r+0xb8>
 8004fe0:	6063      	str	r3, [r4, #4]
 8004fe2:	6054      	str	r4, [r2, #4]
 8004fe4:	b003      	add	sp, #12
 8004fe6:	e8bd 4030 	ldmia.w	sp!, {r4, r5, lr}
 8004fea:	f001 baa9 	b.w	8006540 <__malloc_unlock>
 8004fee:	6811      	ldr	r1, [r2, #0]
 8004ff0:	eb02 0c01 	add.w	ip, r2, r1
 8004ff4:	45a4      	cmp	ip, r4
 8004ff6:	d016      	beq.n	8005026 <_free_r+0x9e>
 8004ff8:	d822      	bhi.n	8005040 <_free_r+0xb8>
 8004ffa:	6821      	ldr	r1, [r4, #0]
 8004ffc:	eb04 0c01 	add.w	ip, r4, r1
 8005000:	4563      	cmp	r3, ip
 8005002:	d1ed      	bne.n	8004fe0 <_free_r+0x58>
 8005004:	681d      	ldr	r5, [r3, #0]
 8005006:	685b      	ldr	r3, [r3, #4]
 8005008:	4429      	add	r1, r5
 800500a:	e9c4 1300 	strd	r1, r3, [r4]
 800500e:	6054      	str	r4, [r2, #4]
 8005010:	e7d5      	b.n	8004fbe <_free_r+0x36>
 8005012:	6823      	ldr	r3, [r4, #0]
 8005014:	4419      	add	r1, r3
 8005016:	6011      	str	r1, [r2, #0]
 8005018:	e7d1      	b.n	8004fbe <_free_r+0x36>
 800501a:	681d      	ldr	r5, [r3, #0]
 800501c:	685b      	ldr	r3, [r3, #4]
 800501e:	4429      	add	r1, r5
 8005020:	e9c4 1300 	strd	r1, r3, [r4]
 8005024:	e7ca      	b.n	8004fbc <_free_r+0x34>
 8005026:	6824      	ldr	r4, [r4, #0]
 8005028:	4421      	add	r1, r4
 800502a:	1854      	adds	r4, r2, r1
 800502c:	42a3      	cmp	r3, r4
 800502e:	6011      	str	r1, [r2, #0]
 8005030:	d1c5      	bne.n	8004fbe <_free_r+0x36>
 8005032:	e9d3 4300 	ldrd	r4, r3, [r3]
 8005036:	4421      	add	r1, r4
 8005038:	e9c2 1300 	strd	r1, r3, [r2]
 800503c:	e7bf      	b.n	8004fbe <_free_r+0x36>
 800503e:	4770      	bx	lr
 8005040:	230c      	movs	r3, #12
 8005042:	6003      	str	r3, [r0, #0]
 8005044:	e7bb      	b.n	8004fbe <_free_r+0x36>
 8005046:	bf00      	nop
 8005048:	20000278 	.word	0x20000278

0800504c <_malloc_r>:
 800504c:	b5f8      	push	{r3, r4, r5, r6, r7, lr}
 800504e:	1ccd      	adds	r5, r1, #3
 8005050:	f025 0503 	bic.w	r5, r5, #3
 8005054:	3508      	adds	r5, #8
 8005056:	2d0c      	cmp	r5, #12
 8005058:	bf38      	it	cc
 800505a:	250c      	movcc	r5, #12
 800505c:	2d00      	cmp	r5, #0
 800505e:	4606      	mov	r6, r0
 8005060:	db23      	blt.n	80050aa <_malloc_r+0x5e>
 8005062:	42a9      	cmp	r1, r5
 8005064:	d821      	bhi.n	80050aa <_malloc_r+0x5e>
 8005066:	4f25      	ldr	r7, [pc, #148]	; (80050fc <_malloc_r+0xb0>)
 8005068:	f001 fa68 	bl	800653c <__malloc_lock>
 800506c:	683a      	ldr	r2, [r7, #0]
 800506e:	b322      	cbz	r2, 80050ba <_malloc_r+0x6e>
 8005070:	4614      	mov	r4, r2
 8005072:	e003      	b.n	800507c <_malloc_r+0x30>
 8005074:	6863      	ldr	r3, [r4, #4]
 8005076:	4622      	mov	r2, r4
 8005078:	b1fb      	cbz	r3, 80050ba <_malloc_r+0x6e>
 800507a:	461c      	mov	r4, r3
 800507c:	6823      	ldr	r3, [r4, #0]
 800507e:	1b5b      	subs	r3, r3, r5
 8005080:	d4f8      	bmi.n	8005074 <_malloc_r+0x28>
 8005082:	2b0b      	cmp	r3, #11
 8005084:	d815      	bhi.n	80050b2 <_malloc_r+0x66>
 8005086:	6863      	ldr	r3, [r4, #4]
 8005088:	4294      	cmp	r4, r2
 800508a:	bf0c      	ite	eq
 800508c:	603b      	streq	r3, [r7, #0]
 800508e:	6053      	strne	r3, [r2, #4]
 8005090:	4630      	mov	r0, r6
 8005092:	f001 fa55 	bl	8006540 <__malloc_unlock>
 8005096:	f104 000b 	add.w	r0, r4, #11
 800509a:	1d23      	adds	r3, r4, #4
 800509c:	f020 0007 	bic.w	r0, r0, #7
 80050a0:	1ac2      	subs	r2, r0, r3
 80050a2:	d001      	beq.n	80050a8 <_malloc_r+0x5c>
 80050a4:	1a1b      	subs	r3, r3, r0
 80050a6:	50a3      	str	r3, [r4, r2]
 80050a8:	bdf8      	pop	{r3, r4, r5, r6, r7, pc}
 80050aa:	230c      	movs	r3, #12
 80050ac:	6033      	str	r3, [r6, #0]
 80050ae:	2000      	movs	r0, #0
 80050b0:	bdf8      	pop	{r3, r4, r5, r6, r7, pc}
 80050b2:	6023      	str	r3, [r4, #0]
 80050b4:	441c      	add	r4, r3
 80050b6:	6025      	str	r5, [r4, #0]
 80050b8:	e7ea      	b.n	8005090 <_malloc_r+0x44>
 80050ba:	6879      	ldr	r1, [r7, #4]
 80050bc:	b1c9      	cbz	r1, 80050f2 <_malloc_r+0xa6>
 80050be:	4629      	mov	r1, r5
 80050c0:	4630      	mov	r0, r6
 80050c2:	f000 fbb1 	bl	8005828 <_sbrk_r>
 80050c6:	1c43      	adds	r3, r0, #1
 80050c8:	d00c      	beq.n	80050e4 <_malloc_r+0x98>
 80050ca:	1cc4      	adds	r4, r0, #3
 80050cc:	f024 0403 	bic.w	r4, r4, #3
 80050d0:	42a0      	cmp	r0, r4
 80050d2:	d005      	beq.n	80050e0 <_malloc_r+0x94>
 80050d4:	1a21      	subs	r1, r4, r0
 80050d6:	4630      	mov	r0, r6
 80050d8:	f000 fba6 	bl	8005828 <_sbrk_r>
 80050dc:	3001      	adds	r0, #1
 80050de:	d001      	beq.n	80050e4 <_malloc_r+0x98>
 80050e0:	6025      	str	r5, [r4, #0]
 80050e2:	e7d5      	b.n	8005090 <_malloc_r+0x44>
 80050e4:	230c      	movs	r3, #12
 80050e6:	4630      	mov	r0, r6
 80050e8:	6033      	str	r3, [r6, #0]
 80050ea:	f001 fa29 	bl	8006540 <__malloc_unlock>
 80050ee:	2000      	movs	r0, #0
 80050f0:	bdf8      	pop	{r3, r4, r5, r6, r7, pc}
 80050f2:	4630      	mov	r0, r6
 80050f4:	f000 fb98 	bl	8005828 <_sbrk_r>
 80050f8:	6078      	str	r0, [r7, #4]
 80050fa:	e7e0      	b.n	80050be <_malloc_r+0x72>
 80050fc:	20000278 	.word	0x20000278

08005100 <__ssputs_r>:
 8005100:	e92d 47f0 	stmdb	sp!, {r4, r5, r6, r7, r8, r9, sl, lr}
 8005104:	688f      	ldr	r7, [r1, #8]
 8005106:	429f      	cmp	r7, r3
 8005108:	460c      	mov	r4, r1
 800510a:	461d      	mov	r5, r3
 800510c:	4616      	mov	r6, r2
 800510e:	d838      	bhi.n	8005182 <__ssputs_r+0x82>
 8005110:	4682      	mov	sl, r0
 8005112:	8988      	ldrh	r0, [r1, #12]
 8005114:	f410 6f90 	tst.w	r0, #1152	; 0x480
 8005118:	d10e      	bne.n	8005138 <__ssputs_r+0x38>
 800511a:	6808      	ldr	r0, [r1, #0]
 800511c:	463d      	mov	r5, r7
 800511e:	462a      	mov	r2, r5
 8005120:	4631      	mov	r1, r6
 8005122:	f001 f98f 	bl	8006444 <memmove>
 8005126:	68a2      	ldr	r2, [r4, #8]
 8005128:	6823      	ldr	r3, [r4, #0]
 800512a:	1bd2      	subs	r2, r2, r7
 800512c:	442b      	add	r3, r5
 800512e:	60a2      	str	r2, [r4, #8]
 8005130:	6023      	str	r3, [r4, #0]
 8005132:	2000      	movs	r0, #0
 8005134:	e8bd 87f0 	ldmia.w	sp!, {r4, r5, r6, r7, r8, r9, sl, pc}
 8005138:	694b      	ldr	r3, [r1, #20]
 800513a:	6909      	ldr	r1, [r1, #16]
 800513c:	eb03 0843 	add.w	r8, r3, r3, lsl #1
 8005140:	6823      	ldr	r3, [r4, #0]
 8005142:	eb08 78d8 	add.w	r8, r8, r8, lsr #31
 8005146:	eba3 0901 	sub.w	r9, r3, r1
 800514a:	1c6b      	adds	r3, r5, #1
 800514c:	ea4f 0868 	mov.w	r8, r8, asr #1
 8005150:	444b      	add	r3, r9
 8005152:	4543      	cmp	r3, r8
 8005154:	4642      	mov	r2, r8
 8005156:	bf84      	itt	hi
 8005158:	4698      	movhi	r8, r3
 800515a:	4642      	movhi	r2, r8
 800515c:	0543      	lsls	r3, r0, #21
 800515e:	d513      	bpl.n	8005188 <__ssputs_r+0x88>
 8005160:	4611      	mov	r1, r2
 8005162:	4650      	mov	r0, sl
 8005164:	f7ff ff72 	bl	800504c <_malloc_r>
 8005168:	4607      	mov	r7, r0
 800516a:	b308      	cbz	r0, 80051b0 <__ssputs_r+0xb0>
 800516c:	6921      	ldr	r1, [r4, #16]
 800516e:	464a      	mov	r2, r9
 8005170:	f7fa ffaa 	bl	80000c8 <memcpy>
 8005174:	89a3      	ldrh	r3, [r4, #12]
 8005176:	f423 6390 	bic.w	r3, r3, #1152	; 0x480
 800517a:	f043 0380 	orr.w	r3, r3, #128	; 0x80
 800517e:	81a3      	strh	r3, [r4, #12]
 8005180:	e007      	b.n	8005192 <__ssputs_r+0x92>
 8005182:	6808      	ldr	r0, [r1, #0]
 8005184:	461f      	mov	r7, r3
 8005186:	e7ca      	b.n	800511e <__ssputs_r+0x1e>
 8005188:	4650      	mov	r0, sl
 800518a:	f001 f9db 	bl	8006544 <_realloc_r>
 800518e:	4607      	mov	r7, r0
 8005190:	b150      	cbz	r0, 80051a8 <__ssputs_r+0xa8>
 8005192:	eb07 0009 	add.w	r0, r7, r9
 8005196:	eba8 0309 	sub.w	r3, r8, r9
 800519a:	6127      	str	r7, [r4, #16]
 800519c:	f8c4 8014 	str.w	r8, [r4, #20]
 80051a0:	60a3      	str	r3, [r4, #8]
 80051a2:	6020      	str	r0, [r4, #0]
 80051a4:	462f      	mov	r7, r5
 80051a6:	e7ba      	b.n	800511e <__ssputs_r+0x1e>
 80051a8:	6921      	ldr	r1, [r4, #16]
 80051aa:	4650      	mov	r0, sl
 80051ac:	f7ff feec 	bl	8004f88 <_free_r>
 80051b0:	230c      	movs	r3, #12
 80051b2:	f8ca 3000 	str.w	r3, [sl]
 80051b6:	89a3      	ldrh	r3, [r4, #12]
 80051b8:	f043 0340 	orr.w	r3, r3, #64	; 0x40
 80051bc:	f04f 30ff 	mov.w	r0, #4294967295	; 0xffffffff
 80051c0:	81a3      	strh	r3, [r4, #12]
 80051c2:	e7b7      	b.n	8005134 <__ssputs_r+0x34>

080051c4 <__ssprint_r>:
 80051c4:	e92d 4ff0 	stmdb	sp!, {r4, r5, r6, r7, r8, r9, sl, fp, lr}
 80051c8:	6893      	ldr	r3, [r2, #8]
 80051ca:	b083      	sub	sp, #12
 80051cc:	4691      	mov	r9, r2
 80051ce:	2b00      	cmp	r3, #0
 80051d0:	d06e      	beq.n	80052b0 <__ssprint_r+0xec>
 80051d2:	6817      	ldr	r7, [r2, #0]
 80051d4:	688d      	ldr	r5, [r1, #8]
 80051d6:	4680      	mov	r8, r0
 80051d8:	460c      	mov	r4, r1
 80051da:	6808      	ldr	r0, [r1, #0]
 80051dc:	3708      	adds	r7, #8
 80051de:	e044      	b.n	800526a <__ssprint_r+0xa6>
 80051e0:	89a3      	ldrh	r3, [r4, #12]
 80051e2:	f413 6f90 	tst.w	r3, #1152	; 0x480
 80051e6:	d02e      	beq.n	8005246 <__ssprint_r+0x82>
 80051e8:	e9d4 1504 	ldrd	r1, r5, [r4, #16]
 80051ec:	eba0 0a01 	sub.w	sl, r0, r1
 80051f0:	eb05 0545 	add.w	r5, r5, r5, lsl #1
 80051f4:	eb05 75d5 	add.w	r5, r5, r5, lsr #31
 80051f8:	eb0a 0006 	add.w	r0, sl, r6
 80051fc:	106d      	asrs	r5, r5, #1
 80051fe:	3001      	adds	r0, #1
 8005200:	42a8      	cmp	r0, r5
 8005202:	462a      	mov	r2, r5
 8005204:	bf84      	itt	hi
 8005206:	4605      	movhi	r5, r0
 8005208:	462a      	movhi	r2, r5
 800520a:	055b      	lsls	r3, r3, #21
 800520c:	d537      	bpl.n	800527e <__ssprint_r+0xba>
 800520e:	4611      	mov	r1, r2
 8005210:	4640      	mov	r0, r8
 8005212:	f7ff ff1b 	bl	800504c <_malloc_r>
 8005216:	2800      	cmp	r0, #0
 8005218:	d03b      	beq.n	8005292 <__ssprint_r+0xce>
 800521a:	4652      	mov	r2, sl
 800521c:	6921      	ldr	r1, [r4, #16]
 800521e:	9001      	str	r0, [sp, #4]
 8005220:	f7fa ff52 	bl	80000c8 <memcpy>
 8005224:	89a2      	ldrh	r2, [r4, #12]
 8005226:	9b01      	ldr	r3, [sp, #4]
 8005228:	f422 6290 	bic.w	r2, r2, #1152	; 0x480
 800522c:	f042 0280 	orr.w	r2, r2, #128	; 0x80
 8005230:	81a2      	strh	r2, [r4, #12]
 8005232:	eba5 020a 	sub.w	r2, r5, sl
 8005236:	eb03 000a 	add.w	r0, r3, sl
 800523a:	6165      	str	r5, [r4, #20]
 800523c:	60a2      	str	r2, [r4, #8]
 800523e:	6123      	str	r3, [r4, #16]
 8005240:	6020      	str	r0, [r4, #0]
 8005242:	4635      	mov	r5, r6
 8005244:	46b2      	mov	sl, r6
 8005246:	4659      	mov	r1, fp
 8005248:	4652      	mov	r2, sl
 800524a:	f001 f8fb 	bl	8006444 <memmove>
 800524e:	68a0      	ldr	r0, [r4, #8]
 8005250:	f8d9 1008 	ldr.w	r1, [r9, #8]
 8005254:	6823      	ldr	r3, [r4, #0]
 8005256:	1b45      	subs	r5, r0, r5
 8005258:	1b8e      	subs	r6, r1, r6
 800525a:	eb03 000a 	add.w	r0, r3, sl
 800525e:	60a5      	str	r5, [r4, #8]
 8005260:	6020      	str	r0, [r4, #0]
 8005262:	f8c9 6008 	str.w	r6, [r9, #8]
 8005266:	b31e      	cbz	r6, 80052b0 <__ssprint_r+0xec>
 8005268:	3708      	adds	r7, #8
 800526a:	e957 b602 	ldrd	fp, r6, [r7, #-8]
 800526e:	2e00      	cmp	r6, #0
 8005270:	d0fa      	beq.n	8005268 <__ssprint_r+0xa4>
 8005272:	42b5      	cmp	r5, r6
 8005274:	46aa      	mov	sl, r5
 8005276:	d9b3      	bls.n	80051e0 <__ssprint_r+0x1c>
 8005278:	4635      	mov	r5, r6
 800527a:	46b2      	mov	sl, r6
 800527c:	e7e3      	b.n	8005246 <__ssprint_r+0x82>
 800527e:	4640      	mov	r0, r8
 8005280:	f001 f960 	bl	8006544 <_realloc_r>
 8005284:	4603      	mov	r3, r0
 8005286:	2800      	cmp	r0, #0
 8005288:	d1d3      	bne.n	8005232 <__ssprint_r+0x6e>
 800528a:	6921      	ldr	r1, [r4, #16]
 800528c:	4640      	mov	r0, r8
 800528e:	f7ff fe7b 	bl	8004f88 <_free_r>
 8005292:	230c      	movs	r3, #12
 8005294:	f8c8 3000 	str.w	r3, [r8]
 8005298:	89a3      	ldrh	r3, [r4, #12]
 800529a:	2200      	movs	r2, #0
 800529c:	f043 0340 	orr.w	r3, r3, #64	; 0x40
 80052a0:	f04f 30ff 	mov.w	r0, #4294967295	; 0xffffffff
 80052a4:	81a3      	strh	r3, [r4, #12]
 80052a6:	e9c9 2201 	strd	r2, r2, [r9, #4]
 80052aa:	b003      	add	sp, #12
 80052ac:	e8bd 8ff0 	ldmia.w	sp!, {r4, r5, r6, r7, r8, r9, sl, fp, pc}
 80052b0:	2000      	movs	r0, #0
 80052b2:	f8c9 0004 	str.w	r0, [r9, #4]
 80052b6:	b003      	add	sp, #12
 80052b8:	e8bd 8ff0 	ldmia.w	sp!, {r4, r5, r6, r7, r8, r9, sl, fp, pc}

080052bc <_svfiprintf_r>:
 80052bc:	e92d 4ff0 	stmdb	sp!, {r4, r5, r6, r7, r8, r9, sl, fp, lr}
 80052c0:	4692      	mov	sl, r2
 80052c2:	898a      	ldrh	r2, [r1, #12]
 80052c4:	0615      	lsls	r5, r2, #24
 80052c6:	b09d      	sub	sp, #116	; 0x74
 80052c8:	4688      	mov	r8, r1
 80052ca:	4681      	mov	r9, r0
 80052cc:	461c      	mov	r4, r3
 80052ce:	d503      	bpl.n	80052d8 <_svfiprintf_r+0x1c>
 80052d0:	690a      	ldr	r2, [r1, #16]
 80052d2:	2a00      	cmp	r2, #0
 80052d4:	f000 80ef 	beq.w	80054b6 <_svfiprintf_r+0x1fa>
 80052d8:	2200      	movs	r2, #0
 80052da:	9209      	str	r2, [sp, #36]	; 0x24
 80052dc:	f89a 3000 	ldrb.w	r3, [sl]
 80052e0:	4d7e      	ldr	r5, [pc, #504]	; (80054dc <_svfiprintf_r+0x220>)
 80052e2:	9403      	str	r4, [sp, #12]
 80052e4:	2220      	movs	r2, #32
 80052e6:	f88d 2029 	strb.w	r2, [sp, #41]	; 0x29
 80052ea:	2230      	movs	r2, #48	; 0x30
 80052ec:	f88d 202a 	strb.w	r2, [sp, #42]	; 0x2a
 80052f0:	2601      	movs	r6, #1
 80052f2:	2b00      	cmp	r3, #0
 80052f4:	d072      	beq.n	80053dc <_svfiprintf_r+0x120>
 80052f6:	4654      	mov	r4, sl
 80052f8:	e003      	b.n	8005302 <_svfiprintf_r+0x46>
 80052fa:	f814 3f01 	ldrb.w	r3, [r4, #1]!
 80052fe:	2b00      	cmp	r3, #0
 8005300:	d076      	beq.n	80053f0 <_svfiprintf_r+0x134>
 8005302:	2b25      	cmp	r3, #37	; 0x25
 8005304:	d1f9      	bne.n	80052fa <_svfiprintf_r+0x3e>
 8005306:	ebb4 0b0a 	subs.w	fp, r4, sl
 800530a:	d174      	bne.n	80053f6 <_svfiprintf_r+0x13a>
 800530c:	7822      	ldrb	r2, [r4, #0]
 800530e:	2a00      	cmp	r2, #0
 8005310:	d064      	beq.n	80053dc <_svfiprintf_r+0x120>
 8005312:	2300      	movs	r3, #0
 8005314:	f04f 32ff 	mov.w	r2, #4294967295	; 0xffffffff
 8005318:	e9cd 2305 	strd	r2, r3, [sp, #20]
 800531c:	9304      	str	r3, [sp, #16]
 800531e:	9307      	str	r3, [sp, #28]
 8005320:	f88d 3053 	strb.w	r3, [sp, #83]	; 0x53
 8005324:	931a      	str	r3, [sp, #104]	; 0x68
 8005326:	3401      	adds	r4, #1
 8005328:	e004      	b.n	8005334 <_svfiprintf_r+0x78>
 800532a:	9a04      	ldr	r2, [sp, #16]
 800532c:	fa06 f303 	lsl.w	r3, r6, r3
 8005330:	4313      	orrs	r3, r2
 8005332:	9304      	str	r3, [sp, #16]
 8005334:	46a2      	mov	sl, r4
 8005336:	2205      	movs	r2, #5
 8005338:	f814 1b01 	ldrb.w	r1, [r4], #1
 800533c:	4628      	mov	r0, r5
 800533e:	f7ff f84f 	bl	80043e0 <memchr>
 8005342:	1b43      	subs	r3, r0, r5
 8005344:	2800      	cmp	r0, #0
 8005346:	d1f0      	bne.n	800532a <_svfiprintf_r+0x6e>
 8005348:	9b04      	ldr	r3, [sp, #16]
 800534a:	06d8      	lsls	r0, r3, #27
 800534c:	bf44      	itt	mi
 800534e:	2220      	movmi	r2, #32
 8005350:	f88d 2053 	strbmi.w	r2, [sp, #83]	; 0x53
 8005354:	0719      	lsls	r1, r3, #28
 8005356:	f89a 1000 	ldrb.w	r1, [sl]
 800535a:	bf44      	itt	mi
 800535c:	222b      	movmi	r2, #43	; 0x2b
 800535e:	f88d 2053 	strbmi.w	r2, [sp, #83]	; 0x53
 8005362:	292a      	cmp	r1, #42	; 0x2a
 8005364:	d154      	bne.n	8005410 <_svfiprintf_r+0x154>
 8005366:	9a03      	ldr	r2, [sp, #12]
 8005368:	6811      	ldr	r1, [r2, #0]
 800536a:	3204      	adds	r2, #4
 800536c:	2900      	cmp	r1, #0
 800536e:	9203      	str	r2, [sp, #12]
 8005370:	db7c      	blt.n	800546c <_svfiprintf_r+0x1b0>
 8005372:	9107      	str	r1, [sp, #28]
 8005374:	f89a 1001 	ldrb.w	r1, [sl, #1]
 8005378:	f10a 0a01 	add.w	sl, sl, #1
 800537c:	292e      	cmp	r1, #46	; 0x2e
 800537e:	d059      	beq.n	8005434 <_svfiprintf_r+0x178>
 8005380:	4c57      	ldr	r4, [pc, #348]	; (80054e0 <_svfiprintf_r+0x224>)
 8005382:	2203      	movs	r2, #3
 8005384:	4620      	mov	r0, r4
 8005386:	f7ff f82b 	bl	80043e0 <memchr>
 800538a:	b140      	cbz	r0, 800539e <_svfiprintf_r+0xe2>
 800538c:	9b04      	ldr	r3, [sp, #16]
 800538e:	1b00      	subs	r0, r0, r4
 8005390:	2440      	movs	r4, #64	; 0x40
 8005392:	fa04 f000 	lsl.w	r0, r4, r0
 8005396:	4303      	orrs	r3, r0
 8005398:	9304      	str	r3, [sp, #16]
 800539a:	f10a 0a01 	add.w	sl, sl, #1
 800539e:	f81a 1b01 	ldrb.w	r1, [sl], #1
 80053a2:	4850      	ldr	r0, [pc, #320]	; (80054e4 <_svfiprintf_r+0x228>)
 80053a4:	f88d 1028 	strb.w	r1, [sp, #40]	; 0x28
 80053a8:	2206      	movs	r2, #6
 80053aa:	f7ff f819 	bl	80043e0 <memchr>
 80053ae:	2800      	cmp	r0, #0
 80053b0:	d062      	beq.n	8005478 <_svfiprintf_r+0x1bc>
 80053b2:	4b4d      	ldr	r3, [pc, #308]	; (80054e8 <_svfiprintf_r+0x22c>)
 80053b4:	2b00      	cmp	r3, #0
 80053b6:	d052      	beq.n	800545e <_svfiprintf_r+0x1a2>
 80053b8:	aa03      	add	r2, sp, #12
 80053ba:	9200      	str	r2, [sp, #0]
 80053bc:	4b4b      	ldr	r3, [pc, #300]	; (80054ec <_svfiprintf_r+0x230>)
 80053be:	4642      	mov	r2, r8
 80053c0:	a904      	add	r1, sp, #16
 80053c2:	4648      	mov	r0, r9
 80053c4:	f7fb f838 	bl	8000438 <_printf_float>
 80053c8:	4607      	mov	r7, r0
 80053ca:	1c7a      	adds	r2, r7, #1
 80053cc:	d006      	beq.n	80053dc <_svfiprintf_r+0x120>
 80053ce:	9b09      	ldr	r3, [sp, #36]	; 0x24
 80053d0:	443b      	add	r3, r7
 80053d2:	9309      	str	r3, [sp, #36]	; 0x24
 80053d4:	f89a 3000 	ldrb.w	r3, [sl]
 80053d8:	2b00      	cmp	r3, #0
 80053da:	d18c      	bne.n	80052f6 <_svfiprintf_r+0x3a>
 80053dc:	f8b8 300c 	ldrh.w	r3, [r8, #12]
 80053e0:	065b      	lsls	r3, r3, #25
 80053e2:	bf54      	ite	pl
 80053e4:	9809      	ldrpl	r0, [sp, #36]	; 0x24
 80053e6:	f04f 30ff 	movmi.w	r0, #4294967295	; 0xffffffff
 80053ea:	b01d      	add	sp, #116	; 0x74
 80053ec:	e8bd 8ff0 	ldmia.w	sp!, {r4, r5, r6, r7, r8, r9, sl, fp, pc}
 80053f0:	ebb4 0b0a 	subs.w	fp, r4, sl
 80053f4:	d0f2      	beq.n	80053dc <_svfiprintf_r+0x120>
 80053f6:	465b      	mov	r3, fp
 80053f8:	4652      	mov	r2, sl
 80053fa:	4641      	mov	r1, r8
 80053fc:	4648      	mov	r0, r9
 80053fe:	f7ff fe7f 	bl	8005100 <__ssputs_r>
 8005402:	3001      	adds	r0, #1
 8005404:	d0ea      	beq.n	80053dc <_svfiprintf_r+0x120>
 8005406:	9b09      	ldr	r3, [sp, #36]	; 0x24
 8005408:	7822      	ldrb	r2, [r4, #0]
 800540a:	445b      	add	r3, fp
 800540c:	9309      	str	r3, [sp, #36]	; 0x24
 800540e:	e77e      	b.n	800530e <_svfiprintf_r+0x52>
 8005410:	f1a1 0230 	sub.w	r2, r1, #48	; 0x30
 8005414:	2a09      	cmp	r2, #9
 8005416:	d8b1      	bhi.n	800537c <_svfiprintf_r+0xc0>
 8005418:	9b07      	ldr	r3, [sp, #28]
 800541a:	f81a 1f01 	ldrb.w	r1, [sl, #1]!
 800541e:	eb03 0383 	add.w	r3, r3, r3, lsl #2
 8005422:	eb02 0343 	add.w	r3, r2, r3, lsl #1
 8005426:	f1a1 0230 	sub.w	r2, r1, #48	; 0x30
 800542a:	2a09      	cmp	r2, #9
 800542c:	d9f5      	bls.n	800541a <_svfiprintf_r+0x15e>
 800542e:	292e      	cmp	r1, #46	; 0x2e
 8005430:	9307      	str	r3, [sp, #28]
 8005432:	d1a5      	bne.n	8005380 <_svfiprintf_r+0xc4>
 8005434:	f89a 1001 	ldrb.w	r1, [sl, #1]
 8005438:	292a      	cmp	r1, #42	; 0x2a
 800543a:	d127      	bne.n	800548c <_svfiprintf_r+0x1d0>
 800543c:	9b03      	ldr	r3, [sp, #12]
 800543e:	f89a 1002 	ldrb.w	r1, [sl, #2]
 8005442:	681a      	ldr	r2, [r3, #0]
 8005444:	9205      	str	r2, [sp, #20]
 8005446:	3304      	adds	r3, #4
 8005448:	2a00      	cmp	r2, #0
 800544a:	f10a 0002 	add.w	r0, sl, #2
 800544e:	9303      	str	r3, [sp, #12]
 8005450:	bfb8      	it	lt
 8005452:	f04f 33ff 	movlt.w	r3, #4294967295	; 0xffffffff
 8005456:	4682      	mov	sl, r0
 8005458:	bfb8      	it	lt
 800545a:	9305      	strlt	r3, [sp, #20]
 800545c:	e790      	b.n	8005380 <_svfiprintf_r+0xc4>
 800545e:	9b03      	ldr	r3, [sp, #12]
 8005460:	3307      	adds	r3, #7
 8005462:	f023 0307 	bic.w	r3, r3, #7
 8005466:	3308      	adds	r3, #8
 8005468:	9303      	str	r3, [sp, #12]
 800546a:	e7b0      	b.n	80053ce <_svfiprintf_r+0x112>
 800546c:	4249      	negs	r1, r1
 800546e:	f043 0302 	orr.w	r3, r3, #2
 8005472:	9107      	str	r1, [sp, #28]
 8005474:	9304      	str	r3, [sp, #16]
 8005476:	e77d      	b.n	8005374 <_svfiprintf_r+0xb8>
 8005478:	aa03      	add	r2, sp, #12
 800547a:	9200      	str	r2, [sp, #0]
 800547c:	4b1b      	ldr	r3, [pc, #108]	; (80054ec <_svfiprintf_r+0x230>)
 800547e:	4642      	mov	r2, r8
 8005480:	a904      	add	r1, sp, #16
 8005482:	4648      	mov	r0, r9
 8005484:	f7fb fb08 	bl	8000a98 <_printf_i>
 8005488:	4607      	mov	r7, r0
 800548a:	e79e      	b.n	80053ca <_svfiprintf_r+0x10e>
 800548c:	f1a1 0230 	sub.w	r2, r1, #48	; 0x30
 8005490:	2300      	movs	r3, #0
 8005492:	2a09      	cmp	r2, #9
 8005494:	9305      	str	r3, [sp, #20]
 8005496:	f10a 0a01 	add.w	sl, sl, #1
 800549a:	f63f af71 	bhi.w	8005380 <_svfiprintf_r+0xc4>
 800549e:	f81a 1f01 	ldrb.w	r1, [sl, #1]!
 80054a2:	eb03 0383 	add.w	r3, r3, r3, lsl #2
 80054a6:	eb02 0343 	add.w	r3, r2, r3, lsl #1
 80054aa:	f1a1 0230 	sub.w	r2, r1, #48	; 0x30
 80054ae:	2a09      	cmp	r2, #9
 80054b0:	d9f5      	bls.n	800549e <_svfiprintf_r+0x1e2>
 80054b2:	9305      	str	r3, [sp, #20]
 80054b4:	e764      	b.n	8005380 <_svfiprintf_r+0xc4>
 80054b6:	2140      	movs	r1, #64	; 0x40
 80054b8:	f7ff fdc8 	bl	800504c <_malloc_r>
 80054bc:	f8c8 0000 	str.w	r0, [r8]
 80054c0:	f8c8 0010 	str.w	r0, [r8, #16]
 80054c4:	b118      	cbz	r0, 80054ce <_svfiprintf_r+0x212>
 80054c6:	2240      	movs	r2, #64	; 0x40
 80054c8:	f8c8 2014 	str.w	r2, [r8, #20]
 80054cc:	e704      	b.n	80052d8 <_svfiprintf_r+0x1c>
 80054ce:	230c      	movs	r3, #12
 80054d0:	f8c9 3000 	str.w	r3, [r9]
 80054d4:	f04f 30ff 	mov.w	r0, #4294967295	; 0xffffffff
 80054d8:	e787      	b.n	80053ea <_svfiprintf_r+0x12e>
 80054da:	bf00      	nop
 80054dc:	0800847c 	.word	0x0800847c
 80054e0:	08008484 	.word	0x08008484
 80054e4:	08008488 	.word	0x08008488
 80054e8:	08000439 	.word	0x08000439
 80054ec:	08005101 	.word	0x08005101

080054f0 <__sfputc_r>:
 80054f0:	6893      	ldr	r3, [r2, #8]
 80054f2:	3b01      	subs	r3, #1
 80054f4:	2b00      	cmp	r3, #0
 80054f6:	6093      	str	r3, [r2, #8]
 80054f8:	da11      	bge.n	800551e <__sfputc_r+0x2e>
 80054fa:	b410      	push	{r4}
 80054fc:	6994      	ldr	r4, [r2, #24]
 80054fe:	42a3      	cmp	r3, r4
 8005500:	db09      	blt.n	8005516 <__sfputc_r+0x26>
 8005502:	290a      	cmp	r1, #10
 8005504:	d007      	beq.n	8005516 <__sfputc_r+0x26>
 8005506:	6813      	ldr	r3, [r2, #0]
 8005508:	1c58      	adds	r0, r3, #1
 800550a:	6010      	str	r0, [r2, #0]
 800550c:	7019      	strb	r1, [r3, #0]
 800550e:	4608      	mov	r0, r1
 8005510:	f85d 4b04 	ldr.w	r4, [sp], #4
 8005514:	4770      	bx	lr
 8005516:	f85d 4b04 	ldr.w	r4, [sp], #4
 800551a:	f000 bb2b 	b.w	8005b74 <__swbuf_r>
 800551e:	6813      	ldr	r3, [r2, #0]
 8005520:	1c58      	adds	r0, r3, #1
 8005522:	6010      	str	r0, [r2, #0]
 8005524:	7019      	strb	r1, [r3, #0]
 8005526:	4608      	mov	r0, r1
 8005528:	4770      	bx	lr
 800552a:	bf00      	nop

0800552c <__sfputs_r>:
 800552c:	b19b      	cbz	r3, 8005556 <__sfputs_r+0x2a>
 800552e:	b5f8      	push	{r3, r4, r5, r6, r7, lr}
 8005530:	4413      	add	r3, r2
 8005532:	4606      	mov	r6, r0
 8005534:	460f      	mov	r7, r1
 8005536:	1e54      	subs	r4, r2, #1
 8005538:	1e5d      	subs	r5, r3, #1
 800553a:	e001      	b.n	8005540 <__sfputs_r+0x14>
 800553c:	42ac      	cmp	r4, r5
 800553e:	d008      	beq.n	8005552 <__sfputs_r+0x26>
 8005540:	f814 1f01 	ldrb.w	r1, [r4, #1]!
 8005544:	463a      	mov	r2, r7
 8005546:	4630      	mov	r0, r6
 8005548:	f7ff ffd2 	bl	80054f0 <__sfputc_r>
 800554c:	1c43      	adds	r3, r0, #1
 800554e:	d1f5      	bne.n	800553c <__sfputs_r+0x10>
 8005550:	bdf8      	pop	{r3, r4, r5, r6, r7, pc}
 8005552:	2000      	movs	r0, #0
 8005554:	bdf8      	pop	{r3, r4, r5, r6, r7, pc}
 8005556:	2000      	movs	r0, #0
 8005558:	4770      	bx	lr
 800555a:	bf00      	nop

0800555c <__sprint_r>:
 800555c:	6893      	ldr	r3, [r2, #8]
 800555e:	b510      	push	{r4, lr}
 8005560:	4614      	mov	r4, r2
 8005562:	b913      	cbnz	r3, 800556a <__sprint_r+0xe>
 8005564:	6053      	str	r3, [r2, #4]
 8005566:	4618      	mov	r0, r3
 8005568:	bd10      	pop	{r4, pc}
 800556a:	f000 fd4f 	bl	800600c <__sfvwrite_r>
 800556e:	2300      	movs	r3, #0
 8005570:	e9c4 3301 	strd	r3, r3, [r4, #4]
 8005574:	bd10      	pop	{r4, pc}
 8005576:	bf00      	nop

08005578 <_vfiprintf_r>:
 8005578:	e92d 4ff0 	stmdb	sp!, {r4, r5, r6, r7, r8, r9, sl, fp, lr}
 800557c:	4688      	mov	r8, r1
 800557e:	b09f      	sub	sp, #124	; 0x7c
 8005580:	4615      	mov	r5, r2
 8005582:	461c      	mov	r4, r3
 8005584:	4681      	mov	r9, r0
 8005586:	b118      	cbz	r0, 8005590 <_vfiprintf_r+0x18>
 8005588:	6983      	ldr	r3, [r0, #24]
 800558a:	2b00      	cmp	r3, #0
 800558c:	f000 80a2 	beq.w	80056d4 <_vfiprintf_r+0x15c>
 8005590:	4b92      	ldr	r3, [pc, #584]	; (80057dc <_vfiprintf_r+0x264>)
 8005592:	4598      	cmp	r8, r3
 8005594:	f000 80a4 	beq.w	80056e0 <_vfiprintf_r+0x168>
 8005598:	4b91      	ldr	r3, [pc, #580]	; (80057e0 <_vfiprintf_r+0x268>)
 800559a:	4598      	cmp	r8, r3
 800559c:	f000 80b1 	beq.w	8005702 <_vfiprintf_r+0x18a>
 80055a0:	4b90      	ldr	r3, [pc, #576]	; (80057e4 <_vfiprintf_r+0x26c>)
 80055a2:	4598      	cmp	r8, r3
 80055a4:	bf08      	it	eq
 80055a6:	f8d9 800c 	ldreq.w	r8, [r9, #12]
 80055aa:	f8b8 300c 	ldrh.w	r3, [r8, #12]
 80055ae:	0718      	lsls	r0, r3, #28
 80055b0:	f140 809d 	bpl.w	80056ee <_vfiprintf_r+0x176>
 80055b4:	f8d8 3010 	ldr.w	r3, [r8, #16]
 80055b8:	2b00      	cmp	r3, #0
 80055ba:	f000 8098 	beq.w	80056ee <_vfiprintf_r+0x176>
 80055be:	2300      	movs	r3, #0
 80055c0:	930b      	str	r3, [sp, #44]	; 0x2c
 80055c2:	7829      	ldrb	r1, [r5, #0]
 80055c4:	4e88      	ldr	r6, [pc, #544]	; (80057e8 <_vfiprintf_r+0x270>)
 80055c6:	9405      	str	r4, [sp, #20]
 80055c8:	2320      	movs	r3, #32
 80055ca:	f88d 3031 	strb.w	r3, [sp, #49]	; 0x31
 80055ce:	2330      	movs	r3, #48	; 0x30
 80055d0:	f88d 3032 	strb.w	r3, [sp, #50]	; 0x32
 80055d4:	2701      	movs	r7, #1
 80055d6:	2900      	cmp	r1, #0
 80055d8:	d074      	beq.n	80056c4 <_vfiprintf_r+0x14c>
 80055da:	462c      	mov	r4, r5
 80055dc:	460b      	mov	r3, r1
 80055de:	e004      	b.n	80055ea <_vfiprintf_r+0x72>
 80055e0:	f814 3f01 	ldrb.w	r3, [r4, #1]!
 80055e4:	2b00      	cmp	r3, #0
 80055e6:	f000 808f 	beq.w	8005708 <_vfiprintf_r+0x190>
 80055ea:	2b25      	cmp	r3, #37	; 0x25
 80055ec:	d1f8      	bne.n	80055e0 <_vfiprintf_r+0x68>
 80055ee:	ebb4 0b05 	subs.w	fp, r4, r5
 80055f2:	f040 808c 	bne.w	800570e <_vfiprintf_r+0x196>
 80055f6:	7823      	ldrb	r3, [r4, #0]
 80055f8:	2b00      	cmp	r3, #0
 80055fa:	d063      	beq.n	80056c4 <_vfiprintf_r+0x14c>
 80055fc:	2300      	movs	r3, #0
 80055fe:	f04f 32ff 	mov.w	r2, #4294967295	; 0xffffffff
 8005602:	e9cd 2307 	strd	r2, r3, [sp, #28]
 8005606:	9306      	str	r3, [sp, #24]
 8005608:	9309      	str	r3, [sp, #36]	; 0x24
 800560a:	f88d 305b 	strb.w	r3, [sp, #91]	; 0x5b
 800560e:	931c      	str	r3, [sp, #112]	; 0x70
 8005610:	3401      	adds	r4, #1
 8005612:	e004      	b.n	800561e <_vfiprintf_r+0xa6>
 8005614:	9a06      	ldr	r2, [sp, #24]
 8005616:	fa07 f303 	lsl.w	r3, r7, r3
 800561a:	4313      	orrs	r3, r2
 800561c:	9306      	str	r3, [sp, #24]
 800561e:	4625      	mov	r5, r4
 8005620:	2205      	movs	r2, #5
 8005622:	f814 1b01 	ldrb.w	r1, [r4], #1
 8005626:	4630      	mov	r0, r6
 8005628:	f7fe feda 	bl	80043e0 <memchr>
 800562c:	1b83      	subs	r3, r0, r6
 800562e:	2800      	cmp	r0, #0
 8005630:	d1f0      	bne.n	8005614 <_vfiprintf_r+0x9c>
 8005632:	9b06      	ldr	r3, [sp, #24]
 8005634:	06d9      	lsls	r1, r3, #27
 8005636:	bf44      	itt	mi
 8005638:	2220      	movmi	r2, #32
 800563a:	f88d 205b 	strbmi.w	r2, [sp, #91]	; 0x5b
 800563e:	7829      	ldrb	r1, [r5, #0]
 8005640:	071a      	lsls	r2, r3, #28
 8005642:	bf44      	itt	mi
 8005644:	222b      	movmi	r2, #43	; 0x2b
 8005646:	f88d 205b 	strbmi.w	r2, [sp, #91]	; 0x5b
 800564a:	292a      	cmp	r1, #42	; 0x2a
 800564c:	d170      	bne.n	8005730 <_vfiprintf_r+0x1b8>
 800564e:	9a05      	ldr	r2, [sp, #20]
 8005650:	6811      	ldr	r1, [r2, #0]
 8005652:	3204      	adds	r2, #4
 8005654:	2900      	cmp	r1, #0
 8005656:	9205      	str	r2, [sp, #20]
 8005658:	f2c0 809b 	blt.w	8005792 <_vfiprintf_r+0x21a>
 800565c:	9109      	str	r1, [sp, #36]	; 0x24
 800565e:	7869      	ldrb	r1, [r5, #1]
 8005660:	3501      	adds	r5, #1
 8005662:	292e      	cmp	r1, #46	; 0x2e
 8005664:	d076      	beq.n	8005754 <_vfiprintf_r+0x1dc>
 8005666:	4c61      	ldr	r4, [pc, #388]	; (80057ec <_vfiprintf_r+0x274>)
 8005668:	2203      	movs	r2, #3
 800566a:	4620      	mov	r0, r4
 800566c:	f7fe feb8 	bl	80043e0 <memchr>
 8005670:	b138      	cbz	r0, 8005682 <_vfiprintf_r+0x10a>
 8005672:	9b06      	ldr	r3, [sp, #24]
 8005674:	1b00      	subs	r0, r0, r4
 8005676:	2440      	movs	r4, #64	; 0x40
 8005678:	fa04 f000 	lsl.w	r0, r4, r0
 800567c:	4303      	orrs	r3, r0
 800567e:	9306      	str	r3, [sp, #24]
 8005680:	3501      	adds	r5, #1
 8005682:	f815 1b01 	ldrb.w	r1, [r5], #1
 8005686:	485a      	ldr	r0, [pc, #360]	; (80057f0 <_vfiprintf_r+0x278>)
 8005688:	f88d 1030 	strb.w	r1, [sp, #48]	; 0x30
 800568c:	2206      	movs	r2, #6
 800568e:	f7fe fea7 	bl	80043e0 <memchr>
 8005692:	2800      	cmp	r0, #0
 8005694:	f000 8083 	beq.w	800579e <_vfiprintf_r+0x226>
 8005698:	4b56      	ldr	r3, [pc, #344]	; (80057f4 <_vfiprintf_r+0x27c>)
 800569a:	2b00      	cmp	r3, #0
 800569c:	d06d      	beq.n	800577a <_vfiprintf_r+0x202>
 800569e:	aa05      	add	r2, sp, #20
 80056a0:	9200      	str	r2, [sp, #0]
 80056a2:	4b55      	ldr	r3, [pc, #340]	; (80057f8 <_vfiprintf_r+0x280>)
 80056a4:	4642      	mov	r2, r8
 80056a6:	a906      	add	r1, sp, #24
 80056a8:	4648      	mov	r0, r9
 80056aa:	f7fa fec5 	bl	8000438 <_printf_float>
 80056ae:	9003      	str	r0, [sp, #12]
 80056b0:	9b03      	ldr	r3, [sp, #12]
 80056b2:	3301      	adds	r3, #1
 80056b4:	d006      	beq.n	80056c4 <_vfiprintf_r+0x14c>
 80056b6:	9b0b      	ldr	r3, [sp, #44]	; 0x2c
 80056b8:	9a03      	ldr	r2, [sp, #12]
 80056ba:	7829      	ldrb	r1, [r5, #0]
 80056bc:	4413      	add	r3, r2
 80056be:	930b      	str	r3, [sp, #44]	; 0x2c
 80056c0:	2900      	cmp	r1, #0
 80056c2:	d18a      	bne.n	80055da <_vfiprintf_r+0x62>
 80056c4:	f8b8 300c 	ldrh.w	r3, [r8, #12]
 80056c8:	065b      	lsls	r3, r3, #25
 80056ca:	d417      	bmi.n	80056fc <_vfiprintf_r+0x184>
 80056cc:	980b      	ldr	r0, [sp, #44]	; 0x2c
 80056ce:	b01f      	add	sp, #124	; 0x7c
 80056d0:	e8bd 8ff0 	ldmia.w	sp!, {r4, r5, r6, r7, r8, r9, sl, fp, pc}
 80056d4:	f7fe f9b4 	bl	8003a40 <__sinit>
 80056d8:	4b40      	ldr	r3, [pc, #256]	; (80057dc <_vfiprintf_r+0x264>)
 80056da:	4598      	cmp	r8, r3
 80056dc:	f47f af5c 	bne.w	8005598 <_vfiprintf_r+0x20>
 80056e0:	f8d9 8004 	ldr.w	r8, [r9, #4]
 80056e4:	f8b8 300c 	ldrh.w	r3, [r8, #12]
 80056e8:	0718      	lsls	r0, r3, #28
 80056ea:	f53f af63 	bmi.w	80055b4 <_vfiprintf_r+0x3c>
 80056ee:	4641      	mov	r1, r8
 80056f0:	4648      	mov	r0, r9
 80056f2:	f000 fabb 	bl	8005c6c <__swsetup_r>
 80056f6:	2800      	cmp	r0, #0
 80056f8:	f43f af61 	beq.w	80055be <_vfiprintf_r+0x46>
 80056fc:	f04f 30ff 	mov.w	r0, #4294967295	; 0xffffffff
 8005700:	e7e5      	b.n	80056ce <_vfiprintf_r+0x156>
 8005702:	f8d9 8008 	ldr.w	r8, [r9, #8]
 8005706:	e750      	b.n	80055aa <_vfiprintf_r+0x32>
 8005708:	ebb4 0b05 	subs.w	fp, r4, r5
 800570c:	d0da      	beq.n	80056c4 <_vfiprintf_r+0x14c>
 800570e:	46aa      	mov	sl, r5
 8005710:	f1c5 0501 	rsb	r5, r5, #1
 8005714:	e003      	b.n	800571e <_vfiprintf_r+0x1a6>
 8005716:	4593      	cmp	fp, r2
 8005718:	d936      	bls.n	8005788 <_vfiprintf_r+0x210>
 800571a:	f81a 1f01 	ldrb.w	r1, [sl, #1]!
 800571e:	4642      	mov	r2, r8
 8005720:	4648      	mov	r0, r9
 8005722:	f7ff fee5 	bl	80054f0 <__sfputc_r>
 8005726:	3001      	adds	r0, #1
 8005728:	eb05 020a 	add.w	r2, r5, sl
 800572c:	d1f3      	bne.n	8005716 <_vfiprintf_r+0x19e>
 800572e:	e7c9      	b.n	80056c4 <_vfiprintf_r+0x14c>
 8005730:	f1a1 0230 	sub.w	r2, r1, #48	; 0x30
 8005734:	2a09      	cmp	r2, #9
 8005736:	d894      	bhi.n	8005662 <_vfiprintf_r+0xea>
 8005738:	9b09      	ldr	r3, [sp, #36]	; 0x24
 800573a:	f815 1f01 	ldrb.w	r1, [r5, #1]!
 800573e:	eb03 0383 	add.w	r3, r3, r3, lsl #2
 8005742:	eb02 0343 	add.w	r3, r2, r3, lsl #1
 8005746:	f1a1 0230 	sub.w	r2, r1, #48	; 0x30
 800574a:	2a09      	cmp	r2, #9
 800574c:	d9f5      	bls.n	800573a <_vfiprintf_r+0x1c2>
 800574e:	292e      	cmp	r1, #46	; 0x2e
 8005750:	9309      	str	r3, [sp, #36]	; 0x24
 8005752:	d188      	bne.n	8005666 <_vfiprintf_r+0xee>
 8005754:	7869      	ldrb	r1, [r5, #1]
 8005756:	292a      	cmp	r1, #42	; 0x2a
 8005758:	d12b      	bne.n	80057b2 <_vfiprintf_r+0x23a>
 800575a:	9b05      	ldr	r3, [sp, #20]
 800575c:	78a9      	ldrb	r1, [r5, #2]
 800575e:	681a      	ldr	r2, [r3, #0]
 8005760:	9207      	str	r2, [sp, #28]
 8005762:	3304      	adds	r3, #4
 8005764:	2a00      	cmp	r2, #0
 8005766:	f105 0002 	add.w	r0, r5, #2
 800576a:	9305      	str	r3, [sp, #20]
 800576c:	bfb8      	it	lt
 800576e:	f04f 33ff 	movlt.w	r3, #4294967295	; 0xffffffff
 8005772:	4605      	mov	r5, r0
 8005774:	bfb8      	it	lt
 8005776:	9307      	strlt	r3, [sp, #28]
 8005778:	e775      	b.n	8005666 <_vfiprintf_r+0xee>
 800577a:	9b05      	ldr	r3, [sp, #20]
 800577c:	3307      	adds	r3, #7
 800577e:	f023 0307 	bic.w	r3, r3, #7
 8005782:	3308      	adds	r3, #8
 8005784:	9305      	str	r3, [sp, #20]
 8005786:	e796      	b.n	80056b6 <_vfiprintf_r+0x13e>
 8005788:	9a0b      	ldr	r2, [sp, #44]	; 0x2c
 800578a:	7823      	ldrb	r3, [r4, #0]
 800578c:	445a      	add	r2, fp
 800578e:	920b      	str	r2, [sp, #44]	; 0x2c
 8005790:	e732      	b.n	80055f8 <_vfiprintf_r+0x80>
 8005792:	4249      	negs	r1, r1
 8005794:	f043 0302 	orr.w	r3, r3, #2
 8005798:	9109      	str	r1, [sp, #36]	; 0x24
 800579a:	9306      	str	r3, [sp, #24]
 800579c:	e75f      	b.n	800565e <_vfiprintf_r+0xe6>
 800579e:	aa05      	add	r2, sp, #20
 80057a0:	9200      	str	r2, [sp, #0]
 80057a2:	4b15      	ldr	r3, [pc, #84]	; (80057f8 <_vfiprintf_r+0x280>)
 80057a4:	4642      	mov	r2, r8
 80057a6:	a906      	add	r1, sp, #24
 80057a8:	4648      	mov	r0, r9
 80057aa:	f7fb f975 	bl	8000a98 <_printf_i>
 80057ae:	9003      	str	r0, [sp, #12]
 80057b0:	e77e      	b.n	80056b0 <_vfiprintf_r+0x138>
 80057b2:	f1a1 0230 	sub.w	r2, r1, #48	; 0x30
 80057b6:	2300      	movs	r3, #0
 80057b8:	2a09      	cmp	r2, #9
 80057ba:	9307      	str	r3, [sp, #28]
 80057bc:	f105 0501 	add.w	r5, r5, #1
 80057c0:	f63f af51 	bhi.w	8005666 <_vfiprintf_r+0xee>
 80057c4:	f815 1f01 	ldrb.w	r1, [r5, #1]!
 80057c8:	eb03 0383 	add.w	r3, r3, r3, lsl #2
 80057cc:	eb02 0343 	add.w	r3, r2, r3, lsl #1
 80057d0:	f1a1 0230 	sub.w	r2, r1, #48	; 0x30
 80057d4:	2a09      	cmp	r2, #9
 80057d6:	d9f5      	bls.n	80057c4 <_vfiprintf_r+0x24c>
 80057d8:	9307      	str	r3, [sp, #28]
 80057da:	e744      	b.n	8005666 <_vfiprintf_r+0xee>
 80057dc:	080080e4 	.word	0x080080e4
 80057e0:	080080c4 	.word	0x080080c4
 80057e4:	080080a4 	.word	0x080080a4
 80057e8:	0800847c 	.word	0x0800847c
 80057ec:	08008484 	.word	0x08008484
 80057f0:	08008488 	.word	0x08008488
 80057f4:	08000439 	.word	0x08000439
 80057f8:	0800552d 	.word	0x0800552d

080057fc <vfiprintf>:
 80057fc:	b410      	push	{r4}
 80057fe:	4c05      	ldr	r4, [pc, #20]	; (8005814 <vfiprintf+0x18>)
 8005800:	4684      	mov	ip, r0
 8005802:	4613      	mov	r3, r2
 8005804:	6820      	ldr	r0, [r4, #0]
 8005806:	f85d 4b04 	ldr.w	r4, [sp], #4
 800580a:	460a      	mov	r2, r1
 800580c:	4661      	mov	r1, ip
 800580e:	f7ff beb3 	b.w	8005578 <_vfiprintf_r>
 8005812:	bf00      	nop
 8005814:	20000000 	.word	0x20000000

08005818 <nan>:
 8005818:	ed9f 0b01 	vldr	d0, [pc, #4]	; 8005820 <nan+0x8>
 800581c:	4770      	bx	lr
 800581e:	bf00      	nop
 8005820:	00000000 	.word	0x00000000
 8005824:	7ff80000 	.word	0x7ff80000

08005828 <_sbrk_r>:
 8005828:	b538      	push	{r3, r4, r5, lr}
 800582a:	4d07      	ldr	r5, [pc, #28]	; (8005848 <_sbrk_r+0x20>)
 800582c:	2200      	movs	r2, #0
 800582e:	4604      	mov	r4, r0
 8005830:	4608      	mov	r0, r1
 8005832:	602a      	str	r2, [r5, #0]
 8005834:	f000 ff36 	bl	80066a4 <_sbrk>
 8005838:	1c43      	adds	r3, r0, #1
 800583a:	d000      	beq.n	800583e <_sbrk_r+0x16>
 800583c:	bd38      	pop	{r3, r4, r5, pc}
 800583e:	682b      	ldr	r3, [r5, #0]
 8005840:	2b00      	cmp	r3, #0
 8005842:	d0fb      	beq.n	800583c <_sbrk_r+0x14>
 8005844:	6023      	str	r3, [r4, #0]
 8005846:	bd38      	pop	{r3, r4, r5, pc}
 8005848:	20000280 	.word	0x20000280

0800584c <_init_signal_r>:
 800584c:	b538      	push	{r3, r4, r5, lr}
 800584e:	6c44      	ldr	r4, [r0, #68]	; 0x44
 8005850:	b10c      	cbz	r4, 8005856 <_init_signal_r+0xa>
 8005852:	2000      	movs	r0, #0
 8005854:	bd38      	pop	{r3, r4, r5, pc}
 8005856:	2180      	movs	r1, #128	; 0x80
 8005858:	4605      	mov	r5, r0
 800585a:	f7ff fbf7 	bl	800504c <_malloc_r>
 800585e:	4602      	mov	r2, r0
 8005860:	6468      	str	r0, [r5, #68]	; 0x44
 8005862:	b130      	cbz	r0, 8005872 <_init_signal_r+0x26>
 8005864:	1f03      	subs	r3, r0, #4
 8005866:	327c      	adds	r2, #124	; 0x7c
 8005868:	f843 4f04 	str.w	r4, [r3, #4]!
 800586c:	4293      	cmp	r3, r2
 800586e:	d1fb      	bne.n	8005868 <_init_signal_r+0x1c>
 8005870:	e7ef      	b.n	8005852 <_init_signal_r+0x6>
 8005872:	f04f 30ff 	mov.w	r0, #4294967295	; 0xffffffff
 8005876:	bd38      	pop	{r3, r4, r5, pc}

08005878 <_signal_r>:
 8005878:	291f      	cmp	r1, #31
 800587a:	b5f8      	push	{r3, r4, r5, r6, r7, lr}
 800587c:	4605      	mov	r5, r0
 800587e:	d808      	bhi.n	8005892 <_signal_r+0x1a>
 8005880:	6c46      	ldr	r6, [r0, #68]	; 0x44
 8005882:	460c      	mov	r4, r1
 8005884:	4617      	mov	r7, r2
 8005886:	b14e      	cbz	r6, 800589c <_signal_r+0x24>
 8005888:	f856 0024 	ldr.w	r0, [r6, r4, lsl #2]
 800588c:	f846 7024 	str.w	r7, [r6, r4, lsl #2]
 8005890:	bdf8      	pop	{r3, r4, r5, r6, r7, pc}
 8005892:	2316      	movs	r3, #22
 8005894:	6003      	str	r3, [r0, #0]
 8005896:	f04f 30ff 	mov.w	r0, #4294967295	; 0xffffffff
 800589a:	bdf8      	pop	{r3, r4, r5, r6, r7, pc}
 800589c:	2180      	movs	r1, #128	; 0x80
 800589e:	f7ff fbd5 	bl	800504c <_malloc_r>
 80058a2:	4606      	mov	r6, r0
 80058a4:	6468      	str	r0, [r5, #68]	; 0x44
 80058a6:	b140      	cbz	r0, 80058ba <_signal_r+0x42>
 80058a8:	1f03      	subs	r3, r0, #4
 80058aa:	f100 057c 	add.w	r5, r0, #124	; 0x7c
 80058ae:	2100      	movs	r1, #0
 80058b0:	f843 1f04 	str.w	r1, [r3, #4]!
 80058b4:	429d      	cmp	r5, r3
 80058b6:	d1fb      	bne.n	80058b0 <_signal_r+0x38>
 80058b8:	e7e6      	b.n	8005888 <_signal_r+0x10>
 80058ba:	f04f 30ff 	mov.w	r0, #4294967295	; 0xffffffff
 80058be:	bdf8      	pop	{r3, r4, r5, r6, r7, pc}

080058c0 <_raise_r>:
 80058c0:	291f      	cmp	r1, #31
 80058c2:	b538      	push	{r3, r4, r5, lr}
 80058c4:	4605      	mov	r5, r0
 80058c6:	d820      	bhi.n	800590a <_raise_r+0x4a>
 80058c8:	6c42      	ldr	r2, [r0, #68]	; 0x44
 80058ca:	460c      	mov	r4, r1
 80058cc:	b16a      	cbz	r2, 80058ea <_raise_r+0x2a>
 80058ce:	f852 3021 	ldr.w	r3, [r2, r1, lsl #2]
 80058d2:	b153      	cbz	r3, 80058ea <_raise_r+0x2a>
 80058d4:	2b01      	cmp	r3, #1
 80058d6:	d016      	beq.n	8005906 <_raise_r+0x46>
 80058d8:	1c59      	adds	r1, r3, #1
 80058da:	d010      	beq.n	80058fe <_raise_r+0x3e>
 80058dc:	2500      	movs	r5, #0
 80058de:	4620      	mov	r0, r4
 80058e0:	f842 5024 	str.w	r5, [r2, r4, lsl #2]
 80058e4:	4798      	blx	r3
 80058e6:	4628      	mov	r0, r5
 80058e8:	bd38      	pop	{r3, r4, r5, pc}
 80058ea:	4628      	mov	r0, r5
 80058ec:	f000 f8f8 	bl	8005ae0 <_getpid_r>
 80058f0:	4622      	mov	r2, r4
 80058f2:	4601      	mov	r1, r0
 80058f4:	4628      	mov	r0, r5
 80058f6:	e8bd 4038 	ldmia.w	sp!, {r3, r4, r5, lr}
 80058fa:	f000 b8db 	b.w	8005ab4 <_kill_r>
 80058fe:	2316      	movs	r3, #22
 8005900:	6003      	str	r3, [r0, #0]
 8005902:	2001      	movs	r0, #1
 8005904:	bd38      	pop	{r3, r4, r5, pc}
 8005906:	2000      	movs	r0, #0
 8005908:	bd38      	pop	{r3, r4, r5, pc}
 800590a:	2316      	movs	r3, #22
 800590c:	6003      	str	r3, [r0, #0]
 800590e:	f04f 30ff 	mov.w	r0, #4294967295	; 0xffffffff
 8005912:	bd38      	pop	{r3, r4, r5, pc}

08005914 <__sigtramp_r>:
 8005914:	291f      	cmp	r1, #31
 8005916:	d82a      	bhi.n	800596e <__sigtramp_r+0x5a>
 8005918:	6c42      	ldr	r2, [r0, #68]	; 0x44
 800591a:	b538      	push	{r3, r4, r5, lr}
 800591c:	460c      	mov	r4, r1
 800591e:	4605      	mov	r5, r0
 8005920:	b182      	cbz	r2, 8005944 <__sigtramp_r+0x30>
 8005922:	f852 3024 	ldr.w	r3, [r2, r4, lsl #2]
 8005926:	eb02 0284 	add.w	r2, r2, r4, lsl #2
 800592a:	b14b      	cbz	r3, 8005940 <__sigtramp_r+0x2c>
 800592c:	1c59      	adds	r1, r3, #1
 800592e:	d019      	beq.n	8005964 <__sigtramp_r+0x50>
 8005930:	2b01      	cmp	r3, #1
 8005932:	d015      	beq.n	8005960 <__sigtramp_r+0x4c>
 8005934:	2500      	movs	r5, #0
 8005936:	4620      	mov	r0, r4
 8005938:	6015      	str	r5, [r2, #0]
 800593a:	4798      	blx	r3
 800593c:	4628      	mov	r0, r5
 800593e:	bd38      	pop	{r3, r4, r5, pc}
 8005940:	2001      	movs	r0, #1
 8005942:	bd38      	pop	{r3, r4, r5, pc}
 8005944:	2180      	movs	r1, #128	; 0x80
 8005946:	f7ff fb81 	bl	800504c <_malloc_r>
 800594a:	4602      	mov	r2, r0
 800594c:	6468      	str	r0, [r5, #68]	; 0x44
 800594e:	b158      	cbz	r0, 8005968 <__sigtramp_r+0x54>
 8005950:	1f03      	subs	r3, r0, #4
 8005952:	2100      	movs	r1, #0
 8005954:	307c      	adds	r0, #124	; 0x7c
 8005956:	f843 1f04 	str.w	r1, [r3, #4]!
 800595a:	4298      	cmp	r0, r3
 800595c:	d1fb      	bne.n	8005956 <__sigtramp_r+0x42>
 800595e:	e7e0      	b.n	8005922 <__sigtramp_r+0xe>
 8005960:	2003      	movs	r0, #3
 8005962:	bd38      	pop	{r3, r4, r5, pc}
 8005964:	2002      	movs	r0, #2
 8005966:	bd38      	pop	{r3, r4, r5, pc}
 8005968:	f04f 30ff 	mov.w	r0, #4294967295	; 0xffffffff
 800596c:	bd38      	pop	{r3, r4, r5, pc}
 800596e:	f04f 30ff 	mov.w	r0, #4294967295	; 0xffffffff
 8005972:	4770      	bx	lr

08005974 <raise>:
 8005974:	b538      	push	{r3, r4, r5, lr}
 8005976:	4b14      	ldr	r3, [pc, #80]	; (80059c8 <raise+0x54>)
 8005978:	281f      	cmp	r0, #31
 800597a:	681d      	ldr	r5, [r3, #0]
 800597c:	d81f      	bhi.n	80059be <raise+0x4a>
 800597e:	6c6a      	ldr	r2, [r5, #68]	; 0x44
 8005980:	4604      	mov	r4, r0
 8005982:	b162      	cbz	r2, 800599e <raise+0x2a>
 8005984:	f852 3020 	ldr.w	r3, [r2, r0, lsl #2]
 8005988:	b14b      	cbz	r3, 800599e <raise+0x2a>
 800598a:	2b01      	cmp	r3, #1
 800598c:	d015      	beq.n	80059ba <raise+0x46>
 800598e:	1c59      	adds	r1, r3, #1
 8005990:	d00f      	beq.n	80059b2 <raise+0x3e>
 8005992:	2500      	movs	r5, #0
 8005994:	f842 5020 	str.w	r5, [r2, r0, lsl #2]
 8005998:	4798      	blx	r3
 800599a:	4628      	mov	r0, r5
 800599c:	bd38      	pop	{r3, r4, r5, pc}
 800599e:	4628      	mov	r0, r5
 80059a0:	f000 f89e 	bl	8005ae0 <_getpid_r>
 80059a4:	4622      	mov	r2, r4
 80059a6:	4601      	mov	r1, r0
 80059a8:	4628      	mov	r0, r5
 80059aa:	e8bd 4038 	ldmia.w	sp!, {r3, r4, r5, lr}
 80059ae:	f000 b881 	b.w	8005ab4 <_kill_r>
 80059b2:	2316      	movs	r3, #22
 80059b4:	602b      	str	r3, [r5, #0]
 80059b6:	2001      	movs	r0, #1
 80059b8:	bd38      	pop	{r3, r4, r5, pc}
 80059ba:	2000      	movs	r0, #0
 80059bc:	bd38      	pop	{r3, r4, r5, pc}
 80059be:	2316      	movs	r3, #22
 80059c0:	602b      	str	r3, [r5, #0]
 80059c2:	f04f 30ff 	mov.w	r0, #4294967295	; 0xffffffff
 80059c6:	bd38      	pop	{r3, r4, r5, pc}
 80059c8:	20000000 	.word	0x20000000

080059cc <signal>:
 80059cc:	4b12      	ldr	r3, [pc, #72]	; (8005a18 <signal+0x4c>)
 80059ce:	281f      	cmp	r0, #31
 80059d0:	b570      	push	{r4, r5, r6, lr}
 80059d2:	681e      	ldr	r6, [r3, #0]
 80059d4:	d808      	bhi.n	80059e8 <signal+0x1c>
 80059d6:	460d      	mov	r5, r1
 80059d8:	6c71      	ldr	r1, [r6, #68]	; 0x44
 80059da:	4604      	mov	r4, r0
 80059dc:	b149      	cbz	r1, 80059f2 <signal+0x26>
 80059de:	f851 0024 	ldr.w	r0, [r1, r4, lsl #2]
 80059e2:	f841 5024 	str.w	r5, [r1, r4, lsl #2]
 80059e6:	bd70      	pop	{r4, r5, r6, pc}
 80059e8:	2316      	movs	r3, #22
 80059ea:	6033      	str	r3, [r6, #0]
 80059ec:	f04f 30ff 	mov.w	r0, #4294967295	; 0xffffffff
 80059f0:	bd70      	pop	{r4, r5, r6, pc}
 80059f2:	2180      	movs	r1, #128	; 0x80
 80059f4:	4630      	mov	r0, r6
 80059f6:	f7ff fb29 	bl	800504c <_malloc_r>
 80059fa:	4601      	mov	r1, r0
 80059fc:	6470      	str	r0, [r6, #68]	; 0x44
 80059fe:	b140      	cbz	r0, 8005a12 <signal+0x46>
 8005a00:	1f03      	subs	r3, r0, #4
 8005a02:	f100 0c7c 	add.w	ip, r0, #124	; 0x7c
 8005a06:	2200      	movs	r2, #0
 8005a08:	f843 2f04 	str.w	r2, [r3, #4]!
 8005a0c:	4563      	cmp	r3, ip
 8005a0e:	d1fb      	bne.n	8005a08 <signal+0x3c>
 8005a10:	e7e5      	b.n	80059de <signal+0x12>
 8005a12:	f04f 30ff 	mov.w	r0, #4294967295	; 0xffffffff
 8005a16:	bd70      	pop	{r4, r5, r6, pc}
 8005a18:	20000000 	.word	0x20000000

08005a1c <_init_signal>:
 8005a1c:	b538      	push	{r3, r4, r5, lr}
 8005a1e:	4b0b      	ldr	r3, [pc, #44]	; (8005a4c <_init_signal+0x30>)
 8005a20:	681d      	ldr	r5, [r3, #0]
 8005a22:	6c6c      	ldr	r4, [r5, #68]	; 0x44
 8005a24:	b10c      	cbz	r4, 8005a2a <_init_signal+0xe>
 8005a26:	2000      	movs	r0, #0
 8005a28:	bd38      	pop	{r3, r4, r5, pc}
 8005a2a:	2180      	movs	r1, #128	; 0x80
 8005a2c:	4628      	mov	r0, r5
 8005a2e:	f7ff fb0d 	bl	800504c <_malloc_r>
 8005a32:	6468      	str	r0, [r5, #68]	; 0x44
 8005a34:	b138      	cbz	r0, 8005a46 <_init_signal+0x2a>
 8005a36:	1f03      	subs	r3, r0, #4
 8005a38:	f100 027c 	add.w	r2, r0, #124	; 0x7c
 8005a3c:	f843 4f04 	str.w	r4, [r3, #4]!
 8005a40:	4293      	cmp	r3, r2
 8005a42:	d1fb      	bne.n	8005a3c <_init_signal+0x20>
 8005a44:	e7ef      	b.n	8005a26 <_init_signal+0xa>
 8005a46:	f04f 30ff 	mov.w	r0, #4294967295	; 0xffffffff
 8005a4a:	bd38      	pop	{r3, r4, r5, pc}
 8005a4c:	20000000 	.word	0x20000000

08005a50 <__sigtramp>:
 8005a50:	b538      	push	{r3, r4, r5, lr}
 8005a52:	4b17      	ldr	r3, [pc, #92]	; (8005ab0 <__sigtramp+0x60>)
 8005a54:	281f      	cmp	r0, #31
 8005a56:	681d      	ldr	r5, [r3, #0]
 8005a58:	d826      	bhi.n	8005aa8 <__sigtramp+0x58>
 8005a5a:	6c6a      	ldr	r2, [r5, #68]	; 0x44
 8005a5c:	4604      	mov	r4, r0
 8005a5e:	b182      	cbz	r2, 8005a82 <__sigtramp+0x32>
 8005a60:	f852 3024 	ldr.w	r3, [r2, r4, lsl #2]
 8005a64:	eb02 0284 	add.w	r2, r2, r4, lsl #2
 8005a68:	b14b      	cbz	r3, 8005a7e <__sigtramp+0x2e>
 8005a6a:	1c59      	adds	r1, r3, #1
 8005a6c:	d01a      	beq.n	8005aa4 <__sigtramp+0x54>
 8005a6e:	2b01      	cmp	r3, #1
 8005a70:	d016      	beq.n	8005aa0 <__sigtramp+0x50>
 8005a72:	2500      	movs	r5, #0
 8005a74:	4620      	mov	r0, r4
 8005a76:	6015      	str	r5, [r2, #0]
 8005a78:	4798      	blx	r3
 8005a7a:	4628      	mov	r0, r5
 8005a7c:	bd38      	pop	{r3, r4, r5, pc}
 8005a7e:	2001      	movs	r0, #1
 8005a80:	bd38      	pop	{r3, r4, r5, pc}
 8005a82:	2180      	movs	r1, #128	; 0x80
 8005a84:	4628      	mov	r0, r5
 8005a86:	f7ff fae1 	bl	800504c <_malloc_r>
 8005a8a:	4602      	mov	r2, r0
 8005a8c:	6468      	str	r0, [r5, #68]	; 0x44
 8005a8e:	b158      	cbz	r0, 8005aa8 <__sigtramp+0x58>
 8005a90:	1f03      	subs	r3, r0, #4
 8005a92:	2100      	movs	r1, #0
 8005a94:	307c      	adds	r0, #124	; 0x7c
 8005a96:	f843 1f04 	str.w	r1, [r3, #4]!
 8005a9a:	4283      	cmp	r3, r0
 8005a9c:	d1fb      	bne.n	8005a96 <__sigtramp+0x46>
 8005a9e:	e7df      	b.n	8005a60 <__sigtramp+0x10>
 8005aa0:	2003      	movs	r0, #3
 8005aa2:	bd38      	pop	{r3, r4, r5, pc}
 8005aa4:	2002      	movs	r0, #2
 8005aa6:	bd38      	pop	{r3, r4, r5, pc}
 8005aa8:	f04f 30ff 	mov.w	r0, #4294967295	; 0xffffffff
 8005aac:	bd38      	pop	{r3, r4, r5, pc}
 8005aae:	bf00      	nop
 8005ab0:	20000000 	.word	0x20000000

08005ab4 <_kill_r>:
 8005ab4:	b570      	push	{r4, r5, r6, lr}
 8005ab6:	460c      	mov	r4, r1
 8005ab8:	4d08      	ldr	r5, [pc, #32]	; (8005adc <_kill_r+0x28>)
 8005aba:	4603      	mov	r3, r0
 8005abc:	2600      	movs	r6, #0
 8005abe:	4620      	mov	r0, r4
 8005ac0:	4611      	mov	r1, r2
 8005ac2:	461c      	mov	r4, r3
 8005ac4:	602e      	str	r6, [r5, #0]
 8005ac6:	f000 fdd5 	bl	8006674 <_kill>
 8005aca:	1c43      	adds	r3, r0, #1
 8005acc:	d000      	beq.n	8005ad0 <_kill_r+0x1c>
 8005ace:	bd70      	pop	{r4, r5, r6, pc}
 8005ad0:	682b      	ldr	r3, [r5, #0]
 8005ad2:	2b00      	cmp	r3, #0
 8005ad4:	d0fb      	beq.n	8005ace <_kill_r+0x1a>
 8005ad6:	6023      	str	r3, [r4, #0]
 8005ad8:	bd70      	pop	{r4, r5, r6, pc}
 8005ada:	bf00      	nop
 8005adc:	20000280 	.word	0x20000280

08005ae0 <_getpid_r>:
 8005ae0:	f000 bdb8 	b.w	8006654 <_getpid>

08005ae4 <__sread>:
 8005ae4:	b510      	push	{r4, lr}
 8005ae6:	460c      	mov	r4, r1
 8005ae8:	f9b1 100e 	ldrsh.w	r1, [r1, #14]
 8005aec:	f000 fd52 	bl	8006594 <_read_r>
 8005af0:	2800      	cmp	r0, #0
 8005af2:	db03      	blt.n	8005afc <__sread+0x18>
 8005af4:	6d63      	ldr	r3, [r4, #84]	; 0x54
 8005af6:	4403      	add	r3, r0
 8005af8:	6563      	str	r3, [r4, #84]	; 0x54
 8005afa:	bd10      	pop	{r4, pc}
 8005afc:	89a3      	ldrh	r3, [r4, #12]
 8005afe:	f423 5380 	bic.w	r3, r3, #4096	; 0x1000
 8005b02:	81a3      	strh	r3, [r4, #12]
 8005b04:	bd10      	pop	{r4, pc}
 8005b06:	bf00      	nop

08005b08 <__seofread>:
 8005b08:	2000      	movs	r0, #0
 8005b0a:	4770      	bx	lr

08005b0c <__swrite>:
 8005b0c:	e92d 41f0 	stmdb	sp!, {r4, r5, r6, r7, r8, lr}
 8005b10:	460c      	mov	r4, r1
 8005b12:	f9b1 100c 	ldrsh.w	r1, [r1, #12]
 8005b16:	461f      	mov	r7, r3
 8005b18:	05cb      	lsls	r3, r1, #23
 8005b1a:	4605      	mov	r5, r0
 8005b1c:	4616      	mov	r6, r2
 8005b1e:	d40b      	bmi.n	8005b38 <__swrite+0x2c>
 8005b20:	f421 5180 	bic.w	r1, r1, #4096	; 0x1000
 8005b24:	81a1      	strh	r1, [r4, #12]
 8005b26:	463b      	mov	r3, r7
 8005b28:	f9b4 100e 	ldrsh.w	r1, [r4, #14]
 8005b2c:	4632      	mov	r2, r6
 8005b2e:	4628      	mov	r0, r5
 8005b30:	e8bd 41f0 	ldmia.w	sp!, {r4, r5, r6, r7, r8, lr}
 8005b34:	f7fc be1a 	b.w	800276c <_write_r>
 8005b38:	f9b4 100e 	ldrsh.w	r1, [r4, #14]
 8005b3c:	2302      	movs	r3, #2
 8005b3e:	2200      	movs	r2, #0
 8005b40:	f000 fbdc 	bl	80062fc <_lseek_r>
 8005b44:	f9b4 100c 	ldrsh.w	r1, [r4, #12]
 8005b48:	e7ea      	b.n	8005b20 <__swrite+0x14>
 8005b4a:	bf00      	nop

08005b4c <__sseek>:
 8005b4c:	b510      	push	{r4, lr}
 8005b4e:	460c      	mov	r4, r1
 8005b50:	f9b1 100e 	ldrsh.w	r1, [r1, #14]
 8005b54:	f000 fbd2 	bl	80062fc <_lseek_r>
 8005b58:	89a3      	ldrh	r3, [r4, #12]
 8005b5a:	1c42      	adds	r2, r0, #1
 8005b5c:	bf0e      	itee	eq
 8005b5e:	f423 5380 	biceq.w	r3, r3, #4096	; 0x1000
 8005b62:	f443 5380 	orrne.w	r3, r3, #4096	; 0x1000
 8005b66:	6560      	strne	r0, [r4, #84]	; 0x54
 8005b68:	81a3      	strh	r3, [r4, #12]
 8005b6a:	bd10      	pop	{r4, pc}

08005b6c <__sclose>:
 8005b6c:	f9b1 100e 	ldrsh.w	r1, [r1, #14]
 8005b70:	f000 b924 	b.w	8005dbc <_close_r>

08005b74 <__swbuf_r>:
 8005b74:	b5f8      	push	{r3, r4, r5, r6, r7, lr}
 8005b76:	460d      	mov	r5, r1
 8005b78:	4614      	mov	r4, r2
 8005b7a:	4606      	mov	r6, r0
 8005b7c:	b108      	cbz	r0, 8005b82 <__swbuf_r+0xe>
 8005b7e:	6983      	ldr	r3, [r0, #24]
 8005b80:	b343      	cbz	r3, 8005bd4 <__swbuf_r+0x60>
 8005b82:	4b25      	ldr	r3, [pc, #148]	; (8005c18 <__swbuf_r+0xa4>)
 8005b84:	429c      	cmp	r4, r3
 8005b86:	d02a      	beq.n	8005bde <__swbuf_r+0x6a>
 8005b88:	4b24      	ldr	r3, [pc, #144]	; (8005c1c <__swbuf_r+0xa8>)
 8005b8a:	429c      	cmp	r4, r3
 8005b8c:	d029      	beq.n	8005be2 <__swbuf_r+0x6e>
 8005b8e:	4b24      	ldr	r3, [pc, #144]	; (8005c20 <__swbuf_r+0xac>)
 8005b90:	429c      	cmp	r4, r3
 8005b92:	bf08      	it	eq
 8005b94:	68f4      	ldreq	r4, [r6, #12]
 8005b96:	89a3      	ldrh	r3, [r4, #12]
 8005b98:	69a2      	ldr	r2, [r4, #24]
 8005b9a:	60a2      	str	r2, [r4, #8]
 8005b9c:	071a      	lsls	r2, r3, #28
 8005b9e:	d522      	bpl.n	8005be6 <__swbuf_r+0x72>
 8005ba0:	6923      	ldr	r3, [r4, #16]
 8005ba2:	b303      	cbz	r3, 8005be6 <__swbuf_r+0x72>
 8005ba4:	6822      	ldr	r2, [r4, #0]
 8005ba6:	6961      	ldr	r1, [r4, #20]
 8005ba8:	1ad3      	subs	r3, r2, r3
 8005baa:	b2ed      	uxtb	r5, r5
 8005bac:	4299      	cmp	r1, r3
 8005bae:	462f      	mov	r7, r5
 8005bb0:	dd29      	ble.n	8005c06 <__swbuf_r+0x92>
 8005bb2:	3301      	adds	r3, #1
 8005bb4:	68a1      	ldr	r1, [r4, #8]
 8005bb6:	3901      	subs	r1, #1
 8005bb8:	60a1      	str	r1, [r4, #8]
 8005bba:	1c51      	adds	r1, r2, #1
 8005bbc:	6021      	str	r1, [r4, #0]
 8005bbe:	7015      	strb	r5, [r2, #0]
 8005bc0:	6962      	ldr	r2, [r4, #20]
 8005bc2:	429a      	cmp	r2, r3
 8005bc4:	d016      	beq.n	8005bf4 <__swbuf_r+0x80>
 8005bc6:	89a3      	ldrh	r3, [r4, #12]
 8005bc8:	07db      	lsls	r3, r3, #31
 8005bca:	d501      	bpl.n	8005bd0 <__swbuf_r+0x5c>
 8005bcc:	2d0a      	cmp	r5, #10
 8005bce:	d011      	beq.n	8005bf4 <__swbuf_r+0x80>
 8005bd0:	4638      	mov	r0, r7
 8005bd2:	bdf8      	pop	{r3, r4, r5, r6, r7, pc}
 8005bd4:	f7fd ff34 	bl	8003a40 <__sinit>
 8005bd8:	4b0f      	ldr	r3, [pc, #60]	; (8005c18 <__swbuf_r+0xa4>)
 8005bda:	429c      	cmp	r4, r3
 8005bdc:	d1d4      	bne.n	8005b88 <__swbuf_r+0x14>
 8005bde:	6874      	ldr	r4, [r6, #4]
 8005be0:	e7d9      	b.n	8005b96 <__swbuf_r+0x22>
 8005be2:	68b4      	ldr	r4, [r6, #8]
 8005be4:	e7d7      	b.n	8005b96 <__swbuf_r+0x22>
 8005be6:	4621      	mov	r1, r4
 8005be8:	4630      	mov	r0, r6
 8005bea:	f000 f83f 	bl	8005c6c <__swsetup_r>
 8005bee:	b938      	cbnz	r0, 8005c00 <__swbuf_r+0x8c>
 8005bf0:	6923      	ldr	r3, [r4, #16]
 8005bf2:	e7d7      	b.n	8005ba4 <__swbuf_r+0x30>
 8005bf4:	4621      	mov	r1, r4
 8005bf6:	4630      	mov	r0, r6
 8005bf8:	f000 f97c 	bl	8005ef4 <_fflush_r>
 8005bfc:	2800      	cmp	r0, #0
 8005bfe:	d0e7      	beq.n	8005bd0 <__swbuf_r+0x5c>
 8005c00:	f04f 37ff 	mov.w	r7, #4294967295	; 0xffffffff
 8005c04:	e7e4      	b.n	8005bd0 <__swbuf_r+0x5c>
 8005c06:	4621      	mov	r1, r4
 8005c08:	4630      	mov	r0, r6
 8005c0a:	f000 f973 	bl	8005ef4 <_fflush_r>
 8005c0e:	2800      	cmp	r0, #0
 8005c10:	d1f6      	bne.n	8005c00 <__swbuf_r+0x8c>
 8005c12:	6822      	ldr	r2, [r4, #0]
 8005c14:	2301      	movs	r3, #1
 8005c16:	e7cd      	b.n	8005bb4 <__swbuf_r+0x40>
 8005c18:	080080e4 	.word	0x080080e4
 8005c1c:	080080c4 	.word	0x080080c4
 8005c20:	080080a4 	.word	0x080080a4

08005c24 <__swbuf>:
 8005c24:	b410      	push	{r4}
 8005c26:	4c04      	ldr	r4, [pc, #16]	; (8005c38 <__swbuf+0x14>)
 8005c28:	4603      	mov	r3, r0
 8005c2a:	460a      	mov	r2, r1
 8005c2c:	6820      	ldr	r0, [r4, #0]
 8005c2e:	f85d 4b04 	ldr.w	r4, [sp], #4
 8005c32:	4619      	mov	r1, r3
 8005c34:	f7ff bf9e 	b.w	8005b74 <__swbuf_r>
 8005c38:	20000000 	.word	0x20000000

08005c3c <_wctomb_r>:
 8005c3c:	b410      	push	{r4}
 8005c3e:	4c03      	ldr	r4, [pc, #12]	; (8005c4c <_wctomb_r+0x10>)
 8005c40:	f8d4 40e0 	ldr.w	r4, [r4, #224]	; 0xe0
 8005c44:	46a4      	mov	ip, r4
 8005c46:	f85d 4b04 	ldr.w	r4, [sp], #4
 8005c4a:	4760      	bx	ip
 8005c4c:	20000068 	.word	0x20000068

08005c50 <__ascii_wctomb>:
 8005c50:	b149      	cbz	r1, 8005c66 <__ascii_wctomb+0x16>
 8005c52:	2aff      	cmp	r2, #255	; 0xff
 8005c54:	d802      	bhi.n	8005c5c <__ascii_wctomb+0xc>
 8005c56:	700a      	strb	r2, [r1, #0]
 8005c58:	2001      	movs	r0, #1
 8005c5a:	4770      	bx	lr
 8005c5c:	238a      	movs	r3, #138	; 0x8a
 8005c5e:	6003      	str	r3, [r0, #0]
 8005c60:	f04f 30ff 	mov.w	r0, #4294967295	; 0xffffffff
 8005c64:	4770      	bx	lr
 8005c66:	4608      	mov	r0, r1
 8005c68:	4770      	bx	lr
 8005c6a:	bf00      	nop

08005c6c <__swsetup_r>:
 8005c6c:	4b3c      	ldr	r3, [pc, #240]	; (8005d60 <__swsetup_r+0xf4>)
 8005c6e:	b570      	push	{r4, r5, r6, lr}
 8005c70:	681d      	ldr	r5, [r3, #0]
 8005c72:	4606      	mov	r6, r0
 8005c74:	460c      	mov	r4, r1
 8005c76:	b10d      	cbz	r5, 8005c7c <__swsetup_r+0x10>
 8005c78:	69ab      	ldr	r3, [r5, #24]
 8005c7a:	b1e3      	cbz	r3, 8005cb6 <__swsetup_r+0x4a>
 8005c7c:	4b39      	ldr	r3, [pc, #228]	; (8005d64 <__swsetup_r+0xf8>)
 8005c7e:	429c      	cmp	r4, r3
 8005c80:	d01f      	beq.n	8005cc2 <__swsetup_r+0x56>
 8005c82:	4b39      	ldr	r3, [pc, #228]	; (8005d68 <__swsetup_r+0xfc>)
 8005c84:	429c      	cmp	r4, r3
 8005c86:	d04d      	beq.n	8005d24 <__swsetup_r+0xb8>
 8005c88:	4b38      	ldr	r3, [pc, #224]	; (8005d6c <__swsetup_r+0x100>)
 8005c8a:	429c      	cmp	r4, r3
 8005c8c:	bf08      	it	eq
 8005c8e:	68ec      	ldreq	r4, [r5, #12]
 8005c90:	f9b4 300c 	ldrsh.w	r3, [r4, #12]
 8005c94:	0718      	lsls	r0, r3, #28
 8005c96:	b29a      	uxth	r2, r3
 8005c98:	d519      	bpl.n	8005cce <__swsetup_r+0x62>
 8005c9a:	6921      	ldr	r1, [r4, #16]
 8005c9c:	b311      	cbz	r1, 8005ce4 <__swsetup_r+0x78>
 8005c9e:	f012 0001 	ands.w	r0, r2, #1
 8005ca2:	d02f      	beq.n	8005d04 <__swsetup_r+0x98>
 8005ca4:	2000      	movs	r0, #0
 8005ca6:	60a0      	str	r0, [r4, #8]
 8005ca8:	6960      	ldr	r0, [r4, #20]
 8005caa:	4240      	negs	r0, r0
 8005cac:	61a0      	str	r0, [r4, #24]
 8005cae:	2900      	cmp	r1, #0
 8005cb0:	d02e      	beq.n	8005d10 <__swsetup_r+0xa4>
 8005cb2:	2000      	movs	r0, #0
 8005cb4:	bd70      	pop	{r4, r5, r6, pc}
 8005cb6:	4628      	mov	r0, r5
 8005cb8:	f7fd fec2 	bl	8003a40 <__sinit>
 8005cbc:	4b29      	ldr	r3, [pc, #164]	; (8005d64 <__swsetup_r+0xf8>)
 8005cbe:	429c      	cmp	r4, r3
 8005cc0:	d1df      	bne.n	8005c82 <__swsetup_r+0x16>
 8005cc2:	686c      	ldr	r4, [r5, #4]
 8005cc4:	f9b4 300c 	ldrsh.w	r3, [r4, #12]
 8005cc8:	0718      	lsls	r0, r3, #28
 8005cca:	b29a      	uxth	r2, r3
 8005ccc:	d4e5      	bmi.n	8005c9a <__swsetup_r+0x2e>
 8005cce:	06d1      	lsls	r1, r2, #27
 8005cd0:	d53e      	bpl.n	8005d50 <__swsetup_r+0xe4>
 8005cd2:	0752      	lsls	r2, r2, #29
 8005cd4:	d428      	bmi.n	8005d28 <__swsetup_r+0xbc>
 8005cd6:	6921      	ldr	r1, [r4, #16]
 8005cd8:	f043 0308 	orr.w	r3, r3, #8
 8005cdc:	81a3      	strh	r3, [r4, #12]
 8005cde:	b29a      	uxth	r2, r3
 8005ce0:	2900      	cmp	r1, #0
 8005ce2:	d1dc      	bne.n	8005c9e <__swsetup_r+0x32>
 8005ce4:	f402 7020 	and.w	r0, r2, #640	; 0x280
 8005ce8:	f5b0 7f00 	cmp.w	r0, #512	; 0x200
 8005cec:	d0d7      	beq.n	8005c9e <__swsetup_r+0x32>
 8005cee:	4621      	mov	r1, r4
 8005cf0:	4630      	mov	r0, r6
 8005cf2:	f000 fb19 	bl	8006328 <__smakebuf_r>
 8005cf6:	f9b4 300c 	ldrsh.w	r3, [r4, #12]
 8005cfa:	6921      	ldr	r1, [r4, #16]
 8005cfc:	b29a      	uxth	r2, r3
 8005cfe:	f012 0001 	ands.w	r0, r2, #1
 8005d02:	d1cf      	bne.n	8005ca4 <__swsetup_r+0x38>
 8005d04:	0795      	lsls	r5, r2, #30
 8005d06:	bf58      	it	pl
 8005d08:	6960      	ldrpl	r0, [r4, #20]
 8005d0a:	60a0      	str	r0, [r4, #8]
 8005d0c:	2900      	cmp	r1, #0
 8005d0e:	d1d0      	bne.n	8005cb2 <__swsetup_r+0x46>
 8005d10:	0612      	lsls	r2, r2, #24
 8005d12:	bf58      	it	pl
 8005d14:	4608      	movpl	r0, r1
 8005d16:	d5cd      	bpl.n	8005cb4 <__swsetup_r+0x48>
 8005d18:	f043 0340 	orr.w	r3, r3, #64	; 0x40
 8005d1c:	81a3      	strh	r3, [r4, #12]
 8005d1e:	f04f 30ff 	mov.w	r0, #4294967295	; 0xffffffff
 8005d22:	bd70      	pop	{r4, r5, r6, pc}
 8005d24:	68ac      	ldr	r4, [r5, #8]
 8005d26:	e7b3      	b.n	8005c90 <__swsetup_r+0x24>
 8005d28:	6b61      	ldr	r1, [r4, #52]	; 0x34
 8005d2a:	b151      	cbz	r1, 8005d42 <__swsetup_r+0xd6>
 8005d2c:	f104 0244 	add.w	r2, r4, #68	; 0x44
 8005d30:	4291      	cmp	r1, r2
 8005d32:	d004      	beq.n	8005d3e <__swsetup_r+0xd2>
 8005d34:	4630      	mov	r0, r6
 8005d36:	f7ff f927 	bl	8004f88 <_free_r>
 8005d3a:	f9b4 300c 	ldrsh.w	r3, [r4, #12]
 8005d3e:	2200      	movs	r2, #0
 8005d40:	6362      	str	r2, [r4, #52]	; 0x34
 8005d42:	6921      	ldr	r1, [r4, #16]
 8005d44:	2200      	movs	r2, #0
 8005d46:	e9c4 1200 	strd	r1, r2, [r4]
 8005d4a:	f023 0324 	bic.w	r3, r3, #36	; 0x24
 8005d4e:	e7c3      	b.n	8005cd8 <__swsetup_r+0x6c>
 8005d50:	2209      	movs	r2, #9
 8005d52:	f043 0340 	orr.w	r3, r3, #64	; 0x40
 8005d56:	6032      	str	r2, [r6, #0]
 8005d58:	f04f 30ff 	mov.w	r0, #4294967295	; 0xffffffff
 8005d5c:	81a3      	strh	r3, [r4, #12]
 8005d5e:	bd70      	pop	{r4, r5, r6, pc}
 8005d60:	20000000 	.word	0x20000000
 8005d64:	080080e4 	.word	0x080080e4
 8005d68:	080080c4 	.word	0x080080c4
 8005d6c:	080080a4 	.word	0x080080a4

08005d70 <__assert_func>:
 8005d70:	b500      	push	{lr}
 8005d72:	4c0b      	ldr	r4, [pc, #44]	; (8005da0 <__assert_func+0x30>)
 8005d74:	6825      	ldr	r5, [r4, #0]
 8005d76:	4614      	mov	r4, r2
 8005d78:	68ee      	ldr	r6, [r5, #12]
 8005d7a:	461a      	mov	r2, r3
 8005d7c:	b085      	sub	sp, #20
 8005d7e:	4603      	mov	r3, r0
 8005d80:	460d      	mov	r5, r1
 8005d82:	b14c      	cbz	r4, 8005d98 <__assert_func+0x28>
 8005d84:	4907      	ldr	r1, [pc, #28]	; (8005da4 <__assert_func+0x34>)
 8005d86:	9500      	str	r5, [sp, #0]
 8005d88:	e9cd 1401 	strd	r1, r4, [sp, #4]
 8005d8c:	4630      	mov	r0, r6
 8005d8e:	4906      	ldr	r1, [pc, #24]	; (8005da8 <__assert_func+0x38>)
 8005d90:	f000 f928 	bl	8005fe4 <fiprintf>
 8005d94:	f000 fc14 	bl	80065c0 <abort>
 8005d98:	4904      	ldr	r1, [pc, #16]	; (8005dac <__assert_func+0x3c>)
 8005d9a:	460c      	mov	r4, r1
 8005d9c:	e7f3      	b.n	8005d86 <__assert_func+0x16>
 8005d9e:	bf00      	nop
 8005da0:	20000000 	.word	0x20000000
 8005da4:	08008490 	.word	0x08008490
 8005da8:	080084a0 	.word	0x080084a0
 8005dac:	0800849c 	.word	0x0800849c

08005db0 <__assert>:
 8005db0:	b508      	push	{r3, lr}
 8005db2:	4613      	mov	r3, r2
 8005db4:	2200      	movs	r2, #0
 8005db6:	f7ff ffdb 	bl	8005d70 <__assert_func>
 8005dba:	bf00      	nop

08005dbc <_close_r>:
 8005dbc:	b538      	push	{r3, r4, r5, lr}
 8005dbe:	4d07      	ldr	r5, [pc, #28]	; (8005ddc <_close_r+0x20>)
 8005dc0:	2200      	movs	r2, #0
 8005dc2:	4604      	mov	r4, r0
 8005dc4:	4608      	mov	r0, r1
 8005dc6:	602a      	str	r2, [r5, #0]
 8005dc8:	f000 fc34 	bl	8006634 <_close>
 8005dcc:	1c43      	adds	r3, r0, #1
 8005dce:	d000      	beq.n	8005dd2 <_close_r+0x16>
 8005dd0:	bd38      	pop	{r3, r4, r5, pc}
 8005dd2:	682b      	ldr	r3, [r5, #0]
 8005dd4:	2b00      	cmp	r3, #0
 8005dd6:	d0fb      	beq.n	8005dd0 <_close_r+0x14>
 8005dd8:	6023      	str	r3, [r4, #0]
 8005dda:	bd38      	pop	{r3, r4, r5, pc}
 8005ddc:	20000280 	.word	0x20000280

08005de0 <__sflush_r>:
 8005de0:	898b      	ldrh	r3, [r1, #12]
 8005de2:	071a      	lsls	r2, r3, #28
 8005de4:	e92d 41f0 	stmdb	sp!, {r4, r5, r6, r7, r8, lr}
 8005de8:	460c      	mov	r4, r1
 8005dea:	4680      	mov	r8, r0
 8005dec:	d43f      	bmi.n	8005e6e <__sflush_r+0x8e>
 8005dee:	684a      	ldr	r2, [r1, #4]
 8005df0:	2a00      	cmp	r2, #0
 8005df2:	dd58      	ble.n	8005ea6 <__sflush_r+0xc6>
 8005df4:	6ae6      	ldr	r6, [r4, #44]	; 0x2c
 8005df6:	2e00      	cmp	r6, #0
 8005df8:	d052      	beq.n	8005ea0 <__sflush_r+0xc0>
 8005dfa:	2200      	movs	r2, #0
 8005dfc:	f8d8 5000 	ldr.w	r5, [r8]
 8005e00:	f8c8 2000 	str.w	r2, [r8]
 8005e04:	f413 5280 	ands.w	r2, r3, #4096	; 0x1000
 8005e08:	d151      	bne.n	8005eae <__sflush_r+0xce>
 8005e0a:	2301      	movs	r3, #1
 8005e0c:	6a21      	ldr	r1, [r4, #32]
 8005e0e:	4640      	mov	r0, r8
 8005e10:	47b0      	blx	r6
 8005e12:	1c43      	adds	r3, r0, #1
 8005e14:	d05e      	beq.n	8005ed4 <__sflush_r+0xf4>
 8005e16:	89a3      	ldrh	r3, [r4, #12]
 8005e18:	6ae6      	ldr	r6, [r4, #44]	; 0x2c
 8005e1a:	075f      	lsls	r7, r3, #29
 8005e1c:	d505      	bpl.n	8005e2a <__sflush_r+0x4a>
 8005e1e:	6863      	ldr	r3, [r4, #4]
 8005e20:	1ac0      	subs	r0, r0, r3
 8005e22:	6b63      	ldr	r3, [r4, #52]	; 0x34
 8005e24:	b10b      	cbz	r3, 8005e2a <__sflush_r+0x4a>
 8005e26:	6c23      	ldr	r3, [r4, #64]	; 0x40
 8005e28:	1ac0      	subs	r0, r0, r3
 8005e2a:	6a21      	ldr	r1, [r4, #32]
 8005e2c:	4602      	mov	r2, r0
 8005e2e:	2300      	movs	r3, #0
 8005e30:	4640      	mov	r0, r8
 8005e32:	47b0      	blx	r6
 8005e34:	1c41      	adds	r1, r0, #1
 8005e36:	d13c      	bne.n	8005eb2 <__sflush_r+0xd2>
 8005e38:	f8d8 3000 	ldr.w	r3, [r8]
 8005e3c:	2b00      	cmp	r3, #0
 8005e3e:	d038      	beq.n	8005eb2 <__sflush_r+0xd2>
 8005e40:	2b1d      	cmp	r3, #29
 8005e42:	d001      	beq.n	8005e48 <__sflush_r+0x68>
 8005e44:	2b16      	cmp	r3, #22
 8005e46:	d14d      	bne.n	8005ee4 <__sflush_r+0x104>
 8005e48:	6923      	ldr	r3, [r4, #16]
 8005e4a:	2200      	movs	r2, #0
 8005e4c:	e9c4 3200 	strd	r3, r2, [r4]
 8005e50:	6b61      	ldr	r1, [r4, #52]	; 0x34
 8005e52:	f8c8 5000 	str.w	r5, [r8]
 8005e56:	b319      	cbz	r1, 8005ea0 <__sflush_r+0xc0>
 8005e58:	f104 0344 	add.w	r3, r4, #68	; 0x44
 8005e5c:	4299      	cmp	r1, r3
 8005e5e:	d002      	beq.n	8005e66 <__sflush_r+0x86>
 8005e60:	4640      	mov	r0, r8
 8005e62:	f7ff f891 	bl	8004f88 <_free_r>
 8005e66:	2000      	movs	r0, #0
 8005e68:	6360      	str	r0, [r4, #52]	; 0x34
 8005e6a:	e8bd 81f0 	ldmia.w	sp!, {r4, r5, r6, r7, r8, pc}
 8005e6e:	690e      	ldr	r6, [r1, #16]
 8005e70:	b1b6      	cbz	r6, 8005ea0 <__sflush_r+0xc0>
 8005e72:	680d      	ldr	r5, [r1, #0]
 8005e74:	600e      	str	r6, [r1, #0]
 8005e76:	079a      	lsls	r2, r3, #30
 8005e78:	bf0c      	ite	eq
 8005e7a:	694b      	ldreq	r3, [r1, #20]
 8005e7c:	2300      	movne	r3, #0
 8005e7e:	1bad      	subs	r5, r5, r6
 8005e80:	608b      	str	r3, [r1, #8]
 8005e82:	e00b      	b.n	8005e9c <__sflush_r+0xbc>
 8005e84:	462b      	mov	r3, r5
 8005e86:	4632      	mov	r2, r6
 8005e88:	6a21      	ldr	r1, [r4, #32]
 8005e8a:	6aa7      	ldr	r7, [r4, #40]	; 0x28
 8005e8c:	4640      	mov	r0, r8
 8005e8e:	47b8      	blx	r7
 8005e90:	f1b0 0c00 	subs.w	ip, r0, #0
 8005e94:	eba5 050c 	sub.w	r5, r5, ip
 8005e98:	4466      	add	r6, ip
 8005e9a:	dd13      	ble.n	8005ec4 <__sflush_r+0xe4>
 8005e9c:	2d00      	cmp	r5, #0
 8005e9e:	dcf1      	bgt.n	8005e84 <__sflush_r+0xa4>
 8005ea0:	2000      	movs	r0, #0
 8005ea2:	e8bd 81f0 	ldmia.w	sp!, {r4, r5, r6, r7, r8, pc}
 8005ea6:	6c0a      	ldr	r2, [r1, #64]	; 0x40
 8005ea8:	2a00      	cmp	r2, #0
 8005eaa:	dca3      	bgt.n	8005df4 <__sflush_r+0x14>
 8005eac:	e7f8      	b.n	8005ea0 <__sflush_r+0xc0>
 8005eae:	6d60      	ldr	r0, [r4, #84]	; 0x54
 8005eb0:	e7b3      	b.n	8005e1a <__sflush_r+0x3a>
 8005eb2:	2300      	movs	r3, #0
 8005eb4:	6063      	str	r3, [r4, #4]
 8005eb6:	6923      	ldr	r3, [r4, #16]
 8005eb8:	6023      	str	r3, [r4, #0]
 8005eba:	89a3      	ldrh	r3, [r4, #12]
 8005ebc:	04db      	lsls	r3, r3, #19
 8005ebe:	d5c7      	bpl.n	8005e50 <__sflush_r+0x70>
 8005ec0:	6560      	str	r0, [r4, #84]	; 0x54
 8005ec2:	e7c5      	b.n	8005e50 <__sflush_r+0x70>
 8005ec4:	89a3      	ldrh	r3, [r4, #12]
 8005ec6:	f043 0340 	orr.w	r3, r3, #64	; 0x40
 8005eca:	f04f 30ff 	mov.w	r0, #4294967295	; 0xffffffff
 8005ece:	81a3      	strh	r3, [r4, #12]
 8005ed0:	e8bd 81f0 	ldmia.w	sp!, {r4, r5, r6, r7, r8, pc}
 8005ed4:	f8d8 3000 	ldr.w	r3, [r8]
 8005ed8:	2b00      	cmp	r3, #0
 8005eda:	d09c      	beq.n	8005e16 <__sflush_r+0x36>
 8005edc:	2b1d      	cmp	r3, #29
 8005ede:	d006      	beq.n	8005eee <__sflush_r+0x10e>
 8005ee0:	2b16      	cmp	r3, #22
 8005ee2:	d004      	beq.n	8005eee <__sflush_r+0x10e>
 8005ee4:	89a3      	ldrh	r3, [r4, #12]
 8005ee6:	f043 0340 	orr.w	r3, r3, #64	; 0x40
 8005eea:	81a3      	strh	r3, [r4, #12]
 8005eec:	e7d9      	b.n	8005ea2 <__sflush_r+0xc2>
 8005eee:	f8c8 5000 	str.w	r5, [r8]
 8005ef2:	e7d5      	b.n	8005ea0 <__sflush_r+0xc0>

08005ef4 <_fflush_r>:
 8005ef4:	b538      	push	{r3, r4, r5, lr}
 8005ef6:	690b      	ldr	r3, [r1, #16]
 8005ef8:	b1bb      	cbz	r3, 8005f2a <_fflush_r+0x36>
 8005efa:	460d      	mov	r5, r1
 8005efc:	4604      	mov	r4, r0
 8005efe:	b108      	cbz	r0, 8005f04 <_fflush_r+0x10>
 8005f00:	6983      	ldr	r3, [r0, #24]
 8005f02:	b1b3      	cbz	r3, 8005f32 <_fflush_r+0x3e>
 8005f04:	4b0d      	ldr	r3, [pc, #52]	; (8005f3c <_fflush_r+0x48>)
 8005f06:	429d      	cmp	r5, r3
 8005f08:	d011      	beq.n	8005f2e <_fflush_r+0x3a>
 8005f0a:	4b0d      	ldr	r3, [pc, #52]	; (8005f40 <_fflush_r+0x4c>)
 8005f0c:	429d      	cmp	r5, r3
 8005f0e:	d013      	beq.n	8005f38 <_fflush_r+0x44>
 8005f10:	4b0c      	ldr	r3, [pc, #48]	; (8005f44 <_fflush_r+0x50>)
 8005f12:	429d      	cmp	r5, r3
 8005f14:	bf08      	it	eq
 8005f16:	68e5      	ldreq	r5, [r4, #12]
 8005f18:	f9b5 300c 	ldrsh.w	r3, [r5, #12]
 8005f1c:	b12b      	cbz	r3, 8005f2a <_fflush_r+0x36>
 8005f1e:	4629      	mov	r1, r5
 8005f20:	4620      	mov	r0, r4
 8005f22:	e8bd 4038 	ldmia.w	sp!, {r3, r4, r5, lr}
 8005f26:	f7ff bf5b 	b.w	8005de0 <__sflush_r>
 8005f2a:	2000      	movs	r0, #0
 8005f2c:	bd38      	pop	{r3, r4, r5, pc}
 8005f2e:	6865      	ldr	r5, [r4, #4]
 8005f30:	e7f2      	b.n	8005f18 <_fflush_r+0x24>
 8005f32:	f7fd fd85 	bl	8003a40 <__sinit>
 8005f36:	e7e5      	b.n	8005f04 <_fflush_r+0x10>
 8005f38:	68a5      	ldr	r5, [r4, #8]
 8005f3a:	e7ed      	b.n	8005f18 <_fflush_r+0x24>
 8005f3c:	080080e4 	.word	0x080080e4
 8005f40:	080080c4 	.word	0x080080c4
 8005f44:	080080a4 	.word	0x080080a4

08005f48 <fflush>:
 8005f48:	b538      	push	{r3, r4, r5, lr}
 8005f4a:	b340      	cbz	r0, 8005f9e <fflush+0x56>
 8005f4c:	6903      	ldr	r3, [r0, #16]
 8005f4e:	4604      	mov	r4, r0
 8005f50:	b1e3      	cbz	r3, 8005f8c <fflush+0x44>
 8005f52:	4b17      	ldr	r3, [pc, #92]	; (8005fb0 <fflush+0x68>)
 8005f54:	681d      	ldr	r5, [r3, #0]
 8005f56:	b10d      	cbz	r5, 8005f5c <fflush+0x14>
 8005f58:	69ab      	ldr	r3, [r5, #24]
 8005f5a:	b1cb      	cbz	r3, 8005f90 <fflush+0x48>
 8005f5c:	4b15      	ldr	r3, [pc, #84]	; (8005fb4 <fflush+0x6c>)
 8005f5e:	429c      	cmp	r4, r3
 8005f60:	d00f      	beq.n	8005f82 <fflush+0x3a>
 8005f62:	4b15      	ldr	r3, [pc, #84]	; (8005fb8 <fflush+0x70>)
 8005f64:	429c      	cmp	r4, r3
 8005f66:	d021      	beq.n	8005fac <fflush+0x64>
 8005f68:	4b14      	ldr	r3, [pc, #80]	; (8005fbc <fflush+0x74>)
 8005f6a:	429c      	cmp	r4, r3
 8005f6c:	bf08      	it	eq
 8005f6e:	68ec      	ldreq	r4, [r5, #12]
 8005f70:	f9b4 300c 	ldrsh.w	r3, [r4, #12]
 8005f74:	b153      	cbz	r3, 8005f8c <fflush+0x44>
 8005f76:	4621      	mov	r1, r4
 8005f78:	4628      	mov	r0, r5
 8005f7a:	e8bd 4038 	ldmia.w	sp!, {r3, r4, r5, lr}
 8005f7e:	f7ff bf2f 	b.w	8005de0 <__sflush_r>
 8005f82:	686c      	ldr	r4, [r5, #4]
 8005f84:	f9b4 300c 	ldrsh.w	r3, [r4, #12]
 8005f88:	2b00      	cmp	r3, #0
 8005f8a:	d1f4      	bne.n	8005f76 <fflush+0x2e>
 8005f8c:	2000      	movs	r0, #0
 8005f8e:	bd38      	pop	{r3, r4, r5, pc}
 8005f90:	4628      	mov	r0, r5
 8005f92:	f7fd fd55 	bl	8003a40 <__sinit>
 8005f96:	4b07      	ldr	r3, [pc, #28]	; (8005fb4 <fflush+0x6c>)
 8005f98:	429c      	cmp	r4, r3
 8005f9a:	d1e2      	bne.n	8005f62 <fflush+0x1a>
 8005f9c:	e7f1      	b.n	8005f82 <fflush+0x3a>
 8005f9e:	4b08      	ldr	r3, [pc, #32]	; (8005fc0 <fflush+0x78>)
 8005fa0:	4908      	ldr	r1, [pc, #32]	; (8005fc4 <fflush+0x7c>)
 8005fa2:	6818      	ldr	r0, [r3, #0]
 8005fa4:	e8bd 4038 	ldmia.w	sp!, {r3, r4, r5, lr}
 8005fa8:	f7fd bd8a 	b.w	8003ac0 <_fwalk_reent>
 8005fac:	68ac      	ldr	r4, [r5, #8]
 8005fae:	e7df      	b.n	8005f70 <fflush+0x28>
 8005fb0:	20000000 	.word	0x20000000
 8005fb4:	080080e4 	.word	0x080080e4
 8005fb8:	080080c4 	.word	0x080080c4
 8005fbc:	080080a4 	.word	0x080080a4
 8005fc0:	08007f4c 	.word	0x08007f4c
 8005fc4:	08005ef5 	.word	0x08005ef5

08005fc8 <_fiprintf_r>:
 8005fc8:	b40c      	push	{r2, r3}
 8005fca:	b500      	push	{lr}
 8005fcc:	b083      	sub	sp, #12
 8005fce:	ab04      	add	r3, sp, #16
 8005fd0:	f853 2b04 	ldr.w	r2, [r3], #4
 8005fd4:	9301      	str	r3, [sp, #4]
 8005fd6:	f7ff facf 	bl	8005578 <_vfiprintf_r>
 8005fda:	b003      	add	sp, #12
 8005fdc:	f85d eb04 	ldr.w	lr, [sp], #4
 8005fe0:	b002      	add	sp, #8
 8005fe2:	4770      	bx	lr

08005fe4 <fiprintf>:
 8005fe4:	b40e      	push	{r1, r2, r3}
 8005fe6:	b510      	push	{r4, lr}
 8005fe8:	b083      	sub	sp, #12
 8005fea:	ab05      	add	r3, sp, #20
 8005fec:	4c06      	ldr	r4, [pc, #24]	; (8006008 <fiprintf+0x24>)
 8005fee:	f853 2b04 	ldr.w	r2, [r3], #4
 8005ff2:	9301      	str	r3, [sp, #4]
 8005ff4:	4601      	mov	r1, r0
 8005ff6:	6820      	ldr	r0, [r4, #0]
 8005ff8:	f7ff fabe 	bl	8005578 <_vfiprintf_r>
 8005ffc:	b003      	add	sp, #12
 8005ffe:	e8bd 4010 	ldmia.w	sp!, {r4, lr}
 8006002:	b003      	add	sp, #12
 8006004:	4770      	bx	lr
 8006006:	bf00      	nop
 8006008:	20000000 	.word	0x20000000

0800600c <__sfvwrite_r>:
 800600c:	6893      	ldr	r3, [r2, #8]
 800600e:	2b00      	cmp	r3, #0
 8006010:	f000 8085 	beq.w	800611e <__sfvwrite_r+0x112>
 8006014:	e92d 4ff0 	stmdb	sp!, {r4, r5, r6, r7, r8, r9, sl, fp, lr}
 8006018:	f9b1 300c 	ldrsh.w	r3, [r1, #12]
 800601c:	460c      	mov	r4, r1
 800601e:	0719      	lsls	r1, r3, #28
 8006020:	4680      	mov	r8, r0
 8006022:	b083      	sub	sp, #12
 8006024:	4617      	mov	r7, r2
 8006026:	b298      	uxth	r0, r3
 8006028:	d525      	bpl.n	8006076 <__sfvwrite_r+0x6a>
 800602a:	6923      	ldr	r3, [r4, #16]
 800602c:	b31b      	cbz	r3, 8006076 <__sfvwrite_r+0x6a>
 800602e:	f010 0302 	ands.w	r3, r0, #2
 8006032:	683d      	ldr	r5, [r7, #0]
 8006034:	d02d      	beq.n	8006092 <__sfvwrite_r+0x86>
 8006036:	f04f 0a00 	mov.w	sl, #0
 800603a:	f8df b2bc 	ldr.w	fp, [pc, #700]	; 80062f8 <__sfvwrite_r+0x2ec>
 800603e:	4656      	mov	r6, sl
 8006040:	46b9      	mov	r9, r7
 8006042:	455e      	cmp	r6, fp
 8006044:	4633      	mov	r3, r6
 8006046:	4652      	mov	r2, sl
 8006048:	bf28      	it	cs
 800604a:	465b      	movcs	r3, fp
 800604c:	4640      	mov	r0, r8
 800604e:	2e00      	cmp	r6, #0
 8006050:	d052      	beq.n	80060f8 <__sfvwrite_r+0xec>
 8006052:	6a21      	ldr	r1, [r4, #32]
 8006054:	6aa7      	ldr	r7, [r4, #40]	; 0x28
 8006056:	47b8      	blx	r7
 8006058:	2800      	cmp	r0, #0
 800605a:	dd56      	ble.n	800610a <__sfvwrite_r+0xfe>
 800605c:	f8d9 3008 	ldr.w	r3, [r9, #8]
 8006060:	1a1b      	subs	r3, r3, r0
 8006062:	4482      	add	sl, r0
 8006064:	1a36      	subs	r6, r6, r0
 8006066:	f8c9 3008 	str.w	r3, [r9, #8]
 800606a:	2b00      	cmp	r3, #0
 800606c:	d1e9      	bne.n	8006042 <__sfvwrite_r+0x36>
 800606e:	2000      	movs	r0, #0
 8006070:	b003      	add	sp, #12
 8006072:	e8bd 8ff0 	ldmia.w	sp!, {r4, r5, r6, r7, r8, r9, sl, fp, pc}
 8006076:	4621      	mov	r1, r4
 8006078:	4640      	mov	r0, r8
 800607a:	f7ff fdf7 	bl	8005c6c <__swsetup_r>
 800607e:	2800      	cmp	r0, #0
 8006080:	f040 8136 	bne.w	80062f0 <__sfvwrite_r+0x2e4>
 8006084:	f9b4 300c 	ldrsh.w	r3, [r4, #12]
 8006088:	683d      	ldr	r5, [r7, #0]
 800608a:	b298      	uxth	r0, r3
 800608c:	f010 0302 	ands.w	r3, r0, #2
 8006090:	d1d1      	bne.n	8006036 <__sfvwrite_r+0x2a>
 8006092:	f010 0901 	ands.w	r9, r0, #1
 8006096:	d144      	bne.n	8006122 <__sfvwrite_r+0x116>
 8006098:	464e      	mov	r6, r9
 800609a:	9700      	str	r7, [sp, #0]
 800609c:	b346      	cbz	r6, 80060f0 <__sfvwrite_r+0xe4>
 800609e:	0582      	lsls	r2, r0, #22
 80060a0:	f8d4 b008 	ldr.w	fp, [r4, #8]
 80060a4:	f140 8083 	bpl.w	80061ae <__sfvwrite_r+0x1a2>
 80060a8:	45b3      	cmp	fp, r6
 80060aa:	465a      	mov	r2, fp
 80060ac:	f200 80b2 	bhi.w	8006214 <__sfvwrite_r+0x208>
 80060b0:	f410 6f90 	tst.w	r0, #1152	; 0x480
 80060b4:	f040 80bf 	bne.w	8006236 <__sfvwrite_r+0x22a>
 80060b8:	6820      	ldr	r0, [r4, #0]
 80060ba:	9201      	str	r2, [sp, #4]
 80060bc:	4649      	mov	r1, r9
 80060be:	f000 f9c1 	bl	8006444 <memmove>
 80060c2:	68a3      	ldr	r3, [r4, #8]
 80060c4:	9a01      	ldr	r2, [sp, #4]
 80060c6:	eba3 010b 	sub.w	r1, r3, fp
 80060ca:	6823      	ldr	r3, [r4, #0]
 80060cc:	60a1      	str	r1, [r4, #8]
 80060ce:	4413      	add	r3, r2
 80060d0:	46b2      	mov	sl, r6
 80060d2:	6023      	str	r3, [r4, #0]
 80060d4:	2600      	movs	r6, #0
 80060d6:	9b00      	ldr	r3, [sp, #0]
 80060d8:	6898      	ldr	r0, [r3, #8]
 80060da:	eba0 000a 	sub.w	r0, r0, sl
 80060de:	44d1      	add	r9, sl
 80060e0:	6098      	str	r0, [r3, #8]
 80060e2:	2800      	cmp	r0, #0
 80060e4:	d0c3      	beq.n	800606e <__sfvwrite_r+0x62>
 80060e6:	f9b4 000c 	ldrsh.w	r0, [r4, #12]
 80060ea:	b280      	uxth	r0, r0
 80060ec:	2e00      	cmp	r6, #0
 80060ee:	d1d6      	bne.n	800609e <__sfvwrite_r+0x92>
 80060f0:	e9d5 9600 	ldrd	r9, r6, [r5]
 80060f4:	3508      	adds	r5, #8
 80060f6:	e7d1      	b.n	800609c <__sfvwrite_r+0x90>
 80060f8:	e9d5 a600 	ldrd	sl, r6, [r5]
 80060fc:	3508      	adds	r5, #8
 80060fe:	e7a0      	b.n	8006042 <__sfvwrite_r+0x36>
 8006100:	4621      	mov	r1, r4
 8006102:	4640      	mov	r0, r8
 8006104:	f7ff fef6 	bl	8005ef4 <_fflush_r>
 8006108:	b380      	cbz	r0, 800616c <__sfvwrite_r+0x160>
 800610a:	f9b4 300c 	ldrsh.w	r3, [r4, #12]
 800610e:	f043 0340 	orr.w	r3, r3, #64	; 0x40
 8006112:	f04f 30ff 	mov.w	r0, #4294967295	; 0xffffffff
 8006116:	81a3      	strh	r3, [r4, #12]
 8006118:	b003      	add	sp, #12
 800611a:	e8bd 8ff0 	ldmia.w	sp!, {r4, r5, r6, r7, r8, r9, sl, fp, pc}
 800611e:	2000      	movs	r0, #0
 8006120:	4770      	bx	lr
 8006122:	461e      	mov	r6, r3
 8006124:	46aa      	mov	sl, r5
 8006126:	4699      	mov	r9, r3
 8006128:	4618      	mov	r0, r3
 800612a:	461d      	mov	r5, r3
 800612c:	9700      	str	r7, [sp, #0]
 800612e:	b356      	cbz	r6, 8006186 <__sfvwrite_r+0x17a>
 8006130:	b388      	cbz	r0, 8006196 <__sfvwrite_r+0x18a>
 8006132:	464a      	mov	r2, r9
 8006134:	e9d4 1304 	ldrd	r1, r3, [r4, #16]
 8006138:	6820      	ldr	r0, [r4, #0]
 800613a:	42b2      	cmp	r2, r6
 800613c:	bf28      	it	cs
 800613e:	4632      	movcs	r2, r6
 8006140:	4288      	cmp	r0, r1
 8006142:	d905      	bls.n	8006150 <__sfvwrite_r+0x144>
 8006144:	68a1      	ldr	r1, [r4, #8]
 8006146:	eb03 0b01 	add.w	fp, r3, r1
 800614a:	455a      	cmp	r2, fp
 800614c:	f300 80a6 	bgt.w	800629c <__sfvwrite_r+0x290>
 8006150:	4293      	cmp	r3, r2
 8006152:	dc63      	bgt.n	800621c <__sfvwrite_r+0x210>
 8006154:	6a21      	ldr	r1, [r4, #32]
 8006156:	6aa7      	ldr	r7, [r4, #40]	; 0x28
 8006158:	462a      	mov	r2, r5
 800615a:	4640      	mov	r0, r8
 800615c:	47b8      	blx	r7
 800615e:	f1b0 0b00 	subs.w	fp, r0, #0
 8006162:	ddd2      	ble.n	800610a <__sfvwrite_r+0xfe>
 8006164:	ebb9 090b 	subs.w	r9, r9, fp
 8006168:	d0ca      	beq.n	8006100 <__sfvwrite_r+0xf4>
 800616a:	2001      	movs	r0, #1
 800616c:	9a00      	ldr	r2, [sp, #0]
 800616e:	6893      	ldr	r3, [r2, #8]
 8006170:	eba3 030b 	sub.w	r3, r3, fp
 8006174:	445d      	add	r5, fp
 8006176:	eba6 060b 	sub.w	r6, r6, fp
 800617a:	6093      	str	r3, [r2, #8]
 800617c:	2b00      	cmp	r3, #0
 800617e:	f43f af76 	beq.w	800606e <__sfvwrite_r+0x62>
 8006182:	2e00      	cmp	r6, #0
 8006184:	d1d4      	bne.n	8006130 <__sfvwrite_r+0x124>
 8006186:	f10a 0308 	add.w	r3, sl, #8
 800618a:	e953 5602 	ldrd	r5, r6, [r3, #-8]
 800618e:	469a      	mov	sl, r3
 8006190:	3308      	adds	r3, #8
 8006192:	2e00      	cmp	r6, #0
 8006194:	d0f9      	beq.n	800618a <__sfvwrite_r+0x17e>
 8006196:	4632      	mov	r2, r6
 8006198:	210a      	movs	r1, #10
 800619a:	4628      	mov	r0, r5
 800619c:	f7fe f920 	bl	80043e0 <memchr>
 80061a0:	2800      	cmp	r0, #0
 80061a2:	f000 809c 	beq.w	80062de <__sfvwrite_r+0x2d2>
 80061a6:	3001      	adds	r0, #1
 80061a8:	eba0 0905 	sub.w	r9, r0, r5
 80061ac:	e7c1      	b.n	8006132 <__sfvwrite_r+0x126>
 80061ae:	6820      	ldr	r0, [r4, #0]
 80061b0:	6923      	ldr	r3, [r4, #16]
 80061b2:	4298      	cmp	r0, r3
 80061b4:	d816      	bhi.n	80061e4 <__sfvwrite_r+0x1d8>
 80061b6:	6963      	ldr	r3, [r4, #20]
 80061b8:	42b3      	cmp	r3, r6
 80061ba:	d813      	bhi.n	80061e4 <__sfvwrite_r+0x1d8>
 80061bc:	f06f 4200 	mvn.w	r2, #2147483648	; 0x80000000
 80061c0:	42b2      	cmp	r2, r6
 80061c2:	bf28      	it	cs
 80061c4:	4632      	movcs	r2, r6
 80061c6:	6a21      	ldr	r1, [r4, #32]
 80061c8:	fb92 f2f3 	sdiv	r2, r2, r3
 80061cc:	6aa7      	ldr	r7, [r4, #40]	; 0x28
 80061ce:	fb02 f303 	mul.w	r3, r2, r3
 80061d2:	4640      	mov	r0, r8
 80061d4:	464a      	mov	r2, r9
 80061d6:	47b8      	blx	r7
 80061d8:	f1b0 0a00 	subs.w	sl, r0, #0
 80061dc:	dd95      	ble.n	800610a <__sfvwrite_r+0xfe>
 80061de:	eba6 060a 	sub.w	r6, r6, sl
 80061e2:	e778      	b.n	80060d6 <__sfvwrite_r+0xca>
 80061e4:	45b3      	cmp	fp, r6
 80061e6:	46da      	mov	sl, fp
 80061e8:	bf28      	it	cs
 80061ea:	46b2      	movcs	sl, r6
 80061ec:	4652      	mov	r2, sl
 80061ee:	4649      	mov	r1, r9
 80061f0:	f000 f928 	bl	8006444 <memmove>
 80061f4:	68a3      	ldr	r3, [r4, #8]
 80061f6:	6822      	ldr	r2, [r4, #0]
 80061f8:	eba3 030a 	sub.w	r3, r3, sl
 80061fc:	4452      	add	r2, sl
 80061fe:	60a3      	str	r3, [r4, #8]
 8006200:	6022      	str	r2, [r4, #0]
 8006202:	2b00      	cmp	r3, #0
 8006204:	d1eb      	bne.n	80061de <__sfvwrite_r+0x1d2>
 8006206:	4621      	mov	r1, r4
 8006208:	4640      	mov	r0, r8
 800620a:	f7ff fe73 	bl	8005ef4 <_fflush_r>
 800620e:	2800      	cmp	r0, #0
 8006210:	d0e5      	beq.n	80061de <__sfvwrite_r+0x1d2>
 8006212:	e77a      	b.n	800610a <__sfvwrite_r+0xfe>
 8006214:	6820      	ldr	r0, [r4, #0]
 8006216:	46b3      	mov	fp, r6
 8006218:	4632      	mov	r2, r6
 800621a:	e74e      	b.n	80060ba <__sfvwrite_r+0xae>
 800621c:	4629      	mov	r1, r5
 800621e:	9201      	str	r2, [sp, #4]
 8006220:	f000 f910 	bl	8006444 <memmove>
 8006224:	9a01      	ldr	r2, [sp, #4]
 8006226:	68a3      	ldr	r3, [r4, #8]
 8006228:	1a9b      	subs	r3, r3, r2
 800622a:	60a3      	str	r3, [r4, #8]
 800622c:	6823      	ldr	r3, [r4, #0]
 800622e:	4413      	add	r3, r2
 8006230:	6023      	str	r3, [r4, #0]
 8006232:	4693      	mov	fp, r2
 8006234:	e796      	b.n	8006164 <__sfvwrite_r+0x158>
 8006236:	6823      	ldr	r3, [r4, #0]
 8006238:	6921      	ldr	r1, [r4, #16]
 800623a:	eba3 0b01 	sub.w	fp, r3, r1
 800623e:	6963      	ldr	r3, [r4, #20]
 8006240:	eb03 0a43 	add.w	sl, r3, r3, lsl #1
 8006244:	eb0a 7ada 	add.w	sl, sl, sl, lsr #31
 8006248:	f10b 0301 	add.w	r3, fp, #1
 800624c:	ea4f 0a6a 	mov.w	sl, sl, asr #1
 8006250:	4433      	add	r3, r6
 8006252:	4553      	cmp	r3, sl
 8006254:	4652      	mov	r2, sl
 8006256:	bf84      	itt	hi
 8006258:	469a      	movhi	sl, r3
 800625a:	4652      	movhi	r2, sl
 800625c:	0543      	lsls	r3, r0, #21
 800625e:	d52c      	bpl.n	80062ba <__sfvwrite_r+0x2ae>
 8006260:	4611      	mov	r1, r2
 8006262:	4640      	mov	r0, r8
 8006264:	f7fe fef2 	bl	800504c <_malloc_r>
 8006268:	2800      	cmp	r0, #0
 800626a:	d03b      	beq.n	80062e4 <__sfvwrite_r+0x2d8>
 800626c:	465a      	mov	r2, fp
 800626e:	6921      	ldr	r1, [r4, #16]
 8006270:	9001      	str	r0, [sp, #4]
 8006272:	f7f9 ff29 	bl	80000c8 <memcpy>
 8006276:	89a2      	ldrh	r2, [r4, #12]
 8006278:	9b01      	ldr	r3, [sp, #4]
 800627a:	f422 6290 	bic.w	r2, r2, #1152	; 0x480
 800627e:	f042 0280 	orr.w	r2, r2, #128	; 0x80
 8006282:	81a2      	strh	r2, [r4, #12]
 8006284:	eb03 000b 	add.w	r0, r3, fp
 8006288:	6123      	str	r3, [r4, #16]
 800628a:	ebaa 030b 	sub.w	r3, sl, fp
 800628e:	f8c4 a014 	str.w	sl, [r4, #20]
 8006292:	60a3      	str	r3, [r4, #8]
 8006294:	6020      	str	r0, [r4, #0]
 8006296:	46b3      	mov	fp, r6
 8006298:	4632      	mov	r2, r6
 800629a:	e70e      	b.n	80060ba <__sfvwrite_r+0xae>
 800629c:	4629      	mov	r1, r5
 800629e:	465a      	mov	r2, fp
 80062a0:	f000 f8d0 	bl	8006444 <memmove>
 80062a4:	6823      	ldr	r3, [r4, #0]
 80062a6:	445b      	add	r3, fp
 80062a8:	6023      	str	r3, [r4, #0]
 80062aa:	4621      	mov	r1, r4
 80062ac:	4640      	mov	r0, r8
 80062ae:	f7ff fe21 	bl	8005ef4 <_fflush_r>
 80062b2:	2800      	cmp	r0, #0
 80062b4:	f43f af56 	beq.w	8006164 <__sfvwrite_r+0x158>
 80062b8:	e727      	b.n	800610a <__sfvwrite_r+0xfe>
 80062ba:	4640      	mov	r0, r8
 80062bc:	f000 f942 	bl	8006544 <_realloc_r>
 80062c0:	4603      	mov	r3, r0
 80062c2:	2800      	cmp	r0, #0
 80062c4:	d1de      	bne.n	8006284 <__sfvwrite_r+0x278>
 80062c6:	6921      	ldr	r1, [r4, #16]
 80062c8:	4640      	mov	r0, r8
 80062ca:	f7fe fe5d 	bl	8004f88 <_free_r>
 80062ce:	f9b4 300c 	ldrsh.w	r3, [r4, #12]
 80062d2:	220c      	movs	r2, #12
 80062d4:	f023 0380 	bic.w	r3, r3, #128	; 0x80
 80062d8:	f8c8 2000 	str.w	r2, [r8]
 80062dc:	e717      	b.n	800610e <__sfvwrite_r+0x102>
 80062de:	1c72      	adds	r2, r6, #1
 80062e0:	4691      	mov	r9, r2
 80062e2:	e727      	b.n	8006134 <__sfvwrite_r+0x128>
 80062e4:	220c      	movs	r2, #12
 80062e6:	f9b4 300c 	ldrsh.w	r3, [r4, #12]
 80062ea:	f8c8 2000 	str.w	r2, [r8]
 80062ee:	e70e      	b.n	800610e <__sfvwrite_r+0x102>
 80062f0:	f04f 30ff 	mov.w	r0, #4294967295	; 0xffffffff
 80062f4:	e6bc      	b.n	8006070 <__sfvwrite_r+0x64>
 80062f6:	bf00      	nop
 80062f8:	7ffffc00 	.word	0x7ffffc00

080062fc <_lseek_r>:
 80062fc:	b538      	push	{r3, r4, r5, lr}
 80062fe:	460c      	mov	r4, r1
 8006300:	4d08      	ldr	r5, [pc, #32]	; (8006324 <_lseek_r+0x28>)
 8006302:	4684      	mov	ip, r0
 8006304:	4611      	mov	r1, r2
 8006306:	4620      	mov	r0, r4
 8006308:	461a      	mov	r2, r3
 800630a:	2300      	movs	r3, #0
 800630c:	602b      	str	r3, [r5, #0]
 800630e:	4664      	mov	r4, ip
 8006310:	f000 f9b8 	bl	8006684 <_lseek>
 8006314:	1c43      	adds	r3, r0, #1
 8006316:	d000      	beq.n	800631a <_lseek_r+0x1e>
 8006318:	bd38      	pop	{r3, r4, r5, pc}
 800631a:	682b      	ldr	r3, [r5, #0]
 800631c:	2b00      	cmp	r3, #0
 800631e:	d0fb      	beq.n	8006318 <_lseek_r+0x1c>
 8006320:	6023      	str	r3, [r4, #0]
 8006322:	bd38      	pop	{r3, r4, r5, pc}
 8006324:	20000280 	.word	0x20000280

08006328 <__smakebuf_r>:
 8006328:	b5f0      	push	{r4, r5, r6, r7, lr}
 800632a:	898b      	ldrh	r3, [r1, #12]
 800632c:	460c      	mov	r4, r1
 800632e:	0799      	lsls	r1, r3, #30
 8006330:	b097      	sub	sp, #92	; 0x5c
 8006332:	d507      	bpl.n	8006344 <__smakebuf_r+0x1c>
 8006334:	f104 0347 	add.w	r3, r4, #71	; 0x47
 8006338:	2201      	movs	r2, #1
 800633a:	e9c4 3204 	strd	r3, r2, [r4, #16]
 800633e:	6023      	str	r3, [r4, #0]
 8006340:	b017      	add	sp, #92	; 0x5c
 8006342:	bdf0      	pop	{r4, r5, r6, r7, pc}
 8006344:	f9b4 100e 	ldrsh.w	r1, [r4, #14]
 8006348:	2900      	cmp	r1, #0
 800634a:	4605      	mov	r5, r0
 800634c:	db2d      	blt.n	80063aa <__smakebuf_r+0x82>
 800634e:	466a      	mov	r2, sp
 8006350:	f000 f93e 	bl	80065d0 <_fstat_r>
 8006354:	2800      	cmp	r0, #0
 8006356:	db27      	blt.n	80063a8 <__smakebuf_r+0x80>
 8006358:	9e01      	ldr	r6, [sp, #4]
 800635a:	f406 4670 	and.w	r6, r6, #61440	; 0xf000
 800635e:	f44f 6780 	mov.w	r7, #1024	; 0x400
 8006362:	f5a6 5600 	sub.w	r6, r6, #8192	; 0x2000
 8006366:	fab6 f686 	clz	r6, r6
 800636a:	4639      	mov	r1, r7
 800636c:	4628      	mov	r0, r5
 800636e:	0976      	lsrs	r6, r6, #5
 8006370:	f7fe fe6c 	bl	800504c <_malloc_r>
 8006374:	b330      	cbz	r0, 80063c4 <__smakebuf_r+0x9c>
 8006376:	89a3      	ldrh	r3, [r4, #12]
 8006378:	4a1a      	ldr	r2, [pc, #104]	; (80063e4 <__smakebuf_r+0xbc>)
 800637a:	62aa      	str	r2, [r5, #40]	; 0x28
 800637c:	f043 0380 	orr.w	r3, r3, #128	; 0x80
 8006380:	e9c4 0704 	strd	r0, r7, [r4, #16]
 8006384:	81a3      	strh	r3, [r4, #12]
 8006386:	6020      	str	r0, [r4, #0]
 8006388:	2e00      	cmp	r6, #0
 800638a:	d0d9      	beq.n	8006340 <__smakebuf_r+0x18>
 800638c:	f9b4 100e 	ldrsh.w	r1, [r4, #14]
 8006390:	4628      	mov	r0, r5
 8006392:	f000 f933 	bl	80065fc <_isatty_r>
 8006396:	2800      	cmp	r0, #0
 8006398:	d0d2      	beq.n	8006340 <__smakebuf_r+0x18>
 800639a:	89a3      	ldrh	r3, [r4, #12]
 800639c:	f023 0303 	bic.w	r3, r3, #3
 80063a0:	f043 0301 	orr.w	r3, r3, #1
 80063a4:	81a3      	strh	r3, [r4, #12]
 80063a6:	e7cb      	b.n	8006340 <__smakebuf_r+0x18>
 80063a8:	89a3      	ldrh	r3, [r4, #12]
 80063aa:	f013 0f80 	tst.w	r3, #128	; 0x80
 80063ae:	bf14      	ite	ne
 80063b0:	2740      	movne	r7, #64	; 0x40
 80063b2:	f44f 6780 	moveq.w	r7, #1024	; 0x400
 80063b6:	4639      	mov	r1, r7
 80063b8:	4628      	mov	r0, r5
 80063ba:	2600      	movs	r6, #0
 80063bc:	f7fe fe46 	bl	800504c <_malloc_r>
 80063c0:	2800      	cmp	r0, #0
 80063c2:	d1d8      	bne.n	8006376 <__smakebuf_r+0x4e>
 80063c4:	f9b4 300c 	ldrsh.w	r3, [r4, #12]
 80063c8:	059a      	lsls	r2, r3, #22
 80063ca:	d4b9      	bmi.n	8006340 <__smakebuf_r+0x18>
 80063cc:	f023 0303 	bic.w	r3, r3, #3
 80063d0:	f104 0247 	add.w	r2, r4, #71	; 0x47
 80063d4:	f043 0302 	orr.w	r3, r3, #2
 80063d8:	2101      	movs	r1, #1
 80063da:	e9c4 2104 	strd	r2, r1, [r4, #16]
 80063de:	81a3      	strh	r3, [r4, #12]
 80063e0:	6022      	str	r2, [r4, #0]
 80063e2:	e7ad      	b.n	8006340 <__smakebuf_r+0x18>
 80063e4:	0800384d 	.word	0x0800384d

080063e8 <__swhatbuf_r>:
 80063e8:	b570      	push	{r4, r5, r6, lr}
 80063ea:	460c      	mov	r4, r1
 80063ec:	f9b1 100e 	ldrsh.w	r1, [r1, #14]
 80063f0:	2900      	cmp	r1, #0
 80063f2:	b096      	sub	sp, #88	; 0x58
 80063f4:	4616      	mov	r6, r2
 80063f6:	461d      	mov	r5, r3
 80063f8:	db13      	blt.n	8006422 <__swhatbuf_r+0x3a>
 80063fa:	466a      	mov	r2, sp
 80063fc:	f000 f8e8 	bl	80065d0 <_fstat_r>
 8006400:	2800      	cmp	r0, #0
 8006402:	db0e      	blt.n	8006422 <__swhatbuf_r+0x3a>
 8006404:	9901      	ldr	r1, [sp, #4]
 8006406:	f401 4170 	and.w	r1, r1, #61440	; 0xf000
 800640a:	f5a1 5100 	sub.w	r1, r1, #8192	; 0x2000
 800640e:	fab1 f181 	clz	r1, r1
 8006412:	f44f 6380 	mov.w	r3, #1024	; 0x400
 8006416:	0949      	lsrs	r1, r1, #5
 8006418:	2000      	movs	r0, #0
 800641a:	6029      	str	r1, [r5, #0]
 800641c:	6033      	str	r3, [r6, #0]
 800641e:	b016      	add	sp, #88	; 0x58
 8006420:	bd70      	pop	{r4, r5, r6, pc}
 8006422:	f9b4 300c 	ldrsh.w	r3, [r4, #12]
 8006426:	2200      	movs	r2, #0
 8006428:	061b      	lsls	r3, r3, #24
 800642a:	602a      	str	r2, [r5, #0]
 800642c:	d504      	bpl.n	8006438 <__swhatbuf_r+0x50>
 800642e:	2340      	movs	r3, #64	; 0x40
 8006430:	2000      	movs	r0, #0
 8006432:	6033      	str	r3, [r6, #0]
 8006434:	b016      	add	sp, #88	; 0x58
 8006436:	bd70      	pop	{r4, r5, r6, pc}
 8006438:	f44f 6380 	mov.w	r3, #1024	; 0x400
 800643c:	2000      	movs	r0, #0
 800643e:	6033      	str	r3, [r6, #0]
 8006440:	b016      	add	sp, #88	; 0x58
 8006442:	bd70      	pop	{r4, r5, r6, pc}

08006444 <memmove>:
 8006444:	4288      	cmp	r0, r1
 8006446:	d90d      	bls.n	8006464 <memmove+0x20>
 8006448:	188b      	adds	r3, r1, r2
 800644a:	4283      	cmp	r3, r0
 800644c:	d90a      	bls.n	8006464 <memmove+0x20>
 800644e:	eb00 0c02 	add.w	ip, r0, r2
 8006452:	b1ba      	cbz	r2, 8006484 <memmove+0x40>
 8006454:	4662      	mov	r2, ip
 8006456:	f813 cd01 	ldrb.w	ip, [r3, #-1]!
 800645a:	f802 cd01 	strb.w	ip, [r2, #-1]!
 800645e:	4299      	cmp	r1, r3
 8006460:	d1f9      	bne.n	8006456 <memmove+0x12>
 8006462:	4770      	bx	lr
 8006464:	2a0f      	cmp	r2, #15
 8006466:	d80e      	bhi.n	8006486 <memmove+0x42>
 8006468:	4603      	mov	r3, r0
 800646a:	f102 3cff 	add.w	ip, r2, #4294967295	; 0xffffffff
 800646e:	b14a      	cbz	r2, 8006484 <memmove+0x40>
 8006470:	f10c 0c01 	add.w	ip, ip, #1
 8006474:	3b01      	subs	r3, #1
 8006476:	448c      	add	ip, r1
 8006478:	f811 2b01 	ldrb.w	r2, [r1], #1
 800647c:	f803 2f01 	strb.w	r2, [r3, #1]!
 8006480:	4561      	cmp	r1, ip
 8006482:	d1f9      	bne.n	8006478 <memmove+0x34>
 8006484:	4770      	bx	lr
 8006486:	ea40 0301 	orr.w	r3, r0, r1
 800648a:	079b      	lsls	r3, r3, #30
 800648c:	d150      	bne.n	8006530 <memmove+0xec>
 800648e:	f1a2 0310 	sub.w	r3, r2, #16
 8006492:	b570      	push	{r4, r5, r6, lr}
 8006494:	f101 0c20 	add.w	ip, r1, #32
 8006498:	f023 050f 	bic.w	r5, r3, #15
 800649c:	f101 0e10 	add.w	lr, r1, #16
 80064a0:	f100 0410 	add.w	r4, r0, #16
 80064a4:	44ac      	add	ip, r5
 80064a6:	091b      	lsrs	r3, r3, #4
 80064a8:	f85e 5c10 	ldr.w	r5, [lr, #-16]
 80064ac:	f844 5c10 	str.w	r5, [r4, #-16]
 80064b0:	f85e 5c0c 	ldr.w	r5, [lr, #-12]
 80064b4:	f844 5c0c 	str.w	r5, [r4, #-12]
 80064b8:	f85e 5c08 	ldr.w	r5, [lr, #-8]
 80064bc:	f844 5c08 	str.w	r5, [r4, #-8]
 80064c0:	f85e 5c04 	ldr.w	r5, [lr, #-4]
 80064c4:	f844 5c04 	str.w	r5, [r4, #-4]
 80064c8:	f10e 0e10 	add.w	lr, lr, #16
 80064cc:	45e6      	cmp	lr, ip
 80064ce:	f104 0410 	add.w	r4, r4, #16
 80064d2:	d1e9      	bne.n	80064a8 <memmove+0x64>
 80064d4:	3301      	adds	r3, #1
 80064d6:	f012 0f0c 	tst.w	r2, #12
 80064da:	eb01 1103 	add.w	r1, r1, r3, lsl #4
 80064de:	f002 040f 	and.w	r4, r2, #15
 80064e2:	eb00 1303 	add.w	r3, r0, r3, lsl #4
 80064e6:	d027      	beq.n	8006538 <memmove+0xf4>
 80064e8:	3c04      	subs	r4, #4
 80064ea:	f024 0603 	bic.w	r6, r4, #3
 80064ee:	ea4f 0c94 	mov.w	ip, r4, lsr #2
 80064f2:	441e      	add	r6, r3
 80064f4:	1f1c      	subs	r4, r3, #4
 80064f6:	468e      	mov	lr, r1
 80064f8:	f85e 5b04 	ldr.w	r5, [lr], #4
 80064fc:	f844 5f04 	str.w	r5, [r4, #4]!
 8006500:	42b4      	cmp	r4, r6
 8006502:	d1f9      	bne.n	80064f8 <memmove+0xb4>
 8006504:	f10c 0401 	add.w	r4, ip, #1
 8006508:	f002 0203 	and.w	r2, r2, #3
 800650c:	eb03 0384 	add.w	r3, r3, r4, lsl #2
 8006510:	eb01 0184 	add.w	r1, r1, r4, lsl #2
 8006514:	f102 3cff 	add.w	ip, r2, #4294967295	; 0xffffffff
 8006518:	b14a      	cbz	r2, 800652e <memmove+0xea>
 800651a:	f10c 0c01 	add.w	ip, ip, #1
 800651e:	3b01      	subs	r3, #1
 8006520:	448c      	add	ip, r1
 8006522:	f811 2b01 	ldrb.w	r2, [r1], #1
 8006526:	f803 2f01 	strb.w	r2, [r3, #1]!
 800652a:	4561      	cmp	r1, ip
 800652c:	d1f9      	bne.n	8006522 <memmove+0xde>
 800652e:	bd70      	pop	{r4, r5, r6, pc}
 8006530:	f102 3cff 	add.w	ip, r2, #4294967295	; 0xffffffff
 8006534:	4603      	mov	r3, r0
 8006536:	e79b      	b.n	8006470 <memmove+0x2c>
 8006538:	4622      	mov	r2, r4
 800653a:	e7eb      	b.n	8006514 <memmove+0xd0>

0800653c <__malloc_lock>:
 800653c:	4770      	bx	lr
 800653e:	bf00      	nop

08006540 <__malloc_unlock>:
 8006540:	4770      	bx	lr
 8006542:	bf00      	nop

08006544 <_realloc_r>:
 8006544:	b5f8      	push	{r3, r4, r5, r6, r7, lr}
 8006546:	4614      	mov	r4, r2
 8006548:	b1f9      	cbz	r1, 800658a <_realloc_r+0x46>
 800654a:	b1ca      	cbz	r2, 8006580 <_realloc_r+0x3c>
 800654c:	4606      	mov	r6, r0
 800654e:	460d      	mov	r5, r1
 8006550:	f000 f866 	bl	8006620 <_malloc_usable_size_r>
 8006554:	42a0      	cmp	r0, r4
 8006556:	d302      	bcc.n	800655e <_realloc_r+0x1a>
 8006558:	462f      	mov	r7, r5
 800655a:	4638      	mov	r0, r7
 800655c:	bdf8      	pop	{r3, r4, r5, r6, r7, pc}
 800655e:	4621      	mov	r1, r4
 8006560:	4630      	mov	r0, r6
 8006562:	f7fe fd73 	bl	800504c <_malloc_r>
 8006566:	4607      	mov	r7, r0
 8006568:	2800      	cmp	r0, #0
 800656a:	d0f6      	beq.n	800655a <_realloc_r+0x16>
 800656c:	4622      	mov	r2, r4
 800656e:	4629      	mov	r1, r5
 8006570:	f7f9 fdaa 	bl	80000c8 <memcpy>
 8006574:	4630      	mov	r0, r6
 8006576:	4629      	mov	r1, r5
 8006578:	f7fe fd06 	bl	8004f88 <_free_r>
 800657c:	4638      	mov	r0, r7
 800657e:	bdf8      	pop	{r3, r4, r5, r6, r7, pc}
 8006580:	4627      	mov	r7, r4
 8006582:	f7fe fd01 	bl	8004f88 <_free_r>
 8006586:	4638      	mov	r0, r7
 8006588:	bdf8      	pop	{r3, r4, r5, r6, r7, pc}
 800658a:	e8bd 40f8 	ldmia.w	sp!, {r3, r4, r5, r6, r7, lr}
 800658e:	4611      	mov	r1, r2
 8006590:	f7fe bd5c 	b.w	800504c <_malloc_r>

08006594 <_read_r>:
 8006594:	b538      	push	{r3, r4, r5, lr}
 8006596:	460c      	mov	r4, r1
 8006598:	4d08      	ldr	r5, [pc, #32]	; (80065bc <_read_r+0x28>)
 800659a:	4684      	mov	ip, r0
 800659c:	4611      	mov	r1, r2
 800659e:	4620      	mov	r0, r4
 80065a0:	461a      	mov	r2, r3
 80065a2:	2300      	movs	r3, #0
 80065a4:	602b      	str	r3, [r5, #0]
 80065a6:	4664      	mov	r4, ip
 80065a8:	f000 f874 	bl	8006694 <_read>
 80065ac:	1c43      	adds	r3, r0, #1
 80065ae:	d000      	beq.n	80065b2 <_read_r+0x1e>
 80065b0:	bd38      	pop	{r3, r4, r5, pc}
 80065b2:	682b      	ldr	r3, [r5, #0]
 80065b4:	2b00      	cmp	r3, #0
 80065b6:	d0fb      	beq.n	80065b0 <_read_r+0x1c>
 80065b8:	6023      	str	r3, [r4, #0]
 80065ba:	bd38      	pop	{r3, r4, r5, pc}
 80065bc:	20000280 	.word	0x20000280

080065c0 <abort>:
 80065c0:	b508      	push	{r3, lr}
 80065c2:	2006      	movs	r0, #6
 80065c4:	f7ff f9d6 	bl	8005974 <raise>
 80065c8:	2001      	movs	r0, #1
 80065ca:	f000 f881 	bl	80066d0 <_exit>
 80065ce:	bf00      	nop

080065d0 <_fstat_r>:
 80065d0:	b570      	push	{r4, r5, r6, lr}
 80065d2:	460c      	mov	r4, r1
 80065d4:	4d08      	ldr	r5, [pc, #32]	; (80065f8 <_fstat_r+0x28>)
 80065d6:	4603      	mov	r3, r0
 80065d8:	2600      	movs	r6, #0
 80065da:	4620      	mov	r0, r4
 80065dc:	4611      	mov	r1, r2
 80065de:	461c      	mov	r4, r3
 80065e0:	602e      	str	r6, [r5, #0]
 80065e2:	f000 f82f 	bl	8006644 <_fstat>
 80065e6:	1c43      	adds	r3, r0, #1
 80065e8:	d000      	beq.n	80065ec <_fstat_r+0x1c>
 80065ea:	bd70      	pop	{r4, r5, r6, pc}
 80065ec:	682b      	ldr	r3, [r5, #0]
 80065ee:	2b00      	cmp	r3, #0
 80065f0:	d0fb      	beq.n	80065ea <_fstat_r+0x1a>
 80065f2:	6023      	str	r3, [r4, #0]
 80065f4:	bd70      	pop	{r4, r5, r6, pc}
 80065f6:	bf00      	nop
 80065f8:	20000280 	.word	0x20000280

080065fc <_isatty_r>:
 80065fc:	b538      	push	{r3, r4, r5, lr}
 80065fe:	4d07      	ldr	r5, [pc, #28]	; (800661c <_isatty_r+0x20>)
 8006600:	2200      	movs	r2, #0
 8006602:	4604      	mov	r4, r0
 8006604:	4608      	mov	r0, r1
 8006606:	602a      	str	r2, [r5, #0]
 8006608:	f000 f82c 	bl	8006664 <_isatty>
 800660c:	1c43      	adds	r3, r0, #1
 800660e:	d000      	beq.n	8006612 <_isatty_r+0x16>
 8006610:	bd38      	pop	{r3, r4, r5, pc}
 8006612:	682b      	ldr	r3, [r5, #0]
 8006614:	2b00      	cmp	r3, #0
 8006616:	d0fb      	beq.n	8006610 <_isatty_r+0x14>
 8006618:	6023      	str	r3, [r4, #0]
 800661a:	bd38      	pop	{r3, r4, r5, pc}
 800661c:	20000280 	.word	0x20000280

08006620 <_malloc_usable_size_r>:
 8006620:	f851 0c04 	ldr.w	r0, [r1, #-4]
 8006624:	2800      	cmp	r0, #0
 8006626:	f1a0 0004 	sub.w	r0, r0, #4
 800662a:	bfbc      	itt	lt
 800662c:	580b      	ldrlt	r3, [r1, r0]
 800662e:	18c0      	addlt	r0, r0, r3
 8006630:	4770      	bx	lr
 8006632:	bf00      	nop

08006634 <_close>:
 8006634:	4b02      	ldr	r3, [pc, #8]	; (8006640 <_close+0xc>)
 8006636:	2258      	movs	r2, #88	; 0x58
 8006638:	601a      	str	r2, [r3, #0]
 800663a:	f04f 30ff 	mov.w	r0, #4294967295	; 0xffffffff
 800663e:	4770      	bx	lr
 8006640:	20000280 	.word	0x20000280

08006644 <_fstat>:
 8006644:	4b02      	ldr	r3, [pc, #8]	; (8006650 <_fstat+0xc>)
 8006646:	2258      	movs	r2, #88	; 0x58
 8006648:	601a      	str	r2, [r3, #0]
 800664a:	f04f 30ff 	mov.w	r0, #4294967295	; 0xffffffff
 800664e:	4770      	bx	lr
 8006650:	20000280 	.word	0x20000280

08006654 <_getpid>:
 8006654:	4b02      	ldr	r3, [pc, #8]	; (8006660 <_getpid+0xc>)
 8006656:	2258      	movs	r2, #88	; 0x58
 8006658:	601a      	str	r2, [r3, #0]
 800665a:	f04f 30ff 	mov.w	r0, #4294967295	; 0xffffffff
 800665e:	4770      	bx	lr
 8006660:	20000280 	.word	0x20000280

08006664 <_isatty>:
 8006664:	4b02      	ldr	r3, [pc, #8]	; (8006670 <_isatty+0xc>)
 8006666:	2258      	movs	r2, #88	; 0x58
 8006668:	601a      	str	r2, [r3, #0]
 800666a:	2000      	movs	r0, #0
 800666c:	4770      	bx	lr
 800666e:	bf00      	nop
 8006670:	20000280 	.word	0x20000280

08006674 <_kill>:
 8006674:	4b02      	ldr	r3, [pc, #8]	; (8006680 <_kill+0xc>)
 8006676:	2258      	movs	r2, #88	; 0x58
 8006678:	601a      	str	r2, [r3, #0]
 800667a:	f04f 30ff 	mov.w	r0, #4294967295	; 0xffffffff
 800667e:	4770      	bx	lr
 8006680:	20000280 	.word	0x20000280

08006684 <_lseek>:
 8006684:	4b02      	ldr	r3, [pc, #8]	; (8006690 <_lseek+0xc>)
 8006686:	2258      	movs	r2, #88	; 0x58
 8006688:	601a      	str	r2, [r3, #0]
 800668a:	f04f 30ff 	mov.w	r0, #4294967295	; 0xffffffff
 800668e:	4770      	bx	lr
 8006690:	20000280 	.word	0x20000280

08006694 <_read>:
 8006694:	4b02      	ldr	r3, [pc, #8]	; (80066a0 <_read+0xc>)
 8006696:	2258      	movs	r2, #88	; 0x58
 8006698:	601a      	str	r2, [r3, #0]
 800669a:	f04f 30ff 	mov.w	r0, #4294967295	; 0xffffffff
 800669e:	4770      	bx	lr
 80066a0:	20000280 	.word	0x20000280

080066a4 <_sbrk>:
 80066a4:	4a04      	ldr	r2, [pc, #16]	; (80066b8 <_sbrk+0x14>)
 80066a6:	4905      	ldr	r1, [pc, #20]	; (80066bc <_sbrk+0x18>)
 80066a8:	6813      	ldr	r3, [r2, #0]
 80066aa:	2b00      	cmp	r3, #0
 80066ac:	bf08      	it	eq
 80066ae:	460b      	moveq	r3, r1
 80066b0:	4418      	add	r0, r3
 80066b2:	6010      	str	r0, [r2, #0]
 80066b4:	4618      	mov	r0, r3
 80066b6:	4770      	bx	lr
 80066b8:	20000284 	.word	0x20000284
 80066bc:	200006e0 	.word	0x200006e0

080066c0 <_write>:
 80066c0:	4b02      	ldr	r3, [pc, #8]	; (80066cc <_write+0xc>)
 80066c2:	2258      	movs	r2, #88	; 0x58
 80066c4:	601a      	str	r2, [r3, #0]
 80066c6:	f04f 30ff 	mov.w	r0, #4294967295	; 0xffffffff
 80066ca:	4770      	bx	lr
 80066cc:	20000280 	.word	0x20000280

080066d0 <_exit>:
 80066d0:	e7fe      	b.n	80066d0 <_exit>
 80066d2:	bf00      	nop

080066d4 <__aeabi_drsub>:
 80066d4:	f081 4100 	eor.w	r1, r1, #2147483648	; 0x80000000
 80066d8:	e002      	b.n	80066e0 <__adddf3>
 80066da:	bf00      	nop

080066dc <__aeabi_dsub>:
 80066dc:	f083 4300 	eor.w	r3, r3, #2147483648	; 0x80000000

080066e0 <__adddf3>:
 80066e0:	b530      	push	{r4, r5, lr}
 80066e2:	ea4f 0441 	mov.w	r4, r1, lsl #1
 80066e6:	ea4f 0543 	mov.w	r5, r3, lsl #1
 80066ea:	ea94 0f05 	teq	r4, r5
 80066ee:	bf08      	it	eq
 80066f0:	ea90 0f02 	teqeq	r0, r2
 80066f4:	bf1f      	itttt	ne
 80066f6:	ea54 0c00 	orrsne.w	ip, r4, r0
 80066fa:	ea55 0c02 	orrsne.w	ip, r5, r2
 80066fe:	ea7f 5c64 	mvnsne.w	ip, r4, asr #21
 8006702:	ea7f 5c65 	mvnsne.w	ip, r5, asr #21
 8006706:	f000 80e2 	beq.w	80068ce <__adddf3+0x1ee>
 800670a:	ea4f 5454 	mov.w	r4, r4, lsr #21
 800670e:	ebd4 5555 	rsbs	r5, r4, r5, lsr #21
 8006712:	bfb8      	it	lt
 8006714:	426d      	neglt	r5, r5
 8006716:	dd0c      	ble.n	8006732 <__adddf3+0x52>
 8006718:	442c      	add	r4, r5
 800671a:	ea80 0202 	eor.w	r2, r0, r2
 800671e:	ea81 0303 	eor.w	r3, r1, r3
 8006722:	ea82 0000 	eor.w	r0, r2, r0
 8006726:	ea83 0101 	eor.w	r1, r3, r1
 800672a:	ea80 0202 	eor.w	r2, r0, r2
 800672e:	ea81 0303 	eor.w	r3, r1, r3
 8006732:	2d36      	cmp	r5, #54	; 0x36
 8006734:	bf88      	it	hi
 8006736:	bd30      	pophi	{r4, r5, pc}
 8006738:	f011 4f00 	tst.w	r1, #2147483648	; 0x80000000
 800673c:	ea4f 3101 	mov.w	r1, r1, lsl #12
 8006740:	f44f 1c80 	mov.w	ip, #1048576	; 0x100000
 8006744:	ea4c 3111 	orr.w	r1, ip, r1, lsr #12
 8006748:	d002      	beq.n	8006750 <__adddf3+0x70>
 800674a:	4240      	negs	r0, r0
 800674c:	eb61 0141 	sbc.w	r1, r1, r1, lsl #1
 8006750:	f013 4f00 	tst.w	r3, #2147483648	; 0x80000000
 8006754:	ea4f 3303 	mov.w	r3, r3, lsl #12
 8006758:	ea4c 3313 	orr.w	r3, ip, r3, lsr #12
 800675c:	d002      	beq.n	8006764 <__adddf3+0x84>
 800675e:	4252      	negs	r2, r2
 8006760:	eb63 0343 	sbc.w	r3, r3, r3, lsl #1
 8006764:	ea94 0f05 	teq	r4, r5
 8006768:	f000 80a7 	beq.w	80068ba <__adddf3+0x1da>
 800676c:	f1a4 0401 	sub.w	r4, r4, #1
 8006770:	f1d5 0e20 	rsbs	lr, r5, #32
 8006774:	db0d      	blt.n	8006792 <__adddf3+0xb2>
 8006776:	fa02 fc0e 	lsl.w	ip, r2, lr
 800677a:	fa22 f205 	lsr.w	r2, r2, r5
 800677e:	1880      	adds	r0, r0, r2
 8006780:	f141 0100 	adc.w	r1, r1, #0
 8006784:	fa03 f20e 	lsl.w	r2, r3, lr
 8006788:	1880      	adds	r0, r0, r2
 800678a:	fa43 f305 	asr.w	r3, r3, r5
 800678e:	4159      	adcs	r1, r3
 8006790:	e00e      	b.n	80067b0 <__adddf3+0xd0>
 8006792:	f1a5 0520 	sub.w	r5, r5, #32
 8006796:	f10e 0e20 	add.w	lr, lr, #32
 800679a:	2a01      	cmp	r2, #1
 800679c:	fa03 fc0e 	lsl.w	ip, r3, lr
 80067a0:	bf28      	it	cs
 80067a2:	f04c 0c02 	orrcs.w	ip, ip, #2
 80067a6:	fa43 f305 	asr.w	r3, r3, r5
 80067aa:	18c0      	adds	r0, r0, r3
 80067ac:	eb51 71e3 	adcs.w	r1, r1, r3, asr #31
 80067b0:	f001 4500 	and.w	r5, r1, #2147483648	; 0x80000000
 80067b4:	d507      	bpl.n	80067c6 <__adddf3+0xe6>
 80067b6:	f04f 0e00 	mov.w	lr, #0
 80067ba:	f1dc 0c00 	rsbs	ip, ip, #0
 80067be:	eb7e 0000 	sbcs.w	r0, lr, r0
 80067c2:	eb6e 0101 	sbc.w	r1, lr, r1
 80067c6:	f5b1 1f80 	cmp.w	r1, #1048576	; 0x100000
 80067ca:	d31b      	bcc.n	8006804 <__adddf3+0x124>
 80067cc:	f5b1 1f00 	cmp.w	r1, #2097152	; 0x200000
 80067d0:	d30c      	bcc.n	80067ec <__adddf3+0x10c>
 80067d2:	0849      	lsrs	r1, r1, #1
 80067d4:	ea5f 0030 	movs.w	r0, r0, rrx
 80067d8:	ea4f 0c3c 	mov.w	ip, ip, rrx
 80067dc:	f104 0401 	add.w	r4, r4, #1
 80067e0:	ea4f 5244 	mov.w	r2, r4, lsl #21
 80067e4:	f512 0f80 	cmn.w	r2, #4194304	; 0x400000
 80067e8:	f080 809a 	bcs.w	8006920 <__adddf3+0x240>
 80067ec:	f1bc 4f00 	cmp.w	ip, #2147483648	; 0x80000000
 80067f0:	bf08      	it	eq
 80067f2:	ea5f 0c50 	movseq.w	ip, r0, lsr #1
 80067f6:	f150 0000 	adcs.w	r0, r0, #0
 80067fa:	eb41 5104 	adc.w	r1, r1, r4, lsl #20
 80067fe:	ea41 0105 	orr.w	r1, r1, r5
 8006802:	bd30      	pop	{r4, r5, pc}
 8006804:	ea5f 0c4c 	movs.w	ip, ip, lsl #1
 8006808:	4140      	adcs	r0, r0
 800680a:	eb41 0101 	adc.w	r1, r1, r1
 800680e:	3c01      	subs	r4, #1
 8006810:	bf28      	it	cs
 8006812:	f5b1 1f80 	cmpcs.w	r1, #1048576	; 0x100000
 8006816:	d2e9      	bcs.n	80067ec <__adddf3+0x10c>
 8006818:	f091 0f00 	teq	r1, #0
 800681c:	bf04      	itt	eq
 800681e:	4601      	moveq	r1, r0
 8006820:	2000      	moveq	r0, #0
 8006822:	fab1 f381 	clz	r3, r1
 8006826:	bf08      	it	eq
 8006828:	3320      	addeq	r3, #32
 800682a:	f1a3 030b 	sub.w	r3, r3, #11
 800682e:	f1b3 0220 	subs.w	r2, r3, #32
 8006832:	da0c      	bge.n	800684e <__adddf3+0x16e>
 8006834:	320c      	adds	r2, #12
 8006836:	dd08      	ble.n	800684a <__adddf3+0x16a>
 8006838:	f102 0c14 	add.w	ip, r2, #20
 800683c:	f1c2 020c 	rsb	r2, r2, #12
 8006840:	fa01 f00c 	lsl.w	r0, r1, ip
 8006844:	fa21 f102 	lsr.w	r1, r1, r2
 8006848:	e00c      	b.n	8006864 <__adddf3+0x184>
 800684a:	f102 0214 	add.w	r2, r2, #20
 800684e:	bfd8      	it	le
 8006850:	f1c2 0c20 	rsble	ip, r2, #32
 8006854:	fa01 f102 	lsl.w	r1, r1, r2
 8006858:	fa20 fc0c 	lsr.w	ip, r0, ip
 800685c:	bfdc      	itt	le
 800685e:	ea41 010c 	orrle.w	r1, r1, ip
 8006862:	4090      	lslle	r0, r2
 8006864:	1ae4      	subs	r4, r4, r3
 8006866:	bfa2      	ittt	ge
 8006868:	eb01 5104 	addge.w	r1, r1, r4, lsl #20
 800686c:	4329      	orrge	r1, r5
 800686e:	bd30      	popge	{r4, r5, pc}
 8006870:	ea6f 0404 	mvn.w	r4, r4
 8006874:	3c1f      	subs	r4, #31
 8006876:	da1c      	bge.n	80068b2 <__adddf3+0x1d2>
 8006878:	340c      	adds	r4, #12
 800687a:	dc0e      	bgt.n	800689a <__adddf3+0x1ba>
 800687c:	f104 0414 	add.w	r4, r4, #20
 8006880:	f1c4 0220 	rsb	r2, r4, #32
 8006884:	fa20 f004 	lsr.w	r0, r0, r4
 8006888:	fa01 f302 	lsl.w	r3, r1, r2
 800688c:	ea40 0003 	orr.w	r0, r0, r3
 8006890:	fa21 f304 	lsr.w	r3, r1, r4
 8006894:	ea45 0103 	orr.w	r1, r5, r3
 8006898:	bd30      	pop	{r4, r5, pc}
 800689a:	f1c4 040c 	rsb	r4, r4, #12
 800689e:	f1c4 0220 	rsb	r2, r4, #32
 80068a2:	fa20 f002 	lsr.w	r0, r0, r2
 80068a6:	fa01 f304 	lsl.w	r3, r1, r4
 80068aa:	ea40 0003 	orr.w	r0, r0, r3
 80068ae:	4629      	mov	r1, r5
 80068b0:	bd30      	pop	{r4, r5, pc}
 80068b2:	fa21 f004 	lsr.w	r0, r1, r4
 80068b6:	4629      	mov	r1, r5
 80068b8:	bd30      	pop	{r4, r5, pc}
 80068ba:	f094 0f00 	teq	r4, #0
 80068be:	f483 1380 	eor.w	r3, r3, #1048576	; 0x100000
 80068c2:	bf06      	itte	eq
 80068c4:	f481 1180 	eoreq.w	r1, r1, #1048576	; 0x100000
 80068c8:	3401      	addeq	r4, #1
 80068ca:	3d01      	subne	r5, #1
 80068cc:	e74e      	b.n	800676c <__adddf3+0x8c>
 80068ce:	ea7f 5c64 	mvns.w	ip, r4, asr #21
 80068d2:	bf18      	it	ne
 80068d4:	ea7f 5c65 	mvnsne.w	ip, r5, asr #21
 80068d8:	d029      	beq.n	800692e <__adddf3+0x24e>
 80068da:	ea94 0f05 	teq	r4, r5
 80068de:	bf08      	it	eq
 80068e0:	ea90 0f02 	teqeq	r0, r2
 80068e4:	d005      	beq.n	80068f2 <__adddf3+0x212>
 80068e6:	ea54 0c00 	orrs.w	ip, r4, r0
 80068ea:	bf04      	itt	eq
 80068ec:	4619      	moveq	r1, r3
 80068ee:	4610      	moveq	r0, r2
 80068f0:	bd30      	pop	{r4, r5, pc}
 80068f2:	ea91 0f03 	teq	r1, r3
 80068f6:	bf1e      	ittt	ne
 80068f8:	2100      	movne	r1, #0
 80068fa:	2000      	movne	r0, #0
 80068fc:	bd30      	popne	{r4, r5, pc}
 80068fe:	ea5f 5c54 	movs.w	ip, r4, lsr #21
 8006902:	d105      	bne.n	8006910 <__adddf3+0x230>
 8006904:	0040      	lsls	r0, r0, #1
 8006906:	4149      	adcs	r1, r1
 8006908:	bf28      	it	cs
 800690a:	f041 4100 	orrcs.w	r1, r1, #2147483648	; 0x80000000
 800690e:	bd30      	pop	{r4, r5, pc}
 8006910:	f514 0480 	adds.w	r4, r4, #4194304	; 0x400000
 8006914:	bf3c      	itt	cc
 8006916:	f501 1180 	addcc.w	r1, r1, #1048576	; 0x100000
 800691a:	bd30      	popcc	{r4, r5, pc}
 800691c:	f001 4500 	and.w	r5, r1, #2147483648	; 0x80000000
 8006920:	f045 41fe 	orr.w	r1, r5, #2130706432	; 0x7f000000
 8006924:	f441 0170 	orr.w	r1, r1, #15728640	; 0xf00000
 8006928:	f04f 0000 	mov.w	r0, #0
 800692c:	bd30      	pop	{r4, r5, pc}
 800692e:	ea7f 5c64 	mvns.w	ip, r4, asr #21
 8006932:	bf1a      	itte	ne
 8006934:	4619      	movne	r1, r3
 8006936:	4610      	movne	r0, r2
 8006938:	ea7f 5c65 	mvnseq.w	ip, r5, asr #21
 800693c:	bf1c      	itt	ne
 800693e:	460b      	movne	r3, r1
 8006940:	4602      	movne	r2, r0
 8006942:	ea50 3401 	orrs.w	r4, r0, r1, lsl #12
 8006946:	bf06      	itte	eq
 8006948:	ea52 3503 	orrseq.w	r5, r2, r3, lsl #12
 800694c:	ea91 0f03 	teqeq	r1, r3
 8006950:	f441 2100 	orrne.w	r1, r1, #524288	; 0x80000
 8006954:	bd30      	pop	{r4, r5, pc}
 8006956:	bf00      	nop

08006958 <__aeabi_ui2d>:
 8006958:	f090 0f00 	teq	r0, #0
 800695c:	bf04      	itt	eq
 800695e:	2100      	moveq	r1, #0
 8006960:	4770      	bxeq	lr
 8006962:	b530      	push	{r4, r5, lr}
 8006964:	f44f 6480 	mov.w	r4, #1024	; 0x400
 8006968:	f104 0432 	add.w	r4, r4, #50	; 0x32
 800696c:	f04f 0500 	mov.w	r5, #0
 8006970:	f04f 0100 	mov.w	r1, #0
 8006974:	e750      	b.n	8006818 <__adddf3+0x138>
 8006976:	bf00      	nop

08006978 <__aeabi_i2d>:
 8006978:	f090 0f00 	teq	r0, #0
 800697c:	bf04      	itt	eq
 800697e:	2100      	moveq	r1, #0
 8006980:	4770      	bxeq	lr
 8006982:	b530      	push	{r4, r5, lr}
 8006984:	f44f 6480 	mov.w	r4, #1024	; 0x400
 8006988:	f104 0432 	add.w	r4, r4, #50	; 0x32
 800698c:	f010 4500 	ands.w	r5, r0, #2147483648	; 0x80000000
 8006990:	bf48      	it	mi
 8006992:	4240      	negmi	r0, r0
 8006994:	f04f 0100 	mov.w	r1, #0
 8006998:	e73e      	b.n	8006818 <__adddf3+0x138>
 800699a:	bf00      	nop

0800699c <__aeabi_f2d>:
 800699c:	0042      	lsls	r2, r0, #1
 800699e:	ea4f 01e2 	mov.w	r1, r2, asr #3
 80069a2:	ea4f 0131 	mov.w	r1, r1, rrx
 80069a6:	ea4f 7002 	mov.w	r0, r2, lsl #28
 80069aa:	bf1f      	itttt	ne
 80069ac:	f012 437f 	andsne.w	r3, r2, #4278190080	; 0xff000000
 80069b0:	f093 4f7f 	teqne	r3, #4278190080	; 0xff000000
 80069b4:	f081 5160 	eorne.w	r1, r1, #939524096	; 0x38000000
 80069b8:	4770      	bxne	lr
 80069ba:	f032 427f 	bics.w	r2, r2, #4278190080	; 0xff000000
 80069be:	bf08      	it	eq
 80069c0:	4770      	bxeq	lr
 80069c2:	f093 4f7f 	teq	r3, #4278190080	; 0xff000000
 80069c6:	bf04      	itt	eq
 80069c8:	f441 2100 	orreq.w	r1, r1, #524288	; 0x80000
 80069cc:	4770      	bxeq	lr
 80069ce:	b530      	push	{r4, r5, lr}
 80069d0:	f44f 7460 	mov.w	r4, #896	; 0x380
 80069d4:	f001 4500 	and.w	r5, r1, #2147483648	; 0x80000000
 80069d8:	f021 4100 	bic.w	r1, r1, #2147483648	; 0x80000000
 80069dc:	e71c      	b.n	8006818 <__adddf3+0x138>
 80069de:	bf00      	nop

080069e0 <__aeabi_ul2d>:
 80069e0:	ea50 0201 	orrs.w	r2, r0, r1
 80069e4:	bf08      	it	eq
 80069e6:	4770      	bxeq	lr
 80069e8:	b530      	push	{r4, r5, lr}
 80069ea:	f04f 0500 	mov.w	r5, #0
 80069ee:	e00a      	b.n	8006a06 <__aeabi_l2d+0x16>

080069f0 <__aeabi_l2d>:
 80069f0:	ea50 0201 	orrs.w	r2, r0, r1
 80069f4:	bf08      	it	eq
 80069f6:	4770      	bxeq	lr
 80069f8:	b530      	push	{r4, r5, lr}
 80069fa:	f011 4500 	ands.w	r5, r1, #2147483648	; 0x80000000
 80069fe:	d502      	bpl.n	8006a06 <__aeabi_l2d+0x16>
 8006a00:	4240      	negs	r0, r0
 8006a02:	eb61 0141 	sbc.w	r1, r1, r1, lsl #1
 8006a06:	f44f 6480 	mov.w	r4, #1024	; 0x400
 8006a0a:	f104 0432 	add.w	r4, r4, #50	; 0x32
 8006a0e:	ea5f 5c91 	movs.w	ip, r1, lsr #22
 8006a12:	f43f aed8 	beq.w	80067c6 <__adddf3+0xe6>
 8006a16:	f04f 0203 	mov.w	r2, #3
 8006a1a:	ea5f 0cdc 	movs.w	ip, ip, lsr #3
 8006a1e:	bf18      	it	ne
 8006a20:	3203      	addne	r2, #3
 8006a22:	ea5f 0cdc 	movs.w	ip, ip, lsr #3
 8006a26:	bf18      	it	ne
 8006a28:	3203      	addne	r2, #3
 8006a2a:	eb02 02dc 	add.w	r2, r2, ip, lsr #3
 8006a2e:	f1c2 0320 	rsb	r3, r2, #32
 8006a32:	fa00 fc03 	lsl.w	ip, r0, r3
 8006a36:	fa20 f002 	lsr.w	r0, r0, r2
 8006a3a:	fa01 fe03 	lsl.w	lr, r1, r3
 8006a3e:	ea40 000e 	orr.w	r0, r0, lr
 8006a42:	fa21 f102 	lsr.w	r1, r1, r2
 8006a46:	4414      	add	r4, r2
 8006a48:	e6bd      	b.n	80067c6 <__adddf3+0xe6>
 8006a4a:	bf00      	nop

08006a4c <__aeabi_dmul>:
 8006a4c:	b570      	push	{r4, r5, r6, lr}
 8006a4e:	f04f 0cff 	mov.w	ip, #255	; 0xff
 8006a52:	f44c 6ce0 	orr.w	ip, ip, #1792	; 0x700
 8006a56:	ea1c 5411 	ands.w	r4, ip, r1, lsr #20
 8006a5a:	bf1d      	ittte	ne
 8006a5c:	ea1c 5513 	andsne.w	r5, ip, r3, lsr #20
 8006a60:	ea94 0f0c 	teqne	r4, ip
 8006a64:	ea95 0f0c 	teqne	r5, ip
 8006a68:	f000 f8de 	bleq	8006c28 <__aeabi_dmul+0x1dc>
 8006a6c:	442c      	add	r4, r5
 8006a6e:	ea81 0603 	eor.w	r6, r1, r3
 8006a72:	ea21 514c 	bic.w	r1, r1, ip, lsl #21
 8006a76:	ea23 534c 	bic.w	r3, r3, ip, lsl #21
 8006a7a:	ea50 3501 	orrs.w	r5, r0, r1, lsl #12
 8006a7e:	bf18      	it	ne
 8006a80:	ea52 3503 	orrsne.w	r5, r2, r3, lsl #12
 8006a84:	f441 1180 	orr.w	r1, r1, #1048576	; 0x100000
 8006a88:	f443 1380 	orr.w	r3, r3, #1048576	; 0x100000
 8006a8c:	d038      	beq.n	8006b00 <__aeabi_dmul+0xb4>
 8006a8e:	fba0 ce02 	umull	ip, lr, r0, r2
 8006a92:	f04f 0500 	mov.w	r5, #0
 8006a96:	fbe1 e502 	umlal	lr, r5, r1, r2
 8006a9a:	f006 4200 	and.w	r2, r6, #2147483648	; 0x80000000
 8006a9e:	fbe0 e503 	umlal	lr, r5, r0, r3
 8006aa2:	f04f 0600 	mov.w	r6, #0
 8006aa6:	fbe1 5603 	umlal	r5, r6, r1, r3
 8006aaa:	f09c 0f00 	teq	ip, #0
 8006aae:	bf18      	it	ne
 8006ab0:	f04e 0e01 	orrne.w	lr, lr, #1
 8006ab4:	f1a4 04ff 	sub.w	r4, r4, #255	; 0xff
 8006ab8:	f5b6 7f00 	cmp.w	r6, #512	; 0x200
 8006abc:	f564 7440 	sbc.w	r4, r4, #768	; 0x300
 8006ac0:	d204      	bcs.n	8006acc <__aeabi_dmul+0x80>
 8006ac2:	ea5f 0e4e 	movs.w	lr, lr, lsl #1
 8006ac6:	416d      	adcs	r5, r5
 8006ac8:	eb46 0606 	adc.w	r6, r6, r6
 8006acc:	ea42 21c6 	orr.w	r1, r2, r6, lsl #11
 8006ad0:	ea41 5155 	orr.w	r1, r1, r5, lsr #21
 8006ad4:	ea4f 20c5 	mov.w	r0, r5, lsl #11
 8006ad8:	ea40 505e 	orr.w	r0, r0, lr, lsr #21
 8006adc:	ea4f 2ece 	mov.w	lr, lr, lsl #11
 8006ae0:	f1b4 0cfd 	subs.w	ip, r4, #253	; 0xfd
 8006ae4:	bf88      	it	hi
 8006ae6:	f5bc 6fe0 	cmphi.w	ip, #1792	; 0x700
 8006aea:	d81e      	bhi.n	8006b2a <__aeabi_dmul+0xde>
 8006aec:	f1be 4f00 	cmp.w	lr, #2147483648	; 0x80000000
 8006af0:	bf08      	it	eq
 8006af2:	ea5f 0e50 	movseq.w	lr, r0, lsr #1
 8006af6:	f150 0000 	adcs.w	r0, r0, #0
 8006afa:	eb41 5104 	adc.w	r1, r1, r4, lsl #20
 8006afe:	bd70      	pop	{r4, r5, r6, pc}
 8006b00:	f006 4600 	and.w	r6, r6, #2147483648	; 0x80000000
 8006b04:	ea46 0101 	orr.w	r1, r6, r1
 8006b08:	ea40 0002 	orr.w	r0, r0, r2
 8006b0c:	ea81 0103 	eor.w	r1, r1, r3
 8006b10:	ebb4 045c 	subs.w	r4, r4, ip, lsr #1
 8006b14:	bfc2      	ittt	gt
 8006b16:	ebd4 050c 	rsbsgt	r5, r4, ip
 8006b1a:	ea41 5104 	orrgt.w	r1, r1, r4, lsl #20
 8006b1e:	bd70      	popgt	{r4, r5, r6, pc}
 8006b20:	f441 1180 	orr.w	r1, r1, #1048576	; 0x100000
 8006b24:	f04f 0e00 	mov.w	lr, #0
 8006b28:	3c01      	subs	r4, #1
 8006b2a:	f300 80ab 	bgt.w	8006c84 <__aeabi_dmul+0x238>
 8006b2e:	f114 0f36 	cmn.w	r4, #54	; 0x36
 8006b32:	bfde      	ittt	le
 8006b34:	2000      	movle	r0, #0
 8006b36:	f001 4100 	andle.w	r1, r1, #2147483648	; 0x80000000
 8006b3a:	bd70      	pople	{r4, r5, r6, pc}
 8006b3c:	f1c4 0400 	rsb	r4, r4, #0
 8006b40:	3c20      	subs	r4, #32
 8006b42:	da35      	bge.n	8006bb0 <__aeabi_dmul+0x164>
 8006b44:	340c      	adds	r4, #12
 8006b46:	dc1b      	bgt.n	8006b80 <__aeabi_dmul+0x134>
 8006b48:	f104 0414 	add.w	r4, r4, #20
 8006b4c:	f1c4 0520 	rsb	r5, r4, #32
 8006b50:	fa00 f305 	lsl.w	r3, r0, r5
 8006b54:	fa20 f004 	lsr.w	r0, r0, r4
 8006b58:	fa01 f205 	lsl.w	r2, r1, r5
 8006b5c:	ea40 0002 	orr.w	r0, r0, r2
 8006b60:	f001 4200 	and.w	r2, r1, #2147483648	; 0x80000000
 8006b64:	f021 4100 	bic.w	r1, r1, #2147483648	; 0x80000000
 8006b68:	eb10 70d3 	adds.w	r0, r0, r3, lsr #31
 8006b6c:	fa21 f604 	lsr.w	r6, r1, r4
 8006b70:	eb42 0106 	adc.w	r1, r2, r6
 8006b74:	ea5e 0e43 	orrs.w	lr, lr, r3, lsl #1
 8006b78:	bf08      	it	eq
 8006b7a:	ea20 70d3 	biceq.w	r0, r0, r3, lsr #31
 8006b7e:	bd70      	pop	{r4, r5, r6, pc}
 8006b80:	f1c4 040c 	rsb	r4, r4, #12
 8006b84:	f1c4 0520 	rsb	r5, r4, #32
 8006b88:	fa00 f304 	lsl.w	r3, r0, r4
 8006b8c:	fa20 f005 	lsr.w	r0, r0, r5
 8006b90:	fa01 f204 	lsl.w	r2, r1, r4
 8006b94:	ea40 0002 	orr.w	r0, r0, r2
 8006b98:	f001 4100 	and.w	r1, r1, #2147483648	; 0x80000000
 8006b9c:	eb10 70d3 	adds.w	r0, r0, r3, lsr #31
 8006ba0:	f141 0100 	adc.w	r1, r1, #0
 8006ba4:	ea5e 0e43 	orrs.w	lr, lr, r3, lsl #1
 8006ba8:	bf08      	it	eq
 8006baa:	ea20 70d3 	biceq.w	r0, r0, r3, lsr #31
 8006bae:	bd70      	pop	{r4, r5, r6, pc}
 8006bb0:	f1c4 0520 	rsb	r5, r4, #32
 8006bb4:	fa00 f205 	lsl.w	r2, r0, r5
 8006bb8:	ea4e 0e02 	orr.w	lr, lr, r2
 8006bbc:	fa20 f304 	lsr.w	r3, r0, r4
 8006bc0:	fa01 f205 	lsl.w	r2, r1, r5
 8006bc4:	ea43 0302 	orr.w	r3, r3, r2
 8006bc8:	fa21 f004 	lsr.w	r0, r1, r4
 8006bcc:	f001 4100 	and.w	r1, r1, #2147483648	; 0x80000000
 8006bd0:	fa21 f204 	lsr.w	r2, r1, r4
 8006bd4:	ea20 0002 	bic.w	r0, r0, r2
 8006bd8:	eb00 70d3 	add.w	r0, r0, r3, lsr #31
 8006bdc:	ea5e 0e43 	orrs.w	lr, lr, r3, lsl #1
 8006be0:	bf08      	it	eq
 8006be2:	ea20 70d3 	biceq.w	r0, r0, r3, lsr #31
 8006be6:	bd70      	pop	{r4, r5, r6, pc}
 8006be8:	f094 0f00 	teq	r4, #0
 8006bec:	d10f      	bne.n	8006c0e <__aeabi_dmul+0x1c2>
 8006bee:	f001 4600 	and.w	r6, r1, #2147483648	; 0x80000000
 8006bf2:	0040      	lsls	r0, r0, #1
 8006bf4:	eb41 0101 	adc.w	r1, r1, r1
 8006bf8:	f411 1f80 	tst.w	r1, #1048576	; 0x100000
 8006bfc:	bf08      	it	eq
 8006bfe:	3c01      	subeq	r4, #1
 8006c00:	d0f7      	beq.n	8006bf2 <__aeabi_dmul+0x1a6>
 8006c02:	ea41 0106 	orr.w	r1, r1, r6
 8006c06:	f095 0f00 	teq	r5, #0
 8006c0a:	bf18      	it	ne
 8006c0c:	4770      	bxne	lr
 8006c0e:	f003 4600 	and.w	r6, r3, #2147483648	; 0x80000000
 8006c12:	0052      	lsls	r2, r2, #1
 8006c14:	eb43 0303 	adc.w	r3, r3, r3
 8006c18:	f413 1f80 	tst.w	r3, #1048576	; 0x100000
 8006c1c:	bf08      	it	eq
 8006c1e:	3d01      	subeq	r5, #1
 8006c20:	d0f7      	beq.n	8006c12 <__aeabi_dmul+0x1c6>
 8006c22:	ea43 0306 	orr.w	r3, r3, r6
 8006c26:	4770      	bx	lr
 8006c28:	ea94 0f0c 	teq	r4, ip
 8006c2c:	ea0c 5513 	and.w	r5, ip, r3, lsr #20
 8006c30:	bf18      	it	ne
 8006c32:	ea95 0f0c 	teqne	r5, ip
 8006c36:	d00c      	beq.n	8006c52 <__aeabi_dmul+0x206>
 8006c38:	ea50 0641 	orrs.w	r6, r0, r1, lsl #1
 8006c3c:	bf18      	it	ne
 8006c3e:	ea52 0643 	orrsne.w	r6, r2, r3, lsl #1
 8006c42:	d1d1      	bne.n	8006be8 <__aeabi_dmul+0x19c>
 8006c44:	ea81 0103 	eor.w	r1, r1, r3
 8006c48:	f001 4100 	and.w	r1, r1, #2147483648	; 0x80000000
 8006c4c:	f04f 0000 	mov.w	r0, #0
 8006c50:	bd70      	pop	{r4, r5, r6, pc}
 8006c52:	ea50 0641 	orrs.w	r6, r0, r1, lsl #1
 8006c56:	bf06      	itte	eq
 8006c58:	4610      	moveq	r0, r2
 8006c5a:	4619      	moveq	r1, r3
 8006c5c:	ea52 0643 	orrsne.w	r6, r2, r3, lsl #1
 8006c60:	d019      	beq.n	8006c96 <__aeabi_dmul+0x24a>
 8006c62:	ea94 0f0c 	teq	r4, ip
 8006c66:	d102      	bne.n	8006c6e <__aeabi_dmul+0x222>
 8006c68:	ea50 3601 	orrs.w	r6, r0, r1, lsl #12
 8006c6c:	d113      	bne.n	8006c96 <__aeabi_dmul+0x24a>
 8006c6e:	ea95 0f0c 	teq	r5, ip
 8006c72:	d105      	bne.n	8006c80 <__aeabi_dmul+0x234>
 8006c74:	ea52 3603 	orrs.w	r6, r2, r3, lsl #12
 8006c78:	bf1c      	itt	ne
 8006c7a:	4610      	movne	r0, r2
 8006c7c:	4619      	movne	r1, r3
 8006c7e:	d10a      	bne.n	8006c96 <__aeabi_dmul+0x24a>
 8006c80:	ea81 0103 	eor.w	r1, r1, r3
 8006c84:	f001 4100 	and.w	r1, r1, #2147483648	; 0x80000000
 8006c88:	f041 41fe 	orr.w	r1, r1, #2130706432	; 0x7f000000
 8006c8c:	f441 0170 	orr.w	r1, r1, #15728640	; 0xf00000
 8006c90:	f04f 0000 	mov.w	r0, #0
 8006c94:	bd70      	pop	{r4, r5, r6, pc}
 8006c96:	f041 41fe 	orr.w	r1, r1, #2130706432	; 0x7f000000
 8006c9a:	f441 0178 	orr.w	r1, r1, #16252928	; 0xf80000
 8006c9e:	bd70      	pop	{r4, r5, r6, pc}

08006ca0 <__aeabi_ddiv>:
 8006ca0:	b570      	push	{r4, r5, r6, lr}
 8006ca2:	f04f 0cff 	mov.w	ip, #255	; 0xff
 8006ca6:	f44c 6ce0 	orr.w	ip, ip, #1792	; 0x700
 8006caa:	ea1c 5411 	ands.w	r4, ip, r1, lsr #20
 8006cae:	bf1d      	ittte	ne
 8006cb0:	ea1c 5513 	andsne.w	r5, ip, r3, lsr #20
 8006cb4:	ea94 0f0c 	teqne	r4, ip
 8006cb8:	ea95 0f0c 	teqne	r5, ip
 8006cbc:	f000 f8a7 	bleq	8006e0e <__aeabi_ddiv+0x16e>
 8006cc0:	eba4 0405 	sub.w	r4, r4, r5
 8006cc4:	ea81 0e03 	eor.w	lr, r1, r3
 8006cc8:	ea52 3503 	orrs.w	r5, r2, r3, lsl #12
 8006ccc:	ea4f 3101 	mov.w	r1, r1, lsl #12
 8006cd0:	f000 8088 	beq.w	8006de4 <__aeabi_ddiv+0x144>
 8006cd4:	ea4f 3303 	mov.w	r3, r3, lsl #12
 8006cd8:	f04f 5580 	mov.w	r5, #268435456	; 0x10000000
 8006cdc:	ea45 1313 	orr.w	r3, r5, r3, lsr #4
 8006ce0:	ea43 6312 	orr.w	r3, r3, r2, lsr #24
 8006ce4:	ea4f 2202 	mov.w	r2, r2, lsl #8
 8006ce8:	ea45 1511 	orr.w	r5, r5, r1, lsr #4
 8006cec:	ea45 6510 	orr.w	r5, r5, r0, lsr #24
 8006cf0:	ea4f 2600 	mov.w	r6, r0, lsl #8
 8006cf4:	f00e 4100 	and.w	r1, lr, #2147483648	; 0x80000000
 8006cf8:	429d      	cmp	r5, r3
 8006cfa:	bf08      	it	eq
 8006cfc:	4296      	cmpeq	r6, r2
 8006cfe:	f144 04fd 	adc.w	r4, r4, #253	; 0xfd
 8006d02:	f504 7440 	add.w	r4, r4, #768	; 0x300
 8006d06:	d202      	bcs.n	8006d0e <__aeabi_ddiv+0x6e>
 8006d08:	085b      	lsrs	r3, r3, #1
 8006d0a:	ea4f 0232 	mov.w	r2, r2, rrx
 8006d0e:	1ab6      	subs	r6, r6, r2
 8006d10:	eb65 0503 	sbc.w	r5, r5, r3
 8006d14:	085b      	lsrs	r3, r3, #1
 8006d16:	ea4f 0232 	mov.w	r2, r2, rrx
 8006d1a:	f44f 1080 	mov.w	r0, #1048576	; 0x100000
 8006d1e:	f44f 2c00 	mov.w	ip, #524288	; 0x80000
 8006d22:	ebb6 0e02 	subs.w	lr, r6, r2
 8006d26:	eb75 0e03 	sbcs.w	lr, r5, r3
 8006d2a:	bf22      	ittt	cs
 8006d2c:	1ab6      	subcs	r6, r6, r2
 8006d2e:	4675      	movcs	r5, lr
 8006d30:	ea40 000c 	orrcs.w	r0, r0, ip
 8006d34:	085b      	lsrs	r3, r3, #1
 8006d36:	ea4f 0232 	mov.w	r2, r2, rrx
 8006d3a:	ebb6 0e02 	subs.w	lr, r6, r2
 8006d3e:	eb75 0e03 	sbcs.w	lr, r5, r3
 8006d42:	bf22      	ittt	cs
 8006d44:	1ab6      	subcs	r6, r6, r2
 8006d46:	4675      	movcs	r5, lr
 8006d48:	ea40 005c 	orrcs.w	r0, r0, ip, lsr #1
 8006d4c:	085b      	lsrs	r3, r3, #1
 8006d4e:	ea4f 0232 	mov.w	r2, r2, rrx
 8006d52:	ebb6 0e02 	subs.w	lr, r6, r2
 8006d56:	eb75 0e03 	sbcs.w	lr, r5, r3
 8006d5a:	bf22      	ittt	cs
 8006d5c:	1ab6      	subcs	r6, r6, r2
 8006d5e:	4675      	movcs	r5, lr
 8006d60:	ea40 009c 	orrcs.w	r0, r0, ip, lsr #2
 8006d64:	085b      	lsrs	r3, r3, #1
 8006d66:	ea4f 0232 	mov.w	r2, r2, rrx
 8006d6a:	ebb6 0e02 	subs.w	lr, r6, r2
 8006d6e:	eb75 0e03 	sbcs.w	lr, r5, r3
 8006d72:	bf22      	ittt	cs
 8006d74:	1ab6      	subcs	r6, r6, r2
 8006d76:	4675      	movcs	r5, lr
 8006d78:	ea40 00dc 	orrcs.w	r0, r0, ip, lsr #3
 8006d7c:	ea55 0e06 	orrs.w	lr, r5, r6
 8006d80:	d018      	beq.n	8006db4 <__aeabi_ddiv+0x114>
 8006d82:	ea4f 1505 	mov.w	r5, r5, lsl #4
 8006d86:	ea45 7516 	orr.w	r5, r5, r6, lsr #28
 8006d8a:	ea4f 1606 	mov.w	r6, r6, lsl #4
 8006d8e:	ea4f 03c3 	mov.w	r3, r3, lsl #3
 8006d92:	ea43 7352 	orr.w	r3, r3, r2, lsr #29
 8006d96:	ea4f 02c2 	mov.w	r2, r2, lsl #3
 8006d9a:	ea5f 1c1c 	movs.w	ip, ip, lsr #4
 8006d9e:	d1c0      	bne.n	8006d22 <__aeabi_ddiv+0x82>
 8006da0:	f411 1f80 	tst.w	r1, #1048576	; 0x100000
 8006da4:	d10b      	bne.n	8006dbe <__aeabi_ddiv+0x11e>
 8006da6:	ea41 0100 	orr.w	r1, r1, r0
 8006daa:	f04f 0000 	mov.w	r0, #0
 8006dae:	f04f 4c00 	mov.w	ip, #2147483648	; 0x80000000
 8006db2:	e7b6      	b.n	8006d22 <__aeabi_ddiv+0x82>
 8006db4:	f411 1f80 	tst.w	r1, #1048576	; 0x100000
 8006db8:	bf04      	itt	eq
 8006dba:	4301      	orreq	r1, r0
 8006dbc:	2000      	moveq	r0, #0
 8006dbe:	f1b4 0cfd 	subs.w	ip, r4, #253	; 0xfd
 8006dc2:	bf88      	it	hi
 8006dc4:	f5bc 6fe0 	cmphi.w	ip, #1792	; 0x700
 8006dc8:	f63f aeaf 	bhi.w	8006b2a <__aeabi_dmul+0xde>
 8006dcc:	ebb5 0c03 	subs.w	ip, r5, r3
 8006dd0:	bf04      	itt	eq
 8006dd2:	ebb6 0c02 	subseq.w	ip, r6, r2
 8006dd6:	ea5f 0c50 	movseq.w	ip, r0, lsr #1
 8006dda:	f150 0000 	adcs.w	r0, r0, #0
 8006dde:	eb41 5104 	adc.w	r1, r1, r4, lsl #20
 8006de2:	bd70      	pop	{r4, r5, r6, pc}
 8006de4:	f00e 4e00 	and.w	lr, lr, #2147483648	; 0x80000000
 8006de8:	ea4e 3111 	orr.w	r1, lr, r1, lsr #12
 8006dec:	eb14 045c 	adds.w	r4, r4, ip, lsr #1
 8006df0:	bfc2      	ittt	gt
 8006df2:	ebd4 050c 	rsbsgt	r5, r4, ip
 8006df6:	ea41 5104 	orrgt.w	r1, r1, r4, lsl #20
 8006dfa:	bd70      	popgt	{r4, r5, r6, pc}
 8006dfc:	f441 1180 	orr.w	r1, r1, #1048576	; 0x100000
 8006e00:	f04f 0e00 	mov.w	lr, #0
 8006e04:	3c01      	subs	r4, #1
 8006e06:	e690      	b.n	8006b2a <__aeabi_dmul+0xde>
 8006e08:	ea45 0e06 	orr.w	lr, r5, r6
 8006e0c:	e68d      	b.n	8006b2a <__aeabi_dmul+0xde>
 8006e0e:	ea0c 5513 	and.w	r5, ip, r3, lsr #20
 8006e12:	ea94 0f0c 	teq	r4, ip
 8006e16:	bf08      	it	eq
 8006e18:	ea95 0f0c 	teqeq	r5, ip
 8006e1c:	f43f af3b 	beq.w	8006c96 <__aeabi_dmul+0x24a>
 8006e20:	ea94 0f0c 	teq	r4, ip
 8006e24:	d10a      	bne.n	8006e3c <__aeabi_ddiv+0x19c>
 8006e26:	ea50 3401 	orrs.w	r4, r0, r1, lsl #12
 8006e2a:	f47f af34 	bne.w	8006c96 <__aeabi_dmul+0x24a>
 8006e2e:	ea95 0f0c 	teq	r5, ip
 8006e32:	f47f af25 	bne.w	8006c80 <__aeabi_dmul+0x234>
 8006e36:	4610      	mov	r0, r2
 8006e38:	4619      	mov	r1, r3
 8006e3a:	e72c      	b.n	8006c96 <__aeabi_dmul+0x24a>
 8006e3c:	ea95 0f0c 	teq	r5, ip
 8006e40:	d106      	bne.n	8006e50 <__aeabi_ddiv+0x1b0>
 8006e42:	ea52 3503 	orrs.w	r5, r2, r3, lsl #12
 8006e46:	f43f aefd 	beq.w	8006c44 <__aeabi_dmul+0x1f8>
 8006e4a:	4610      	mov	r0, r2
 8006e4c:	4619      	mov	r1, r3
 8006e4e:	e722      	b.n	8006c96 <__aeabi_dmul+0x24a>
 8006e50:	ea50 0641 	orrs.w	r6, r0, r1, lsl #1
 8006e54:	bf18      	it	ne
 8006e56:	ea52 0643 	orrsne.w	r6, r2, r3, lsl #1
 8006e5a:	f47f aec5 	bne.w	8006be8 <__aeabi_dmul+0x19c>
 8006e5e:	ea50 0441 	orrs.w	r4, r0, r1, lsl #1
 8006e62:	f47f af0d 	bne.w	8006c80 <__aeabi_dmul+0x234>
 8006e66:	ea52 0543 	orrs.w	r5, r2, r3, lsl #1
 8006e6a:	f47f aeeb 	bne.w	8006c44 <__aeabi_dmul+0x1f8>
 8006e6e:	e712      	b.n	8006c96 <__aeabi_dmul+0x24a>

08006e70 <__gedf2>:
 8006e70:	f04f 3cff 	mov.w	ip, #4294967295	; 0xffffffff
 8006e74:	e006      	b.n	8006e84 <__cmpdf2+0x4>
 8006e76:	bf00      	nop

08006e78 <__ledf2>:
 8006e78:	f04f 0c01 	mov.w	ip, #1
 8006e7c:	e002      	b.n	8006e84 <__cmpdf2+0x4>
 8006e7e:	bf00      	nop

08006e80 <__cmpdf2>:
 8006e80:	f04f 0c01 	mov.w	ip, #1
 8006e84:	f84d cd04 	str.w	ip, [sp, #-4]!
 8006e88:	ea4f 0c41 	mov.w	ip, r1, lsl #1
 8006e8c:	ea7f 5c6c 	mvns.w	ip, ip, asr #21
 8006e90:	ea4f 0c43 	mov.w	ip, r3, lsl #1
 8006e94:	bf18      	it	ne
 8006e96:	ea7f 5c6c 	mvnsne.w	ip, ip, asr #21
 8006e9a:	d01b      	beq.n	8006ed4 <__cmpdf2+0x54>
 8006e9c:	b001      	add	sp, #4
 8006e9e:	ea50 0c41 	orrs.w	ip, r0, r1, lsl #1
 8006ea2:	bf0c      	ite	eq
 8006ea4:	ea52 0c43 	orrseq.w	ip, r2, r3, lsl #1
 8006ea8:	ea91 0f03 	teqne	r1, r3
 8006eac:	bf02      	ittt	eq
 8006eae:	ea90 0f02 	teqeq	r0, r2
 8006eb2:	2000      	moveq	r0, #0
 8006eb4:	4770      	bxeq	lr
 8006eb6:	f110 0f00 	cmn.w	r0, #0
 8006eba:	ea91 0f03 	teq	r1, r3
 8006ebe:	bf58      	it	pl
 8006ec0:	4299      	cmppl	r1, r3
 8006ec2:	bf08      	it	eq
 8006ec4:	4290      	cmpeq	r0, r2
 8006ec6:	bf2c      	ite	cs
 8006ec8:	17d8      	asrcs	r0, r3, #31
 8006eca:	ea6f 70e3 	mvncc.w	r0, r3, asr #31
 8006ece:	f040 0001 	orr.w	r0, r0, #1
 8006ed2:	4770      	bx	lr
 8006ed4:	ea4f 0c41 	mov.w	ip, r1, lsl #1
 8006ed8:	ea7f 5c6c 	mvns.w	ip, ip, asr #21
 8006edc:	d102      	bne.n	8006ee4 <__cmpdf2+0x64>
 8006ede:	ea50 3c01 	orrs.w	ip, r0, r1, lsl #12
 8006ee2:	d107      	bne.n	8006ef4 <__cmpdf2+0x74>
 8006ee4:	ea4f 0c43 	mov.w	ip, r3, lsl #1
 8006ee8:	ea7f 5c6c 	mvns.w	ip, ip, asr #21
 8006eec:	d1d6      	bne.n	8006e9c <__cmpdf2+0x1c>
 8006eee:	ea52 3c03 	orrs.w	ip, r2, r3, lsl #12
 8006ef2:	d0d3      	beq.n	8006e9c <__cmpdf2+0x1c>
 8006ef4:	f85d 0b04 	ldr.w	r0, [sp], #4
 8006ef8:	4770      	bx	lr
 8006efa:	bf00      	nop

08006efc <__aeabi_cdrcmple>:
 8006efc:	4684      	mov	ip, r0
 8006efe:	4610      	mov	r0, r2
 8006f00:	4662      	mov	r2, ip
 8006f02:	468c      	mov	ip, r1
 8006f04:	4619      	mov	r1, r3
 8006f06:	4663      	mov	r3, ip
 8006f08:	e000      	b.n	8006f0c <__aeabi_cdcmpeq>
 8006f0a:	bf00      	nop

08006f0c <__aeabi_cdcmpeq>:
 8006f0c:	b501      	push	{r0, lr}
 8006f0e:	f7ff ffb7 	bl	8006e80 <__cmpdf2>
 8006f12:	2800      	cmp	r0, #0
 8006f14:	bf48      	it	mi
 8006f16:	f110 0f00 	cmnmi.w	r0, #0
 8006f1a:	bd01      	pop	{r0, pc}

08006f1c <__aeabi_dcmpeq>:
 8006f1c:	f84d ed08 	str.w	lr, [sp, #-8]!
 8006f20:	f7ff fff4 	bl	8006f0c <__aeabi_cdcmpeq>
 8006f24:	bf0c      	ite	eq
 8006f26:	2001      	moveq	r0, #1
 8006f28:	2000      	movne	r0, #0
 8006f2a:	f85d fb08 	ldr.w	pc, [sp], #8
 8006f2e:	bf00      	nop

08006f30 <__aeabi_dcmplt>:
 8006f30:	f84d ed08 	str.w	lr, [sp, #-8]!
 8006f34:	f7ff ffea 	bl	8006f0c <__aeabi_cdcmpeq>
 8006f38:	bf34      	ite	cc
 8006f3a:	2001      	movcc	r0, #1
 8006f3c:	2000      	movcs	r0, #0
 8006f3e:	f85d fb08 	ldr.w	pc, [sp], #8
 8006f42:	bf00      	nop

08006f44 <__aeabi_dcmple>:
 8006f44:	f84d ed08 	str.w	lr, [sp, #-8]!
 8006f48:	f7ff ffe0 	bl	8006f0c <__aeabi_cdcmpeq>
 8006f4c:	bf94      	ite	ls
 8006f4e:	2001      	movls	r0, #1
 8006f50:	2000      	movhi	r0, #0
 8006f52:	f85d fb08 	ldr.w	pc, [sp], #8
 8006f56:	bf00      	nop

08006f58 <__aeabi_dcmpge>:
 8006f58:	f84d ed08 	str.w	lr, [sp, #-8]!
 8006f5c:	f7ff ffce 	bl	8006efc <__aeabi_cdrcmple>
 8006f60:	bf94      	ite	ls
 8006f62:	2001      	movls	r0, #1
 8006f64:	2000      	movhi	r0, #0
 8006f66:	f85d fb08 	ldr.w	pc, [sp], #8
 8006f6a:	bf00      	nop

08006f6c <__aeabi_dcmpgt>:
 8006f6c:	f84d ed08 	str.w	lr, [sp, #-8]!
 8006f70:	f7ff ffc4 	bl	8006efc <__aeabi_cdrcmple>
 8006f74:	bf34      	ite	cc
 8006f76:	2001      	movcc	r0, #1
 8006f78:	2000      	movcs	r0, #0
 8006f7a:	f85d fb08 	ldr.w	pc, [sp], #8
 8006f7e:	bf00      	nop

08006f80 <__aeabi_dcmpun>:
 8006f80:	ea4f 0c41 	mov.w	ip, r1, lsl #1
 8006f84:	ea7f 5c6c 	mvns.w	ip, ip, asr #21
 8006f88:	d102      	bne.n	8006f90 <__aeabi_dcmpun+0x10>
 8006f8a:	ea50 3c01 	orrs.w	ip, r0, r1, lsl #12
 8006f8e:	d10a      	bne.n	8006fa6 <__aeabi_dcmpun+0x26>
 8006f90:	ea4f 0c43 	mov.w	ip, r3, lsl #1
 8006f94:	ea7f 5c6c 	mvns.w	ip, ip, asr #21
 8006f98:	d102      	bne.n	8006fa0 <__aeabi_dcmpun+0x20>
 8006f9a:	ea52 3c03 	orrs.w	ip, r2, r3, lsl #12
 8006f9e:	d102      	bne.n	8006fa6 <__aeabi_dcmpun+0x26>
 8006fa0:	f04f 0000 	mov.w	r0, #0
 8006fa4:	4770      	bx	lr
 8006fa6:	f04f 0001 	mov.w	r0, #1
 8006faa:	4770      	bx	lr

08006fac <__aeabi_d2iz>:
 8006fac:	ea4f 0241 	mov.w	r2, r1, lsl #1
 8006fb0:	f512 1200 	adds.w	r2, r2, #2097152	; 0x200000
 8006fb4:	d215      	bcs.n	8006fe2 <__aeabi_d2iz+0x36>
 8006fb6:	d511      	bpl.n	8006fdc <__aeabi_d2iz+0x30>
 8006fb8:	f46f 7378 	mvn.w	r3, #992	; 0x3e0
 8006fbc:	ebb3 5262 	subs.w	r2, r3, r2, asr #21
 8006fc0:	d912      	bls.n	8006fe8 <__aeabi_d2iz+0x3c>
 8006fc2:	ea4f 23c1 	mov.w	r3, r1, lsl #11
 8006fc6:	f043 4300 	orr.w	r3, r3, #2147483648	; 0x80000000
 8006fca:	ea43 5350 	orr.w	r3, r3, r0, lsr #21
 8006fce:	f011 4f00 	tst.w	r1, #2147483648	; 0x80000000
 8006fd2:	fa23 f002 	lsr.w	r0, r3, r2
 8006fd6:	bf18      	it	ne
 8006fd8:	4240      	negne	r0, r0
 8006fda:	4770      	bx	lr
 8006fdc:	f04f 0000 	mov.w	r0, #0
 8006fe0:	4770      	bx	lr
 8006fe2:	ea50 3001 	orrs.w	r0, r0, r1, lsl #12
 8006fe6:	d105      	bne.n	8006ff4 <__aeabi_d2iz+0x48>
 8006fe8:	f011 4000 	ands.w	r0, r1, #2147483648	; 0x80000000
 8006fec:	bf08      	it	eq
 8006fee:	f06f 4000 	mvneq.w	r0, #2147483648	; 0x80000000
 8006ff2:	4770      	bx	lr
 8006ff4:	f04f 0000 	mov.w	r0, #0
 8006ff8:	4770      	bx	lr
 8006ffa:	bf00      	nop

08006ffc <__aeabi_d2uiz>:
 8006ffc:	004a      	lsls	r2, r1, #1
 8006ffe:	d211      	bcs.n	8007024 <__aeabi_d2uiz+0x28>
 8007000:	f512 1200 	adds.w	r2, r2, #2097152	; 0x200000
 8007004:	d211      	bcs.n	800702a <__aeabi_d2uiz+0x2e>
 8007006:	d50d      	bpl.n	8007024 <__aeabi_d2uiz+0x28>
 8007008:	f46f 7378 	mvn.w	r3, #992	; 0x3e0
 800700c:	ebb3 5262 	subs.w	r2, r3, r2, asr #21
 8007010:	d40e      	bmi.n	8007030 <__aeabi_d2uiz+0x34>
 8007012:	ea4f 23c1 	mov.w	r3, r1, lsl #11
 8007016:	f043 4300 	orr.w	r3, r3, #2147483648	; 0x80000000
 800701a:	ea43 5350 	orr.w	r3, r3, r0, lsr #21
 800701e:	fa23 f002 	lsr.w	r0, r3, r2
 8007022:	4770      	bx	lr
 8007024:	f04f 0000 	mov.w	r0, #0
 8007028:	4770      	bx	lr
 800702a:	ea50 3001 	orrs.w	r0, r0, r1, lsl #12
 800702e:	d102      	bne.n	8007036 <__aeabi_d2uiz+0x3a>
 8007030:	f04f 30ff 	mov.w	r0, #4294967295	; 0xffffffff
 8007034:	4770      	bx	lr
 8007036:	f04f 0000 	mov.w	r0, #0
 800703a:	4770      	bx	lr

0800703c <__aeabi_d2f>:
 800703c:	ea4f 0241 	mov.w	r2, r1, lsl #1
 8007040:	f1b2 43e0 	subs.w	r3, r2, #1879048192	; 0x70000000
 8007044:	bf24      	itt	cs
 8007046:	f5b3 1c00 	subscs.w	ip, r3, #2097152	; 0x200000
 800704a:	f1dc 5cfe 	rsbscs	ip, ip, #532676608	; 0x1fc00000
 800704e:	d90d      	bls.n	800706c <__aeabi_d2f+0x30>
 8007050:	f001 4c00 	and.w	ip, r1, #2147483648	; 0x80000000
 8007054:	ea4f 02c0 	mov.w	r2, r0, lsl #3
 8007058:	ea4c 7050 	orr.w	r0, ip, r0, lsr #29
 800705c:	f1b2 4f00 	cmp.w	r2, #2147483648	; 0x80000000
 8007060:	eb40 0083 	adc.w	r0, r0, r3, lsl #2
 8007064:	bf08      	it	eq
 8007066:	f020 0001 	biceq.w	r0, r0, #1
 800706a:	4770      	bx	lr
 800706c:	f011 4f80 	tst.w	r1, #1073741824	; 0x40000000
 8007070:	d121      	bne.n	80070b6 <__aeabi_d2f+0x7a>
 8007072:	f113 7238 	adds.w	r2, r3, #48234496	; 0x2e00000
 8007076:	bfbc      	itt	lt
 8007078:	f001 4000 	andlt.w	r0, r1, #2147483648	; 0x80000000
 800707c:	4770      	bxlt	lr
 800707e:	f441 1180 	orr.w	r1, r1, #1048576	; 0x100000
 8007082:	ea4f 5252 	mov.w	r2, r2, lsr #21
 8007086:	f1c2 0218 	rsb	r2, r2, #24
 800708a:	f1c2 0c20 	rsb	ip, r2, #32
 800708e:	fa10 f30c 	lsls.w	r3, r0, ip
 8007092:	fa20 f002 	lsr.w	r0, r0, r2
 8007096:	bf18      	it	ne
 8007098:	f040 0001 	orrne.w	r0, r0, #1
 800709c:	ea4f 23c1 	mov.w	r3, r1, lsl #11
 80070a0:	ea4f 23d3 	mov.w	r3, r3, lsr #11
 80070a4:	fa03 fc0c 	lsl.w	ip, r3, ip
 80070a8:	ea40 000c 	orr.w	r0, r0, ip
 80070ac:	fa23 f302 	lsr.w	r3, r3, r2
 80070b0:	ea4f 0343 	mov.w	r3, r3, lsl #1
 80070b4:	e7cc      	b.n	8007050 <__aeabi_d2f+0x14>
 80070b6:	ea7f 5362 	mvns.w	r3, r2, asr #21
 80070ba:	d107      	bne.n	80070cc <__aeabi_d2f+0x90>
 80070bc:	ea50 3301 	orrs.w	r3, r0, r1, lsl #12
 80070c0:	bf1e      	ittt	ne
 80070c2:	f04f 40fe 	movne.w	r0, #2130706432	; 0x7f000000
 80070c6:	f440 0040 	orrne.w	r0, r0, #12582912	; 0xc00000
 80070ca:	4770      	bxne	lr
 80070cc:	f001 4000 	and.w	r0, r1, #2147483648	; 0x80000000
 80070d0:	f040 40fe 	orr.w	r0, r0, #2130706432	; 0x7f000000
 80070d4:	f440 0000 	orr.w	r0, r0, #8388608	; 0x800000
 80070d8:	4770      	bx	lr
 80070da:	bf00      	nop

080070dc <__aeabi_d2lz>:
 80070dc:	b538      	push	{r3, r4, r5, lr}
 80070de:	2200      	movs	r2, #0
 80070e0:	2300      	movs	r3, #0
 80070e2:	4604      	mov	r4, r0
 80070e4:	460d      	mov	r5, r1
 80070e6:	f7ff ff23 	bl	8006f30 <__aeabi_dcmplt>
 80070ea:	b928      	cbnz	r0, 80070f8 <__aeabi_d2lz+0x1c>
 80070ec:	4620      	mov	r0, r4
 80070ee:	4629      	mov	r1, r5
 80070f0:	e8bd 4038 	ldmia.w	sp!, {r3, r4, r5, lr}
 80070f4:	f000 b80a 	b.w	800710c <__aeabi_d2ulz>
 80070f8:	4620      	mov	r0, r4
 80070fa:	f105 4100 	add.w	r1, r5, #2147483648	; 0x80000000
 80070fe:	f000 f805 	bl	800710c <__aeabi_d2ulz>
 8007102:	4240      	negs	r0, r0
 8007104:	eb61 0141 	sbc.w	r1, r1, r1, lsl #1
 8007108:	bd38      	pop	{r3, r4, r5, pc}
 800710a:	bf00      	nop

0800710c <__aeabi_d2ulz>:
 800710c:	b5d0      	push	{r4, r6, r7, lr}
 800710e:	4b0c      	ldr	r3, [pc, #48]	; (8007140 <__aeabi_d2ulz+0x34>)
 8007110:	2200      	movs	r2, #0
 8007112:	4606      	mov	r6, r0
 8007114:	460f      	mov	r7, r1
 8007116:	f7ff fc99 	bl	8006a4c <__aeabi_dmul>
 800711a:	f7ff ff6f 	bl	8006ffc <__aeabi_d2uiz>
 800711e:	4604      	mov	r4, r0
 8007120:	f7ff fc1a 	bl	8006958 <__aeabi_ui2d>
 8007124:	4b07      	ldr	r3, [pc, #28]	; (8007144 <__aeabi_d2ulz+0x38>)
 8007126:	2200      	movs	r2, #0
 8007128:	f7ff fc90 	bl	8006a4c <__aeabi_dmul>
 800712c:	4602      	mov	r2, r0
 800712e:	460b      	mov	r3, r1
 8007130:	4630      	mov	r0, r6
 8007132:	4639      	mov	r1, r7
 8007134:	f7ff fad2 	bl	80066dc <__aeabi_dsub>
 8007138:	f7ff ff60 	bl	8006ffc <__aeabi_d2uiz>
 800713c:	4621      	mov	r1, r4
 800713e:	bdd0      	pop	{r4, r6, r7, pc}
 8007140:	3df00000 	.word	0x3df00000
 8007144:	41f00000 	.word	0x41f00000

08007148 <dsrtos_kernel_get_kcb>:

/**
 * @brief Get kernel control block
 */
dsrtos_kernel_t* dsrtos_kernel_get_kcb(void)
{
 8007148:	b480      	push	{r7}
 800714a:	af00      	add	r7, sp, #0
    return &g_kernel_cb;
 800714c:	4b02      	ldr	r3, [pc, #8]	; (8007158 <dsrtos_kernel_get_kcb+0x10>)
}
 800714e:	4618      	mov	r0, r3
 8007150:	46bd      	mov	sp, r7
 8007152:	f85d 7b04 	ldr.w	r7, [sp], #4
 8007156:	4770      	bx	lr
 8007158:	200001e0 	.word	0x200001e0

0800715c <__DSB>:
#define __I     volatile const
#define __O     volatile
#define __IO    volatile

/* Core intrinsic functions */
static inline void __DSB(void) {
 800715c:	b480      	push	{r7}
 800715e:	af00      	add	r7, sp, #0
    __asm volatile ("dsb 0xF":::"memory");
 8007160:	f3bf 8f4f 	dsb	sy
}
 8007164:	bf00      	nop
 8007166:	46bd      	mov	sp, r7
 8007168:	f85d 7b04 	ldr.w	r7, [sp], #4
 800716c:	4770      	bx	lr

0800716e <__NOP>:

static inline void __DMB(void) {
    __asm volatile ("dmb 0xF":::"memory");
}

static inline void __NOP(void) {
 800716e:	b480      	push	{r7}
 8007170:	af00      	add	r7, sp, #0
    __asm volatile ("nop");
 8007172:	bf00      	nop
}
 8007174:	bf00      	nop
 8007176:	46bd      	mov	sp, r7
 8007178:	f85d 7b04 	ldr.w	r7, [sp], #4
 800717c:	4770      	bx	lr

0800717e <__get_MSP>:

static inline uint32_t __get_MSP(void) {
 800717e:	b480      	push	{r7}
 8007180:	b083      	sub	sp, #12
 8007182:	af00      	add	r7, sp, #0
    uint32_t result;
    __asm volatile ("MRS %0, msp" : "=r" (result));
 8007184:	f3ef 8308 	mrs	r3, MSP
 8007188:	607b      	str	r3, [r7, #4]
    return result;
 800718a:	687b      	ldr	r3, [r7, #4]
}
 800718c:	4618      	mov	r0, r3
 800718e:	370c      	adds	r7, #12
 8007190:	46bd      	mov	sp, r7
 8007192:	f85d 7b04 	ldr.w	r7, [sp], #4
 8007196:	4770      	bx	lr

08007198 <__get_PSP>:

static inline void __set_MSP(uint32_t topOfMainStack) {
    __asm volatile ("MSR msp, %0" : : "r" (topOfMainStack));
}

static inline uint32_t __get_PSP(void) {
 8007198:	b480      	push	{r7}
 800719a:	b083      	sub	sp, #12
 800719c:	af00      	add	r7, sp, #0
    uint32_t result;
    __asm volatile ("MRS %0, psp" : "=r" (result));
 800719e:	f3ef 8309 	mrs	r3, PSP
 80071a2:	607b      	str	r3, [r7, #4]
    return result;
 80071a4:	687b      	ldr	r3, [r7, #4]
}
 80071a6:	4618      	mov	r0, r3
 80071a8:	370c      	adds	r7, #12
 80071aa:	46bd      	mov	sp, r7
 80071ac:	f85d 7b04 	ldr.w	r7, [sp], #4
 80071b0:	4770      	bx	lr

080071b2 <__disable_irq>:

static inline void __enable_irq(void) {
    __asm volatile ("cpsie i" : : : "memory");
}

static inline void __disable_irq(void) {
 80071b2:	b480      	push	{r7}
 80071b4:	af00      	add	r7, sp, #0
    __asm volatile ("cpsid i" : : : "memory");
 80071b6:	b672      	cpsid	i
}
 80071b8:	bf00      	nop
 80071ba:	46bd      	mov	sp, r7
 80071bc:	f85d 7b04 	ldr.w	r7, [sp], #4
 80071c0:	4770      	bx	lr
	...

080071c4 <NVIC_SystemReset>:

static inline void NVIC_ClearPendingIRQ(IRQn_Type IRQn) {
    NVIC->ICPR[(((uint32_t)(int32_t)IRQn) >> 5UL)] = (uint32_t)(1UL << (((uint32_t)(int32_t)IRQn) & 0x1FUL));
}

static inline void NVIC_SystemReset(void) {
 80071c4:	b580      	push	{r7, lr}
 80071c6:	af00      	add	r7, sp, #0
    __DSB();
 80071c8:	f7ff ffc8 	bl	800715c <__DSB>
    SCB->AIRCR = (0x5FAUL << SCB_AIRCR_VECTKEY_Pos) | SCB_AIRCR_SYSRESETREQ_Msk;
 80071cc:	4b03      	ldr	r3, [pc, #12]	; (80071dc <NVIC_SystemReset+0x18>)
 80071ce:	4a04      	ldr	r2, [pc, #16]	; (80071e0 <NVIC_SystemReset+0x1c>)
 80071d0:	60da      	str	r2, [r3, #12]
    __DSB();
 80071d2:	f7ff ffc3 	bl	800715c <__DSB>
    for(;;) {
        __NOP();
 80071d6:	f7ff ffca 	bl	800716e <__NOP>
 80071da:	e7fc      	b.n	80071d6 <NVIC_SystemReset+0x12>
 80071dc:	e000ed00 	.word	0xe000ed00
 80071e0:	05fa0004 	.word	0x05fa0004

080071e4 <__WFI>:
/* Panic context storage */
static dsrtos_panic_context_t g_panic_context __attribute__((section(".noinit")));
static dsrtos_panic_context_t g_panic_history[3] __attribute__((section(".noinit")));

static inline void __WFI(void)
{
 80071e4:	b480      	push	{r7}
 80071e6:	af00      	add	r7, sp, #0
    __asm volatile ("wfi" ::: "memory");
 80071e8:	bf30      	wfi
}
 80071ea:	bf00      	nop
 80071ec:	46bd      	mov	sp, r7
 80071ee:	f85d 7b04 	ldr.w	r7, [sp], #4
 80071f2:	4770      	bx	lr

080071f4 <dsrtos_panic>:
 */
void dsrtos_panic(dsrtos_panic_reason_t reason,
                  const char* message,
                  const char* file,
                  uint32_t line)
{
 80071f4:	b580      	push	{r7, lr}
 80071f6:	b088      	sub	sp, #32
 80071f8:	af02      	add	r7, sp, #8
 80071fa:	60b9      	str	r1, [r7, #8]
 80071fc:	607a      	str	r2, [r7, #4]
 80071fe:	603b      	str	r3, [r7, #0]
 8007200:	4603      	mov	r3, r0
 8007202:	81fb      	strh	r3, [r7, #14]
    /* Disable all interrupts immediately */
    __disable_irq();
 8007204:	f7ff ffd5 	bl	80071b2 <__disable_irq>
    
    /* Check for recursive panic */
    if (g_panic_state.panic_active) {
 8007208:	4b1e      	ldr	r3, [pc, #120]	; (8007284 <dsrtos_panic+0x90>)
 800720a:	7a1b      	ldrb	r3, [r3, #8]
 800720c:	2b00      	cmp	r3, #0
 800720e:	d004      	beq.n	800721a <dsrtos_panic+0x26>
        /* Double panic - immediate reset */
        NVIC_SystemReset();
 8007210:	f7ff ffd8 	bl	80071c4 <NVIC_SystemReset>
        while (1) { __NOP(); }
 8007214:	f7ff ffab 	bl	800716e <__NOP>
 8007218:	e7fc      	b.n	8007214 <dsrtos_panic+0x20>
    }
    
    /* Mark panic as active */
    g_panic_state.panic_active = true;
 800721a:	4b1a      	ldr	r3, [pc, #104]	; (8007284 <dsrtos_panic+0x90>)
 800721c:	2201      	movs	r2, #1
 800721e:	721a      	strb	r2, [r3, #8]
    g_panic_state.panic_count++;
 8007220:	4b18      	ldr	r3, [pc, #96]	; (8007284 <dsrtos_panic+0x90>)
 8007222:	681b      	ldr	r3, [r3, #0]
 8007224:	3301      	adds	r3, #1
 8007226:	4a17      	ldr	r2, [pc, #92]	; (8007284 <dsrtos_panic+0x90>)
 8007228:	6013      	str	r3, [r2, #0]
    
    /* Capture panic context */
    panic_capture_context(&g_panic_context, reason, message, file, line);
 800722a:	89f9      	ldrh	r1, [r7, #14]
 800722c:	683b      	ldr	r3, [r7, #0]
 800722e:	9300      	str	r3, [sp, #0]
 8007230:	687b      	ldr	r3, [r7, #4]
 8007232:	68ba      	ldr	r2, [r7, #8]
 8007234:	4814      	ldr	r0, [pc, #80]	; (8007288 <dsrtos_panic+0x94>)
 8007236:	f000 f8af 	bl	8007398 <panic_capture_context>
    
    /* Call custom handler if registered */
    if (g_panic_state.custom_handler != NULL) {
 800723a:	4b12      	ldr	r3, [pc, #72]	; (8007284 <dsrtos_panic+0x90>)
 800723c:	68db      	ldr	r3, [r3, #12]
 800723e:	2b00      	cmp	r3, #0
 8007240:	d004      	beq.n	800724c <dsrtos_panic+0x58>
        g_panic_state.custom_handler(&g_panic_context);
 8007242:	4b10      	ldr	r3, [pc, #64]	; (8007284 <dsrtos_panic+0x90>)
 8007244:	68db      	ldr	r3, [r3, #12]
 8007246:	4810      	ldr	r0, [pc, #64]	; (8007288 <dsrtos_panic+0x94>)
 8007248:	4798      	blx	r3
 800724a:	e002      	b.n	8007252 <dsrtos_panic+0x5e>
    }
    else {
        /* Use default handler */
        panic_default_handler(&g_panic_context);
 800724c:	480e      	ldr	r0, [pc, #56]	; (8007288 <dsrtos_panic+0x94>)
 800724e:	f000 f93b 	bl	80074c8 <panic_default_handler>
    }
    
    /* Handle restart or halt */
    if (g_panic_config.auto_restart) {
 8007252:	4b0e      	ldr	r3, [pc, #56]	; (800728c <dsrtos_panic+0x98>)
 8007254:	781b      	ldrb	r3, [r3, #0]
 8007256:	2b00      	cmp	r3, #0
 8007258:	d010      	beq.n	800727c <dsrtos_panic+0x88>
        /* Delay before restart */
        volatile uint32_t delay = g_panic_config.restart_delay_ms * 1000U;
 800725a:	4b0c      	ldr	r3, [pc, #48]	; (800728c <dsrtos_panic+0x98>)
 800725c:	685b      	ldr	r3, [r3, #4]
 800725e:	f44f 727a 	mov.w	r2, #1000	; 0x3e8
 8007262:	fb02 f303 	mul.w	r3, r2, r3
 8007266:	617b      	str	r3, [r7, #20]
        while (delay-- > 0U) {
 8007268:	e001      	b.n	800726e <dsrtos_panic+0x7a>
            __NOP();
 800726a:	f7ff ff80 	bl	800716e <__NOP>
        while (delay-- > 0U) {
 800726e:	697b      	ldr	r3, [r7, #20]
 8007270:	1e5a      	subs	r2, r3, #1
 8007272:	617a      	str	r2, [r7, #20]
 8007274:	2b00      	cmp	r3, #0
 8007276:	d1f8      	bne.n	800726a <dsrtos_panic+0x76>
        }
        panic_system_reset();
 8007278:	f000 f982 	bl	8007580 <panic_system_reset>
    }
    
    /* Halt system */
    while (1) {
        __WFI();  /* Wait for interrupt (will never come) */
 800727c:	f7ff ffb2 	bl	80071e4 <__WFI>
 8007280:	e7fc      	b.n	800727c <dsrtos_panic+0x88>
 8007282:	bf00      	nop
 8007284:	200006d0 	.word	0x200006d0
 8007288:	20000490 	.word	0x20000490
 800728c:	20000240 	.word	0x20000240

08007290 <dsrtos_panic_save>:

/**
 * @brief Save panic context to persistent storage
 */
dsrtos_error_t dsrtos_panic_save(const dsrtos_panic_context_t* context)
{
 8007290:	b480      	push	{r7}
 8007292:	b085      	sub	sp, #20
 8007294:	af00      	add	r7, sp, #0
 8007296:	6078      	str	r0, [r7, #4]
    dsrtos_error_t result = DSRTOS_SUCCESS;
 8007298:	2300      	movs	r3, #0
 800729a:	60fb      	str	r3, [r7, #12]
    
    if (context == NULL) {
 800729c:	687b      	ldr	r3, [r7, #4]
 800729e:	2b00      	cmp	r3, #0
 80072a0:	d103      	bne.n	80072aa <dsrtos_panic_save+0x1a>
        result = DSRTOS_ERROR_INVALID_PARAM;
 80072a2:	f04f 33ff 	mov.w	r3, #4294967295	; 0xffffffff
 80072a6:	60fb      	str	r3, [r7, #12]
 80072a8:	e00d      	b.n	80072c6 <dsrtos_panic_save+0x36>
    }
    else if (!g_panic_config.save_to_flash || g_panic_config.flash_address == 0U) {
 80072aa:	4b0a      	ldr	r3, [pc, #40]	; (80072d4 <dsrtos_panic_save+0x44>)
 80072ac:	7a5b      	ldrb	r3, [r3, #9]
 80072ae:	f083 0301 	eor.w	r3, r3, #1
 80072b2:	b2db      	uxtb	r3, r3
 80072b4:	2b00      	cmp	r3, #0
 80072b6:	d103      	bne.n	80072c0 <dsrtos_panic_save+0x30>
 80072b8:	4b06      	ldr	r3, [pc, #24]	; (80072d4 <dsrtos_panic_save+0x44>)
 80072ba:	68db      	ldr	r3, [r3, #12]
 80072bc:	2b00      	cmp	r3, #0
 80072be:	d102      	bne.n	80072c6 <dsrtos_panic_save+0x36>
        result = DSRTOS_ERROR_NOT_SUPPORTED;
 80072c0:	f06f 0364 	mvn.w	r3, #100	; 0x64
 80072c4:	60fb      	str	r3, [r7, #12]
    else {
        /* Flash write would be implemented here */
        /* This requires flash driver from later phases */
    }
    
    return result;
 80072c6:	68fb      	ldr	r3, [r7, #12]
}
 80072c8:	4618      	mov	r0, r3
 80072ca:	3714      	adds	r7, #20
 80072cc:	46bd      	mov	sp, r7
 80072ce:	f85d 7b04 	ldr.w	r7, [sp], #4
 80072d2:	4770      	bx	lr
 80072d4:	20000240 	.word	0x20000240

080072d8 <HardFault_Handler>:
/**
 * @brief Hard fault handler
 */
void HardFault_Handler(void)
{
    __asm volatile (
 80072d8:	f01e 0f04 	tst.w	lr, #4
 80072dc:	bf0c      	ite	eq
 80072de:	f3ef 8008 	mrseq	r0, MSP
 80072e2:	f3ef 8009 	mrsne	r0, PSP
 80072e6:	f000 b801 	b.w	80072ec <hard_fault_handler_c>
        "ite eq\n"
        "mrseq r0, msp\n"
        "mrsne r0, psp\n"
        "b hard_fault_handler_c"
    );
}
 80072ea:	bf00      	nop

080072ec <hard_fault_handler_c>:

/**
 * @brief Hard fault handler C function
 */
void hard_fault_handler_c(uint32_t* sp)
{
 80072ec:	b580      	push	{r7, lr}
 80072ee:	b082      	sub	sp, #8
 80072f0:	af00      	add	r7, sp, #0
 80072f2:	6078      	str	r0, [r7, #4]
    /* Extract fault information from stack */
    g_panic_context.cpu_context.r0 = sp[0];
 80072f4:	687b      	ldr	r3, [r7, #4]
 80072f6:	681b      	ldr	r3, [r3, #0]
 80072f8:	4a12      	ldr	r2, [pc, #72]	; (8007344 <hard_fault_handler_c+0x58>)
 80072fa:	6153      	str	r3, [r2, #20]
    g_panic_context.cpu_context.r1 = sp[1];
 80072fc:	687b      	ldr	r3, [r7, #4]
 80072fe:	685b      	ldr	r3, [r3, #4]
 8007300:	4a10      	ldr	r2, [pc, #64]	; (8007344 <hard_fault_handler_c+0x58>)
 8007302:	6193      	str	r3, [r2, #24]
    g_panic_context.cpu_context.r2 = sp[2];
 8007304:	687b      	ldr	r3, [r7, #4]
 8007306:	689b      	ldr	r3, [r3, #8]
 8007308:	4a0e      	ldr	r2, [pc, #56]	; (8007344 <hard_fault_handler_c+0x58>)
 800730a:	61d3      	str	r3, [r2, #28]
    g_panic_context.cpu_context.r3 = sp[3];
 800730c:	687b      	ldr	r3, [r7, #4]
 800730e:	68db      	ldr	r3, [r3, #12]
 8007310:	4a0c      	ldr	r2, [pc, #48]	; (8007344 <hard_fault_handler_c+0x58>)
 8007312:	6213      	str	r3, [r2, #32]
    g_panic_context.cpu_context.r12 = sp[4];
 8007314:	687b      	ldr	r3, [r7, #4]
 8007316:	691b      	ldr	r3, [r3, #16]
 8007318:	4a0a      	ldr	r2, [pc, #40]	; (8007344 <hard_fault_handler_c+0x58>)
 800731a:	6453      	str	r3, [r2, #68]	; 0x44
    g_panic_context.cpu_context.lr = sp[5];
 800731c:	687b      	ldr	r3, [r7, #4]
 800731e:	695b      	ldr	r3, [r3, #20]
 8007320:	4a08      	ldr	r2, [pc, #32]	; (8007344 <hard_fault_handler_c+0x58>)
 8007322:	64d3      	str	r3, [r2, #76]	; 0x4c
    g_panic_context.cpu_context.pc = sp[6];
 8007324:	687b      	ldr	r3, [r7, #4]
 8007326:	699b      	ldr	r3, [r3, #24]
 8007328:	4a06      	ldr	r2, [pc, #24]	; (8007344 <hard_fault_handler_c+0x58>)
 800732a:	6513      	str	r3, [r2, #80]	; 0x50
    g_panic_context.cpu_context.psr = sp[7];
 800732c:	687b      	ldr	r3, [r7, #4]
 800732e:	69db      	ldr	r3, [r3, #28]
 8007330:	4a04      	ldr	r2, [pc, #16]	; (8007344 <hard_fault_handler_c+0x58>)
 8007332:	6553      	str	r3, [r2, #84]	; 0x54
    
    /* Trigger panic */
    dsrtos_panic(DSRTOS_PANIC_HARD_FAULT, "Hard Fault", __FILE__, __LINE__);
 8007334:	f44f 73a3 	mov.w	r3, #326	; 0x146
 8007338:	4a03      	ldr	r2, [pc, #12]	; (8007348 <hard_fault_handler_c+0x5c>)
 800733a:	4904      	ldr	r1, [pc, #16]	; (800734c <hard_fault_handler_c+0x60>)
 800733c:	2001      	movs	r0, #1
 800733e:	f7ff ff59 	bl	80071f4 <dsrtos_panic>
 8007342:	bf00      	nop
 8007344:	20000490 	.word	0x20000490
 8007348:	08007d00 	.word	0x08007d00
 800734c:	08007d1c 	.word	0x08007d1c

08007350 <MemManage_Handler>:
/**
 * @brief Memory management fault handler
 */
void MemManage_Handler(void)
{
    dsrtos_panic(DSRTOS_PANIC_MEM_FAULT, "Memory Management Fault", __FILE__, __LINE__);
 8007350:	f44f 73a7 	mov.w	r3, #334	; 0x14e
 8007354:	4a02      	ldr	r2, [pc, #8]	; (8007360 <MemManage_Handler+0x10>)
 8007356:	4903      	ldr	r1, [pc, #12]	; (8007364 <MemManage_Handler+0x14>)
 8007358:	2002      	movs	r0, #2
 800735a:	f7ff ff4b 	bl	80071f4 <dsrtos_panic>
 800735e:	bf00      	nop
 8007360:	08007d00 	.word	0x08007d00
 8007364:	08007d28 	.word	0x08007d28

08007368 <BusFault_Handler>:
/**
 * @brief Bus fault handler
 */
void BusFault_Handler(void)
{
    dsrtos_panic(DSRTOS_PANIC_BUS_FAULT, "Bus Fault", __FILE__, __LINE__);
 8007368:	f44f 73ab 	mov.w	r3, #342	; 0x156
 800736c:	4a02      	ldr	r2, [pc, #8]	; (8007378 <BusFault_Handler+0x10>)
 800736e:	4903      	ldr	r1, [pc, #12]	; (800737c <BusFault_Handler+0x14>)
 8007370:	2003      	movs	r0, #3
 8007372:	f7ff ff3f 	bl	80071f4 <dsrtos_panic>
 8007376:	bf00      	nop
 8007378:	08007d00 	.word	0x08007d00
 800737c:	08007d40 	.word	0x08007d40

08007380 <UsageFault_Handler>:
/**
 * @brief Usage fault handler
 */
void UsageFault_Handler(void)
{
    dsrtos_panic(DSRTOS_PANIC_USAGE_FAULT, "Usage Fault", __FILE__, __LINE__);
 8007380:	f44f 73af 	mov.w	r3, #350	; 0x15e
 8007384:	4a02      	ldr	r2, [pc, #8]	; (8007390 <UsageFault_Handler+0x10>)
 8007386:	4903      	ldr	r1, [pc, #12]	; (8007394 <UsageFault_Handler+0x14>)
 8007388:	2004      	movs	r0, #4
 800738a:	f7ff ff33 	bl	80071f4 <dsrtos_panic>
 800738e:	bf00      	nop
 8007390:	08007d00 	.word	0x08007d00
 8007394:	08007d4c 	.word	0x08007d4c

08007398 <panic_capture_context>:
static void panic_capture_context(dsrtos_panic_context_t* context,
                                  dsrtos_panic_reason_t reason,
                                  const char* message,
                                  const char* file,
                                  uint32_t line)
{
 8007398:	b580      	push	{r7, lr}
 800739a:	b084      	sub	sp, #16
 800739c:	af00      	add	r7, sp, #0
 800739e:	60f8      	str	r0, [r7, #12]
 80073a0:	607a      	str	r2, [r7, #4]
 80073a2:	603b      	str	r3, [r7, #0]
 80073a4:	460b      	mov	r3, r1
 80073a6:	817b      	strh	r3, [r7, #10]
    /* Basic information */
    context->reason = reason;
 80073a8:	68fb      	ldr	r3, [r7, #12]
 80073aa:	897a      	ldrh	r2, [r7, #10]
 80073ac:	801a      	strh	r2, [r3, #0]
    context->message = message;
 80073ae:	68fb      	ldr	r3, [r7, #12]
 80073b0:	687a      	ldr	r2, [r7, #4]
 80073b2:	605a      	str	r2, [r3, #4]
    context->file = file;
 80073b4:	68fb      	ldr	r3, [r7, #12]
 80073b6:	683a      	ldr	r2, [r7, #0]
 80073b8:	609a      	str	r2, [r3, #8]
    context->line = line;
 80073ba:	68fb      	ldr	r3, [r7, #12]
 80073bc:	69ba      	ldr	r2, [r7, #24]
 80073be:	60da      	str	r2, [r3, #12]
    context->timestamp = SysTick->VAL;
 80073c0:	4b08      	ldr	r3, [pc, #32]	; (80073e4 <panic_capture_context+0x4c>)
 80073c2:	689a      	ldr	r2, [r3, #8]
 80073c4:	68fb      	ldr	r3, [r7, #12]
 80073c6:	611a      	str	r2, [r3, #16]
    
    /* Capture CPU state */
    panic_capture_cpu_state(context);
 80073c8:	68f8      	ldr	r0, [r7, #12]
 80073ca:	f000 f80d 	bl	80073e8 <panic_capture_cpu_state>
    
    /* Capture fault status */
    panic_capture_fault_status(context);
 80073ce:	68f8      	ldr	r0, [r7, #12]
 80073d0:	f000 f82c 	bl	800742c <panic_capture_fault_status>
    
    /* Capture system state */
    panic_capture_system_state(context);
 80073d4:	68f8      	ldr	r0, [r7, #12]
 80073d6:	f000 f84d 	bl	8007474 <panic_capture_system_state>
}
 80073da:	bf00      	nop
 80073dc:	3710      	adds	r7, #16
 80073de:	46bd      	mov	sp, r7
 80073e0:	bd80      	pop	{r7, pc}
 80073e2:	bf00      	nop
 80073e4:	e000e010 	.word	0xe000e010

080073e8 <panic_capture_cpu_state>:

/**
 * @brief Capture CPU state
 */
static void panic_capture_cpu_state(dsrtos_panic_context_t* context)
{
 80073e8:	b480      	push	{r7}
 80073ea:	b083      	sub	sp, #12
 80073ec:	af00      	add	r7, sp, #0
 80073ee:	6078      	str	r0, [r7, #4]
        "str r10, [%0, #40]\n"
        "str r11, [%0, #44]\n"
        "str r12, [%0, #48]\n"
        "str sp, [%0, #52]\n"
        "str lr, [%0, #56]\n"
        : : "r" (&context->cpu_context) : "memory"
 80073f0:	687b      	ldr	r3, [r7, #4]
 80073f2:	3314      	adds	r3, #20
    __asm volatile (
 80073f4:	6018      	str	r0, [r3, #0]
 80073f6:	6059      	str	r1, [r3, #4]
 80073f8:	609a      	str	r2, [r3, #8]
 80073fa:	60db      	str	r3, [r3, #12]
 80073fc:	611c      	str	r4, [r3, #16]
 80073fe:	615d      	str	r5, [r3, #20]
 8007400:	619e      	str	r6, [r3, #24]
 8007402:	61df      	str	r7, [r3, #28]
 8007404:	f8c3 8020 	str.w	r8, [r3, #32]
 8007408:	f8c3 9024 	str.w	r9, [r3, #36]	; 0x24
 800740c:	f8c3 a028 	str.w	sl, [r3, #40]	; 0x28
 8007410:	f8c3 b02c 	str.w	fp, [r3, #44]	; 0x2c
 8007414:	f8c3 c030 	str.w	ip, [r3, #48]	; 0x30
 8007418:	f8c3 d034 	str.w	sp, [r3, #52]	; 0x34
 800741c:	f8c3 e038 	str.w	lr, [r3, #56]	; 0x38
    );
}
 8007420:	bf00      	nop
 8007422:	370c      	adds	r7, #12
 8007424:	46bd      	mov	sp, r7
 8007426:	f85d 7b04 	ldr.w	r7, [sp], #4
 800742a:	4770      	bx	lr

0800742c <panic_capture_fault_status>:

/**
 * @brief Capture fault status registers
 */
static void panic_capture_fault_status(dsrtos_panic_context_t* context)
{
 800742c:	b480      	push	{r7}
 800742e:	b083      	sub	sp, #12
 8007430:	af00      	add	r7, sp, #0
 8007432:	6078      	str	r0, [r7, #4]
    context->fault_status.cfsr = SCB->CFSR;
 8007434:	4b0e      	ldr	r3, [pc, #56]	; (8007470 <panic_capture_fault_status+0x44>)
 8007436:	6a9a      	ldr	r2, [r3, #40]	; 0x28
 8007438:	687b      	ldr	r3, [r7, #4]
 800743a:	659a      	str	r2, [r3, #88]	; 0x58
    context->fault_status.hfsr = SCB->HFSR;
 800743c:	4b0c      	ldr	r3, [pc, #48]	; (8007470 <panic_capture_fault_status+0x44>)
 800743e:	6ada      	ldr	r2, [r3, #44]	; 0x2c
 8007440:	687b      	ldr	r3, [r7, #4]
 8007442:	65da      	str	r2, [r3, #92]	; 0x5c
    context->fault_status.dfsr = SCB->DFSR;
 8007444:	4b0a      	ldr	r3, [pc, #40]	; (8007470 <panic_capture_fault_status+0x44>)
 8007446:	6b1a      	ldr	r2, [r3, #48]	; 0x30
 8007448:	687b      	ldr	r3, [r7, #4]
 800744a:	661a      	str	r2, [r3, #96]	; 0x60
    context->fault_status.mmfar = SCB->MMFAR;
 800744c:	4b08      	ldr	r3, [pc, #32]	; (8007470 <panic_capture_fault_status+0x44>)
 800744e:	6b5a      	ldr	r2, [r3, #52]	; 0x34
 8007450:	687b      	ldr	r3, [r7, #4]
 8007452:	665a      	str	r2, [r3, #100]	; 0x64
    context->fault_status.bfar = SCB->BFAR;
 8007454:	4b06      	ldr	r3, [pc, #24]	; (8007470 <panic_capture_fault_status+0x44>)
 8007456:	6b9a      	ldr	r2, [r3, #56]	; 0x38
 8007458:	687b      	ldr	r3, [r7, #4]
 800745a:	669a      	str	r2, [r3, #104]	; 0x68
    context->fault_status.afsr = SCB->AFSR;
 800745c:	4b04      	ldr	r3, [pc, #16]	; (8007470 <panic_capture_fault_status+0x44>)
 800745e:	6bda      	ldr	r2, [r3, #60]	; 0x3c
 8007460:	687b      	ldr	r3, [r7, #4]
 8007462:	66da      	str	r2, [r3, #108]	; 0x6c
}
 8007464:	bf00      	nop
 8007466:	370c      	adds	r7, #12
 8007468:	46bd      	mov	sp, r7
 800746a:	f85d 7b04 	ldr.w	r7, [sp], #4
 800746e:	4770      	bx	lr
 8007470:	e000ed00 	.word	0xe000ed00

08007474 <panic_capture_system_state>:

/**
 * @brief Capture system state
 */
static void panic_capture_system_state(dsrtos_panic_context_t* context)
{
 8007474:	b580      	push	{r7, lr}
 8007476:	b084      	sub	sp, #16
 8007478:	af00      	add	r7, sp, #0
 800747a:	6078      	str	r0, [r7, #4]
    dsrtos_kernel_t* kernel = dsrtos_kernel_get_kcb();
 800747c:	f7ff fe64 	bl	8007148 <dsrtos_kernel_get_kcb>
 8007480:	60f8      	str	r0, [r7, #12]
    
    if (kernel != NULL) {
 8007482:	68fb      	ldr	r3, [r7, #12]
 8007484:	2b00      	cmp	r3, #0
 8007486:	d00c      	beq.n	80074a2 <panic_capture_system_state+0x2e>
        context->system_state.kernel_state = (uint32_t)kernel->state;
 8007488:	68fb      	ldr	r3, [r7, #12]
 800748a:	781b      	ldrb	r3, [r3, #0]
 800748c:	461a      	mov	r2, r3
 800748e:	687b      	ldr	r3, [r7, #4]
 8007490:	675a      	str	r2, [r3, #116]	; 0x74
        context->system_state.critical_nesting = kernel->critical_nesting;
 8007492:	68fb      	ldr	r3, [r7, #12]
 8007494:	6cda      	ldr	r2, [r3, #76]	; 0x4c
 8007496:	687b      	ldr	r3, [r7, #4]
 8007498:	679a      	str	r2, [r3, #120]	; 0x78
        context->system_state.interrupt_nesting = kernel->interrupt_nesting;
 800749a:	68fb      	ldr	r3, [r7, #12]
 800749c:	6d1a      	ldr	r2, [r3, #80]	; 0x50
 800749e:	687b      	ldr	r3, [r7, #4]
 80074a0:	67da      	str	r2, [r3, #124]	; 0x7c
    }
    
    /* Stack information */
    context->stack_info.sp_main = (uint32_t*)__get_MSP();
 80074a2:	f7ff fe6c 	bl	800717e <__get_MSP>
 80074a6:	4603      	mov	r3, r0
 80074a8:	461a      	mov	r2, r3
 80074aa:	687b      	ldr	r3, [r7, #4]
 80074ac:	f8c3 2080 	str.w	r2, [r3, #128]	; 0x80
    context->stack_info.sp_process = (uint32_t*)__get_PSP();
 80074b0:	f7ff fe72 	bl	8007198 <__get_PSP>
 80074b4:	4603      	mov	r3, r0
 80074b6:	461a      	mov	r2, r3
 80074b8:	687b      	ldr	r3, [r7, #4]
 80074ba:	f8c3 2084 	str.w	r2, [r3, #132]	; 0x84
}
 80074be:	bf00      	nop
 80074c0:	3710      	adds	r7, #16
 80074c2:	46bd      	mov	sp, r7
 80074c4:	bd80      	pop	{r7, pc}
	...

080074c8 <panic_default_handler>:

/**
 * @brief Default panic handler
 */
static void panic_default_handler(const dsrtos_panic_context_t* context)
{
 80074c8:	b580      	push	{r7, lr}
 80074ca:	b082      	sub	sp, #8
 80074cc:	af00      	add	r7, sp, #0
 80074ce:	6078      	str	r0, [r7, #4]
    /* Dump panic information if configured */
    if (g_panic_config.dump_to_console) {
 80074d0:	4b08      	ldr	r3, [pc, #32]	; (80074f4 <panic_default_handler+0x2c>)
 80074d2:	7a1b      	ldrb	r3, [r3, #8]
 80074d4:	2b00      	cmp	r3, #0
 80074d6:	d002      	beq.n	80074de <panic_default_handler+0x16>
        panic_print_context(context);
 80074d8:	6878      	ldr	r0, [r7, #4]
 80074da:	f000 f80d 	bl	80074f8 <panic_print_context>
    }
    
    /* Save to flash if configured */
    if (g_panic_config.save_to_flash) {
 80074de:	4b05      	ldr	r3, [pc, #20]	; (80074f4 <panic_default_handler+0x2c>)
 80074e0:	7a5b      	ldrb	r3, [r3, #9]
 80074e2:	2b00      	cmp	r3, #0
 80074e4:	d002      	beq.n	80074ec <panic_default_handler+0x24>
        dsrtos_panic_save(context);
 80074e6:	6878      	ldr	r0, [r7, #4]
 80074e8:	f7ff fed2 	bl	8007290 <dsrtos_panic_save>
    }
}
 80074ec:	bf00      	nop
 80074ee:	3708      	adds	r7, #8
 80074f0:	46bd      	mov	sp, r7
 80074f2:	bd80      	pop	{r7, pc}
 80074f4:	20000240 	.word	0x20000240

080074f8 <panic_print_context>:

/**
 * @brief Print panic context
 */
static void panic_print_context(const dsrtos_panic_context_t* context)
{
 80074f8:	b5f0      	push	{r4, r5, r6, r7, lr}
 80074fa:	b08b      	sub	sp, #44	; 0x2c
 80074fc:	af08      	add	r7, sp, #32
 80074fe:	6078      	str	r0, [r7, #4]
    /* This would output to UART console */
    /* Implementation requires UART driver from Phase 29 */
    
    /* For now, store in buffer for debugger inspection */
    static char panic_buffer[512];
    snprintf(panic_buffer, sizeof(panic_buffer),
 8007500:	687b      	ldr	r3, [r7, #4]
 8007502:	881b      	ldrh	r3, [r3, #0]
 8007504:	4618      	mov	r0, r3
 8007506:	f000 f845 	bl	8007594 <panic_get_reason_string>
 800750a:	4684      	mov	ip, r0
             "Message: %s\r\n"
             "Location: %s:%lu\r\n"
             "PC: 0x%08lX LR: 0x%08lX\r\n"
             "SP: 0x%08lX PSR: 0x%08lX\r\n",
             panic_get_reason_string(context->reason),
             context->reason,
 800750c:	687b      	ldr	r3, [r7, #4]
 800750e:	881b      	ldrh	r3, [r3, #0]
    snprintf(panic_buffer, sizeof(panic_buffer),
 8007510:	603b      	str	r3, [r7, #0]
             context->message ? context->message : "None",
 8007512:	687b      	ldr	r3, [r7, #4]
 8007514:	685b      	ldr	r3, [r3, #4]
    snprintf(panic_buffer, sizeof(panic_buffer),
 8007516:	2b00      	cmp	r3, #0
 8007518:	d002      	beq.n	8007520 <panic_print_context+0x28>
 800751a:	687b      	ldr	r3, [r7, #4]
 800751c:	685b      	ldr	r3, [r3, #4]
 800751e:	e000      	b.n	8007522 <panic_print_context+0x2a>
 8007520:	4b13      	ldr	r3, [pc, #76]	; (8007570 <panic_print_context+0x78>)
             context->file ? context->file : "Unknown",
 8007522:	687a      	ldr	r2, [r7, #4]
 8007524:	6892      	ldr	r2, [r2, #8]
    snprintf(panic_buffer, sizeof(panic_buffer),
 8007526:	2a00      	cmp	r2, #0
 8007528:	d002      	beq.n	8007530 <panic_print_context+0x38>
 800752a:	687a      	ldr	r2, [r7, #4]
 800752c:	6892      	ldr	r2, [r2, #8]
 800752e:	e000      	b.n	8007532 <panic_print_context+0x3a>
 8007530:	4a10      	ldr	r2, [pc, #64]	; (8007574 <panic_print_context+0x7c>)
 8007532:	6879      	ldr	r1, [r7, #4]
 8007534:	68c9      	ldr	r1, [r1, #12]
 8007536:	6878      	ldr	r0, [r7, #4]
 8007538:	6d00      	ldr	r0, [r0, #80]	; 0x50
 800753a:	687c      	ldr	r4, [r7, #4]
 800753c:	6ce4      	ldr	r4, [r4, #76]	; 0x4c
 800753e:	687d      	ldr	r5, [r7, #4]
 8007540:	6cad      	ldr	r5, [r5, #72]	; 0x48
 8007542:	687e      	ldr	r6, [r7, #4]
 8007544:	6d76      	ldr	r6, [r6, #84]	; 0x54
 8007546:	9607      	str	r6, [sp, #28]
 8007548:	9506      	str	r5, [sp, #24]
 800754a:	9405      	str	r4, [sp, #20]
 800754c:	9004      	str	r0, [sp, #16]
 800754e:	9103      	str	r1, [sp, #12]
 8007550:	9202      	str	r2, [sp, #8]
 8007552:	9301      	str	r3, [sp, #4]
 8007554:	683b      	ldr	r3, [r7, #0]
 8007556:	9300      	str	r3, [sp, #0]
 8007558:	4663      	mov	r3, ip
 800755a:	4a07      	ldr	r2, [pc, #28]	; (8007578 <panic_print_context+0x80>)
 800755c:	f44f 7100 	mov.w	r1, #512	; 0x200
 8007560:	4806      	ldr	r0, [pc, #24]	; (800757c <panic_print_context+0x84>)
 8007562:	f7f9 fe8b 	bl	800127c <sniprintf>
             context->cpu_context.lr,
             context->cpu_context.sp,
             context->cpu_context.psr);
    
    (void)panic_buffer; /* Prevent unused warning */
}
 8007566:	bf00      	nop
 8007568:	370c      	adds	r7, #12
 800756a:	46bd      	mov	sp, r7
 800756c:	bdf0      	pop	{r4, r5, r6, r7, pc}
 800756e:	bf00      	nop
 8007570:	08007d58 	.word	0x08007d58
 8007574:	08007d60 	.word	0x08007d60
 8007578:	08007d68 	.word	0x08007d68
 800757c:	20000288 	.word	0x20000288

08007580 <panic_system_reset>:

/**
 * @brief System reset
 */
static void panic_system_reset(void)
{
 8007580:	b580      	push	{r7, lr}
 8007582:	af00      	add	r7, sp, #0
    /* Ensure all memory operations complete */
    __DSB();
 8007584:	f7ff fdea 	bl	800715c <__DSB>
    
    /* System reset */
    NVIC_SystemReset();
 8007588:	f7ff fe1c 	bl	80071c4 <NVIC_SystemReset>
    
    /* Should never reach here */
    while (1) {
        __NOP();
 800758c:	f7ff fdef 	bl	800716e <__NOP>
 8007590:	e7fc      	b.n	800758c <panic_system_reset+0xc>
	...

08007594 <panic_get_reason_string>:

/**
 * @brief Get panic reason string
 */
static const char* panic_get_reason_string(dsrtos_panic_reason_t reason)
{
 8007594:	b480      	push	{r7}
 8007596:	b083      	sub	sp, #12
 8007598:	af00      	add	r7, sp, #0
 800759a:	4603      	mov	r3, r0
 800759c:	80fb      	strh	r3, [r7, #6]
    switch (reason) {
 800759e:	88fb      	ldrh	r3, [r7, #6]
 80075a0:	f64f 72ff 	movw	r2, #65535	; 0xffff
 80075a4:	4293      	cmp	r3, r2
 80075a6:	f000 80cf 	beq.w	8007748 <panic_get_reason_string+0x1b4>
 80075aa:	f5b3 3f80 	cmp.w	r3, #65536	; 0x10000
 80075ae:	f280 80cd 	bge.w	800774c <panic_get_reason_string+0x1b8>
 80075b2:	2b43      	cmp	r3, #67	; 0x43
 80075b4:	f300 8092 	bgt.w	80076dc <panic_get_reason_string+0x148>
 80075b8:	2b00      	cmp	r3, #0
 80075ba:	f2c0 80c7 	blt.w	800774c <panic_get_reason_string+0x1b8>
 80075be:	2b43      	cmp	r3, #67	; 0x43
 80075c0:	f200 80c4 	bhi.w	800774c <panic_get_reason_string+0x1b8>
 80075c4:	a201      	add	r2, pc, #4	; (adr r2, 80075cc <panic_get_reason_string+0x38>)
 80075c6:	f852 f023 	ldr.w	pc, [r2, r3, lsl #2]
 80075ca:	bf00      	nop
 80075cc:	080076e5 	.word	0x080076e5
 80075d0:	080076e9 	.word	0x080076e9
 80075d4:	080076ed 	.word	0x080076ed
 80075d8:	080076f1 	.word	0x080076f1
 80075dc:	080076f5 	.word	0x080076f5
 80075e0:	080076f9 	.word	0x080076f9
 80075e4:	0800774d 	.word	0x0800774d
 80075e8:	0800774d 	.word	0x0800774d
 80075ec:	0800774d 	.word	0x0800774d
 80075f0:	0800774d 	.word	0x0800774d
 80075f4:	0800774d 	.word	0x0800774d
 80075f8:	0800774d 	.word	0x0800774d
 80075fc:	0800774d 	.word	0x0800774d
 8007600:	0800774d 	.word	0x0800774d
 8007604:	0800774d 	.word	0x0800774d
 8007608:	0800774d 	.word	0x0800774d
 800760c:	080076fd 	.word	0x080076fd
 8007610:	08007701 	.word	0x08007701
 8007614:	08007705 	.word	0x08007705
 8007618:	08007709 	.word	0x08007709
 800761c:	0800770d 	.word	0x0800770d
 8007620:	08007711 	.word	0x08007711
 8007624:	0800774d 	.word	0x0800774d
 8007628:	0800774d 	.word	0x0800774d
 800762c:	0800774d 	.word	0x0800774d
 8007630:	0800774d 	.word	0x0800774d
 8007634:	0800774d 	.word	0x0800774d
 8007638:	0800774d 	.word	0x0800774d
 800763c:	0800774d 	.word	0x0800774d
 8007640:	0800774d 	.word	0x0800774d
 8007644:	0800774d 	.word	0x0800774d
 8007648:	0800774d 	.word	0x0800774d
 800764c:	08007715 	.word	0x08007715
 8007650:	08007719 	.word	0x08007719
 8007654:	0800771d 	.word	0x0800771d
 8007658:	08007721 	.word	0x08007721
 800765c:	0800774d 	.word	0x0800774d
 8007660:	0800774d 	.word	0x0800774d
 8007664:	0800774d 	.word	0x0800774d
 8007668:	0800774d 	.word	0x0800774d
 800766c:	0800774d 	.word	0x0800774d
 8007670:	0800774d 	.word	0x0800774d
 8007674:	0800774d 	.word	0x0800774d
 8007678:	0800774d 	.word	0x0800774d
 800767c:	0800774d 	.word	0x0800774d
 8007680:	0800774d 	.word	0x0800774d
 8007684:	0800774d 	.word	0x0800774d
 8007688:	0800774d 	.word	0x0800774d
 800768c:	08007725 	.word	0x08007725
 8007690:	08007729 	.word	0x08007729
 8007694:	0800772d 	.word	0x0800772d
 8007698:	08007731 	.word	0x08007731
 800769c:	0800774d 	.word	0x0800774d
 80076a0:	0800774d 	.word	0x0800774d
 80076a4:	0800774d 	.word	0x0800774d
 80076a8:	0800774d 	.word	0x0800774d
 80076ac:	0800774d 	.word	0x0800774d
 80076b0:	0800774d 	.word	0x0800774d
 80076b4:	0800774d 	.word	0x0800774d
 80076b8:	0800774d 	.word	0x0800774d
 80076bc:	0800774d 	.word	0x0800774d
 80076c0:	0800774d 	.word	0x0800774d
 80076c4:	0800774d 	.word	0x0800774d
 80076c8:	0800774d 	.word	0x0800774d
 80076cc:	08007735 	.word	0x08007735
 80076d0:	08007739 	.word	0x08007739
 80076d4:	0800773d 	.word	0x0800773d
 80076d8:	08007741 	.word	0x08007741
 80076dc:	f5b3 7f80 	cmp.w	r3, #256	; 0x100
 80076e0:	d030      	beq.n	8007744 <panic_get_reason_string+0x1b0>
 80076e2:	e033      	b.n	800774c <panic_get_reason_string+0x1b8>
        case DSRTOS_PANIC_NONE:                return "No Panic";
 80076e4:	4b1d      	ldr	r3, [pc, #116]	; (800775c <panic_get_reason_string+0x1c8>)
 80076e6:	e032      	b.n	800774e <panic_get_reason_string+0x1ba>
        case DSRTOS_PANIC_HARD_FAULT:          return "Hard Fault";
 80076e8:	4b1d      	ldr	r3, [pc, #116]	; (8007760 <panic_get_reason_string+0x1cc>)
 80076ea:	e030      	b.n	800774e <panic_get_reason_string+0x1ba>
        case DSRTOS_PANIC_MEM_FAULT:           return "Memory Fault";
 80076ec:	4b1d      	ldr	r3, [pc, #116]	; (8007764 <panic_get_reason_string+0x1d0>)
 80076ee:	e02e      	b.n	800774e <panic_get_reason_string+0x1ba>
        case DSRTOS_PANIC_BUS_FAULT:           return "Bus Fault";
 80076f0:	4b1d      	ldr	r3, [pc, #116]	; (8007768 <panic_get_reason_string+0x1d4>)
 80076f2:	e02c      	b.n	800774e <panic_get_reason_string+0x1ba>
        case DSRTOS_PANIC_USAGE_FAULT:         return "Usage Fault";
 80076f4:	4b1d      	ldr	r3, [pc, #116]	; (800776c <panic_get_reason_string+0x1d8>)
 80076f6:	e02a      	b.n	800774e <panic_get_reason_string+0x1ba>
        case DSRTOS_PANIC_NMI:                 return "NMI";
 80076f8:	4b1d      	ldr	r3, [pc, #116]	; (8007770 <panic_get_reason_string+0x1dc>)
 80076fa:	e028      	b.n	800774e <panic_get_reason_string+0x1ba>
        case DSRTOS_PANIC_KERNEL_ERROR:        return "Kernel Error";
 80076fc:	4b1d      	ldr	r3, [pc, #116]	; (8007774 <panic_get_reason_string+0x1e0>)
 80076fe:	e026      	b.n	800774e <panic_get_reason_string+0x1ba>
        case DSRTOS_PANIC_STACK_OVERFLOW:      return "Stack Overflow";
 8007700:	4b1d      	ldr	r3, [pc, #116]	; (8007778 <panic_get_reason_string+0x1e4>)
 8007702:	e024      	b.n	800774e <panic_get_reason_string+0x1ba>
        case DSRTOS_PANIC_HEAP_CORRUPTION:     return "Heap Corruption";
 8007704:	4b1d      	ldr	r3, [pc, #116]	; (800777c <panic_get_reason_string+0x1e8>)
 8007706:	e022      	b.n	800774e <panic_get_reason_string+0x1ba>
        case DSRTOS_PANIC_NULL_POINTER:        return "Null Pointer";
 8007708:	4b1d      	ldr	r3, [pc, #116]	; (8007780 <panic_get_reason_string+0x1ec>)
 800770a:	e020      	b.n	800774e <panic_get_reason_string+0x1ba>
        case DSRTOS_PANIC_INVALID_STATE:       return "Invalid State";
 800770c:	4b1d      	ldr	r3, [pc, #116]	; (8007784 <panic_get_reason_string+0x1f0>)
 800770e:	e01e      	b.n	800774e <panic_get_reason_string+0x1ba>
        case DSRTOS_PANIC_CRITICAL_SECTION:    return "Critical Section";
 8007710:	4b1d      	ldr	r3, [pc, #116]	; (8007788 <panic_get_reason_string+0x1f4>)
 8007712:	e01c      	b.n	800774e <panic_get_reason_string+0x1ba>
        case DSRTOS_PANIC_TASK_ERROR:          return "Task Error";
 8007714:	4b1d      	ldr	r3, [pc, #116]	; (800778c <panic_get_reason_string+0x1f8>)
 8007716:	e01a      	b.n	800774e <panic_get_reason_string+0x1ba>
        case DSRTOS_PANIC_TASK_STACK_OVERFLOW: return "Task Stack Overflow";
 8007718:	4b1d      	ldr	r3, [pc, #116]	; (8007790 <panic_get_reason_string+0x1fc>)
 800771a:	e018      	b.n	800774e <panic_get_reason_string+0x1ba>
        case DSRTOS_PANIC_TASK_DEADLINE_MISS:  return "Task Deadline Miss";
 800771c:	4b1d      	ldr	r3, [pc, #116]	; (8007794 <panic_get_reason_string+0x200>)
 800771e:	e016      	b.n	800774e <panic_get_reason_string+0x1ba>
        case DSRTOS_PANIC_TASK_INVALID:        return "Task Invalid";
 8007720:	4b1d      	ldr	r3, [pc, #116]	; (8007798 <panic_get_reason_string+0x204>)
 8007722:	e014      	b.n	800774e <panic_get_reason_string+0x1ba>
        case DSRTOS_PANIC_RESOURCE_ERROR:      return "Resource Error";
 8007724:	4b1d      	ldr	r3, [pc, #116]	; (800779c <panic_get_reason_string+0x208>)
 8007726:	e012      	b.n	800774e <panic_get_reason_string+0x1ba>
        case DSRTOS_PANIC_DEADLOCK:            return "Deadlock";
 8007728:	4b1d      	ldr	r3, [pc, #116]	; (80077a0 <panic_get_reason_string+0x20c>)
 800772a:	e010      	b.n	800774e <panic_get_reason_string+0x1ba>
        case DSRTOS_PANIC_PRIORITY_INVERSION:  return "Priority Inversion";
 800772c:	4b1d      	ldr	r3, [pc, #116]	; (80077a4 <panic_get_reason_string+0x210>)
 800772e:	e00e      	b.n	800774e <panic_get_reason_string+0x1ba>
        case DSRTOS_PANIC_MUTEX_ERROR:         return "Mutex Error";
 8007730:	4b1d      	ldr	r3, [pc, #116]	; (80077a8 <panic_get_reason_string+0x214>)
 8007732:	e00c      	b.n	800774e <panic_get_reason_string+0x1ba>
        case DSRTOS_PANIC_WATCHDOG:            return "Watchdog Timeout";
 8007734:	4b1d      	ldr	r3, [pc, #116]	; (80077ac <panic_get_reason_string+0x218>)
 8007736:	e00a      	b.n	800774e <panic_get_reason_string+0x1ba>
        case DSRTOS_PANIC_ASSERTION_FAILED:    return "Assertion Failed";
 8007738:	4b1d      	ldr	r3, [pc, #116]	; (80077b0 <panic_get_reason_string+0x21c>)
 800773a:	e008      	b.n	800774e <panic_get_reason_string+0x1ba>
        case DSRTOS_PANIC_CORRUPTION:          return "Corruption";
 800773c:	4b1d      	ldr	r3, [pc, #116]	; (80077b4 <panic_get_reason_string+0x220>)
 800773e:	e006      	b.n	800774e <panic_get_reason_string+0x1ba>
        case DSRTOS_PANIC_CONFIGURATION:       return "Configuration";
 8007740:	4b1d      	ldr	r3, [pc, #116]	; (80077b8 <panic_get_reason_string+0x224>)
 8007742:	e004      	b.n	800774e <panic_get_reason_string+0x1ba>
        case DSRTOS_PANIC_USER_DEFINED:        return "User Defined";
 8007744:	4b1d      	ldr	r3, [pc, #116]	; (80077bc <panic_get_reason_string+0x228>)
 8007746:	e002      	b.n	800774e <panic_get_reason_string+0x1ba>
        case DSRTOS_PANIC_MAX:                 return "Max Panic";
 8007748:	4b1d      	ldr	r3, [pc, #116]	; (80077c0 <panic_get_reason_string+0x22c>)
 800774a:	e000      	b.n	800774e <panic_get_reason_string+0x1ba>
        default:                                return "Unknown";
 800774c:	4b1d      	ldr	r3, [pc, #116]	; (80077c4 <panic_get_reason_string+0x230>)
    }
}
 800774e:	4618      	mov	r0, r3
 8007750:	370c      	adds	r7, #12
 8007752:	46bd      	mov	sp, r7
 8007754:	f85d 7b04 	ldr.w	r7, [sp], #4
 8007758:	4770      	bx	lr
 800775a:	bf00      	nop
 800775c:	08007de8 	.word	0x08007de8
 8007760:	08007d1c 	.word	0x08007d1c
 8007764:	08007df4 	.word	0x08007df4
 8007768:	08007d40 	.word	0x08007d40
 800776c:	08007d4c 	.word	0x08007d4c
 8007770:	08007e04 	.word	0x08007e04
 8007774:	08007e08 	.word	0x08007e08
 8007778:	08007e18 	.word	0x08007e18
 800777c:	08007e28 	.word	0x08007e28
 8007780:	08007e38 	.word	0x08007e38
 8007784:	08007e48 	.word	0x08007e48
 8007788:	08007e58 	.word	0x08007e58
 800778c:	08007e6c 	.word	0x08007e6c
 8007790:	08007e78 	.word	0x08007e78
 8007794:	08007e8c 	.word	0x08007e8c
 8007798:	08007ea0 	.word	0x08007ea0
 800779c:	08007eb0 	.word	0x08007eb0
 80077a0:	08007ec0 	.word	0x08007ec0
 80077a4:	08007ecc 	.word	0x08007ecc
 80077a8:	08007ee0 	.word	0x08007ee0
 80077ac:	08007eec 	.word	0x08007eec
 80077b0:	08007f00 	.word	0x08007f00
 80077b4:	08007f14 	.word	0x08007f14
 80077b8:	08007f20 	.word	0x08007f20
 80077bc:	08007f30 	.word	0x08007f30
 80077c0:	08007f40 	.word	0x08007f40
 80077c4:	08007d60 	.word	0x08007d60

080077c8 <main>:
#include <stdint.h>
#include "dsrtos_types.h"

/* Simple main function for DSRTOS kernel */
int main(void)
{
 80077c8:	b480      	push	{r7}
 80077ca:	af00      	add	r7, sp, #0
    /* TODO: Initialize DSRTOS kernel components */
    
    /* Main loop - should never reach here in a real RTOS */
    while (1) {
        /* Idle loop */
        __asm volatile ("wfi"); /* Wait for interrupt */
 80077cc:	bf30      	wfi
 80077ce:	e7fd      	b.n	80077cc <main+0x4>

080077d0 <SystemInit>:
 * @note Called before main() by startup code
 * @note DO-178C Level A: Critical system initialization
 * @note IEC 62304 Class C: Complete initialization traceability
 */
void SystemInit(void)
{
 80077d0:	b580      	push	{r7, lr}
 80077d2:	b082      	sub	sp, #8
 80077d4:	af00      	add	r7, sp, #0
    dsrtos_error_t result;
    
    /* Reset system to known state */
    /* Set HSION bit */
    RCC->CR |= 0x00000001UL;
 80077d6:	4b2e      	ldr	r3, [pc, #184]	; (8007890 <SystemInit+0xc0>)
 80077d8:	681b      	ldr	r3, [r3, #0]
 80077da:	4a2d      	ldr	r2, [pc, #180]	; (8007890 <SystemInit+0xc0>)
 80077dc:	f043 0301 	orr.w	r3, r3, #1
 80077e0:	6013      	str	r3, [r2, #0]
    
    /* Reset CFGR register */
    RCC->CFGR = 0x00000000UL;
 80077e2:	4b2b      	ldr	r3, [pc, #172]	; (8007890 <SystemInit+0xc0>)
 80077e4:	2200      	movs	r2, #0
 80077e6:	609a      	str	r2, [r3, #8]
    
    /* Reset HSEON, CSSON and PLLON bits */
    RCC->CR &= 0xFEF6FFFFUL;
 80077e8:	4b29      	ldr	r3, [pc, #164]	; (8007890 <SystemInit+0xc0>)
 80077ea:	681b      	ldr	r3, [r3, #0]
 80077ec:	4a28      	ldr	r2, [pc, #160]	; (8007890 <SystemInit+0xc0>)
 80077ee:	f023 7384 	bic.w	r3, r3, #17301504	; 0x1080000
 80077f2:	f423 3380 	bic.w	r3, r3, #65536	; 0x10000
 80077f6:	6013      	str	r3, [r2, #0]
    
    /* Reset PLLCFGR register */
    RCC->PLLCFGR = 0x24003010UL;
 80077f8:	4b25      	ldr	r3, [pc, #148]	; (8007890 <SystemInit+0xc0>)
 80077fa:	4a26      	ldr	r2, [pc, #152]	; (8007894 <SystemInit+0xc4>)
 80077fc:	605a      	str	r2, [r3, #4]
    
    /* Reset HSEBYP bit */
    RCC->CR &= 0xFFFBFFFFUL;
 80077fe:	4b24      	ldr	r3, [pc, #144]	; (8007890 <SystemInit+0xc0>)
 8007800:	681b      	ldr	r3, [r3, #0]
 8007802:	4a23      	ldr	r2, [pc, #140]	; (8007890 <SystemInit+0xc0>)
 8007804:	f423 2380 	bic.w	r3, r3, #262144	; 0x40000
 8007808:	6013      	str	r3, [r2, #0]
    
    /* Disable all interrupts */
    RCC->CIR = 0x00000000UL;
 800780a:	4b21      	ldr	r3, [pc, #132]	; (8007890 <SystemInit+0xc0>)
 800780c:	2200      	movs	r2, #0
 800780e:	60da      	str	r2, [r3, #12]
    
    /* Configure Flash wait states first (required for high frequency) */
    result = configure_flash_wait_states();
 8007810:	f000 f8dc 	bl	80079cc <configure_flash_wait_states>
 8007814:	6078      	str	r0, [r7, #4]
    if (result != DSRTOS_SUCCESS) {
 8007816:	687b      	ldr	r3, [r7, #4]
 8007818:	2b00      	cmp	r3, #0
 800781a:	d003      	beq.n	8007824 <SystemInit+0x54>
        /* Critical failure - remain in fail-safe mode */
        SystemCoreClock = HSI_VALUE;
 800781c:	4b1e      	ldr	r3, [pc, #120]	; (8007898 <SystemInit+0xc8>)
 800781e:	4a1f      	ldr	r2, [pc, #124]	; (800789c <SystemInit+0xcc>)
 8007820:	601a      	str	r2, [r3, #0]
        return;
 8007822:	e031      	b.n	8007888 <SystemInit+0xb8>
    }
    
    /* Enable FPU for Cortex-M4F */
    result = enable_fpu();
 8007824:	f000 f9cc 	bl	8007bc0 <enable_fpu>
 8007828:	6078      	str	r0, [r7, #4]
    if (result != DSRTOS_SUCCESS) {
        /* FPU failure - continue with reduced functionality */
    }
    
    /* Configure system clock to 168MHz */
    result = configure_system_clock();
 800782a:	f000 f8b3 	bl	8007994 <configure_system_clock>
 800782e:	6078      	str	r0, [r7, #4]
    if (result != DSRTOS_SUCCESS) {
 8007830:	687b      	ldr	r3, [r7, #4]
 8007832:	2b00      	cmp	r3, #0
 8007834:	d006      	beq.n	8007844 <SystemInit+0x74>
        /* Clock configuration failed - remain on HSI */
        SystemCoreClock = HSI_VALUE;
 8007836:	4b18      	ldr	r3, [pc, #96]	; (8007898 <SystemInit+0xc8>)
 8007838:	4a18      	ldr	r2, [pc, #96]	; (800789c <SystemInit+0xcc>)
 800783a:	601a      	str	r2, [r3, #0]
        active_clock_source = RCC_CFGR_SWS_HSI;
 800783c:	4b18      	ldr	r3, [pc, #96]	; (80078a0 <SystemInit+0xd0>)
 800783e:	2200      	movs	r2, #0
 8007840:	601a      	str	r2, [r3, #0]
 8007842:	e005      	b.n	8007850 <SystemInit+0x80>
    } else {
        SystemCoreClock = SYSCLK_TARGET;
 8007844:	4b14      	ldr	r3, [pc, #80]	; (8007898 <SystemInit+0xc8>)
 8007846:	4a17      	ldr	r2, [pc, #92]	; (80078a4 <SystemInit+0xd4>)
 8007848:	601a      	str	r2, [r3, #0]
        active_clock_source = RCC_CFGR_SWS_PLL;
 800784a:	4b15      	ldr	r3, [pc, #84]	; (80078a0 <SystemInit+0xd0>)
 800784c:	2208      	movs	r2, #8
 800784e:	601a      	str	r2, [r3, #0]
    }
    
    /* Configure bus prescalers for optimal performance */
    result = configure_bus_prescalers();
 8007850:	f000 f98e 	bl	8007b70 <configure_bus_prescalers>
 8007854:	6078      	str	r0, [r7, #4]
    if (result != DSRTOS_SUCCESS) {
        /* Bus configuration failed - use safe defaults */
    }
    
    /* Validate final clock configuration */
    result = validate_clock_frequency();
 8007856:	f000 f9c9 	bl	8007bec <validate_clock_frequency>
 800785a:	6078      	str	r0, [r7, #4]
    if (result != DSRTOS_SUCCESS) {
 800785c:	687b      	ldr	r3, [r7, #4]
 800785e:	2b00      	cmp	r3, #0
 8007860:	d00f      	beq.n	8007882 <SystemInit+0xb2>
        /* Validation failed - fall back to HSI */
        RCC->CFGR &= ~RCC_CFGR_SW_PLL;
 8007862:	4b0b      	ldr	r3, [pc, #44]	; (8007890 <SystemInit+0xc0>)
 8007864:	689b      	ldr	r3, [r3, #8]
 8007866:	4a0a      	ldr	r2, [pc, #40]	; (8007890 <SystemInit+0xc0>)
 8007868:	f023 0302 	bic.w	r3, r3, #2
 800786c:	6093      	str	r3, [r2, #8]
        RCC->CFGR |= RCC_CFGR_SW_HSI;
 800786e:	4b08      	ldr	r3, [pc, #32]	; (8007890 <SystemInit+0xc0>)
 8007870:	4a07      	ldr	r2, [pc, #28]	; (8007890 <SystemInit+0xc0>)
 8007872:	689b      	ldr	r3, [r3, #8]
 8007874:	6093      	str	r3, [r2, #8]
        SystemCoreClock = HSI_VALUE;
 8007876:	4b08      	ldr	r3, [pc, #32]	; (8007898 <SystemInit+0xc8>)
 8007878:	4a08      	ldr	r2, [pc, #32]	; (800789c <SystemInit+0xcc>)
 800787a:	601a      	str	r2, [r3, #0]
        active_clock_source = RCC_CFGR_SWS_HSI;
 800787c:	4b08      	ldr	r3, [pc, #32]	; (80078a0 <SystemInit+0xd0>)
 800787e:	2200      	movs	r2, #0
 8007880:	601a      	str	r2, [r3, #0]
    }
    
    system_initialized = true;
 8007882:	4b09      	ldr	r3, [pc, #36]	; (80078a8 <SystemInit+0xd8>)
 8007884:	2201      	movs	r2, #1
 8007886:	701a      	strb	r2, [r3, #0]
}
 8007888:	3708      	adds	r7, #8
 800788a:	46bd      	mov	sp, r7
 800788c:	bd80      	pop	{r7, pc}
 800788e:	bf00      	nop
 8007890:	40023800 	.word	0x40023800
 8007894:	24003010 	.word	0x24003010
 8007898:	20000254 	.word	0x20000254
 800789c:	00f42400 	.word	0x00f42400
 80078a0:	2000048c 	.word	0x2000048c
 80078a4:	0a037a00 	.word	0x0a037a00
 80078a8:	20000488 	.word	0x20000488

080078ac <SystemCoreClockUpdate>:
 * @brief Update SystemCoreClock variable
 * @note Called when clock configuration changes
 * @note Required by ARM CMSIS standard
 */
void SystemCoreClockUpdate(void)
{
 80078ac:	b480      	push	{r7}
 80078ae:	b087      	sub	sp, #28
 80078b0:	af00      	add	r7, sp, #0
    uint32_t pllp;
    uint32_t pllsource;
    uint32_t pllm;
    
    /* Get SYSCLK source */
    tmp = RCC->CFGR & RCC_CFGR_SWS_MASK;
 80078b2:	4b33      	ldr	r3, [pc, #204]	; (8007980 <SystemCoreClockUpdate+0xd4>)
 80078b4:	689b      	ldr	r3, [r3, #8]
 80078b6:	f003 030c 	and.w	r3, r3, #12
 80078ba:	60bb      	str	r3, [r7, #8]
    
    switch (tmp) {
 80078bc:	68bb      	ldr	r3, [r7, #8]
 80078be:	2b08      	cmp	r3, #8
 80078c0:	d017      	beq.n	80078f2 <SystemCoreClockUpdate+0x46>
 80078c2:	68bb      	ldr	r3, [r7, #8]
 80078c4:	2b08      	cmp	r3, #8
 80078c6:	d84d      	bhi.n	8007964 <SystemCoreClockUpdate+0xb8>
 80078c8:	68bb      	ldr	r3, [r7, #8]
 80078ca:	2b00      	cmp	r3, #0
 80078cc:	d003      	beq.n	80078d6 <SystemCoreClockUpdate+0x2a>
 80078ce:	68bb      	ldr	r3, [r7, #8]
 80078d0:	2b04      	cmp	r3, #4
 80078d2:	d007      	beq.n	80078e4 <SystemCoreClockUpdate+0x38>
 80078d4:	e046      	b.n	8007964 <SystemCoreClockUpdate+0xb8>
        case RCC_CFGR_SWS_HSI:  /* HSI used as system clock */
            SystemCoreClock = HSI_VALUE;
 80078d6:	4b2b      	ldr	r3, [pc, #172]	; (8007984 <SystemCoreClockUpdate+0xd8>)
 80078d8:	4a2b      	ldr	r2, [pc, #172]	; (8007988 <SystemCoreClockUpdate+0xdc>)
 80078da:	601a      	str	r2, [r3, #0]
            active_clock_source = RCC_CFGR_SWS_HSI;
 80078dc:	4b2b      	ldr	r3, [pc, #172]	; (800798c <SystemCoreClockUpdate+0xe0>)
 80078de:	2200      	movs	r2, #0
 80078e0:	601a      	str	r2, [r3, #0]
            break;
 80078e2:	e046      	b.n	8007972 <SystemCoreClockUpdate+0xc6>
            
        case RCC_CFGR_SWS_HSE:  /* HSE used as system clock */
            SystemCoreClock = HSE_VALUE;
 80078e4:	4b27      	ldr	r3, [pc, #156]	; (8007984 <SystemCoreClockUpdate+0xd8>)
 80078e6:	4a2a      	ldr	r2, [pc, #168]	; (8007990 <SystemCoreClockUpdate+0xe4>)
 80078e8:	601a      	str	r2, [r3, #0]
            active_clock_source = RCC_CFGR_SWS_HSE;
 80078ea:	4b28      	ldr	r3, [pc, #160]	; (800798c <SystemCoreClockUpdate+0xe0>)
 80078ec:	2204      	movs	r2, #4
 80078ee:	601a      	str	r2, [r3, #0]
            break;
 80078f0:	e03f      	b.n	8007972 <SystemCoreClockUpdate+0xc6>
            
        case RCC_CFGR_SWS_PLL:  /* PLL used as system clock */
            /* PLL_VCO = (HSE_VALUE or HSI_VALUE / PLL_M) * PLL_N */
            /* SYSCLK = PLL_VCO / PLL_P */
            pllsource = (RCC->PLLCFGR & (1UL << 22U)) >> 22U;
 80078f2:	4b23      	ldr	r3, [pc, #140]	; (8007980 <SystemCoreClockUpdate+0xd4>)
 80078f4:	685b      	ldr	r3, [r3, #4]
 80078f6:	0d9b      	lsrs	r3, r3, #22
 80078f8:	f003 0301 	and.w	r3, r3, #1
 80078fc:	60fb      	str	r3, [r7, #12]
            pllm = RCC->PLLCFGR & 0x3FUL;
 80078fe:	4b20      	ldr	r3, [pc, #128]	; (8007980 <SystemCoreClockUpdate+0xd4>)
 8007900:	685b      	ldr	r3, [r3, #4]
 8007902:	f003 033f 	and.w	r3, r3, #63	; 0x3f
 8007906:	613b      	str	r3, [r7, #16]
            
            if (pllsource != 0UL) {
 8007908:	68fb      	ldr	r3, [r7, #12]
 800790a:	2b00      	cmp	r3, #0
 800790c:	d00c      	beq.n	8007928 <SystemCoreClockUpdate+0x7c>
                /* HSE used as PLL clock source */
                pllvco = (HSE_VALUE / pllm) * ((RCC->PLLCFGR & (0x1FFUL << 6U)) >> 6U);
 800790e:	4a20      	ldr	r2, [pc, #128]	; (8007990 <SystemCoreClockUpdate+0xe4>)
 8007910:	693b      	ldr	r3, [r7, #16]
 8007912:	fbb2 f3f3 	udiv	r3, r2, r3
 8007916:	4a1a      	ldr	r2, [pc, #104]	; (8007980 <SystemCoreClockUpdate+0xd4>)
 8007918:	6852      	ldr	r2, [r2, #4]
 800791a:	0992      	lsrs	r2, r2, #6
 800791c:	f3c2 0208 	ubfx	r2, r2, #0, #9
 8007920:	fb02 f303 	mul.w	r3, r2, r3
 8007924:	607b      	str	r3, [r7, #4]
 8007926:	e00b      	b.n	8007940 <SystemCoreClockUpdate+0x94>
            } else {
                /* HSI used as PLL clock source */
                pllvco = (HSI_VALUE / pllm) * ((RCC->PLLCFGR & (0x1FFUL << 6U)) >> 6U);
 8007928:	4a17      	ldr	r2, [pc, #92]	; (8007988 <SystemCoreClockUpdate+0xdc>)
 800792a:	693b      	ldr	r3, [r7, #16]
 800792c:	fbb2 f3f3 	udiv	r3, r2, r3
 8007930:	4a13      	ldr	r2, [pc, #76]	; (8007980 <SystemCoreClockUpdate+0xd4>)
 8007932:	6852      	ldr	r2, [r2, #4]
 8007934:	0992      	lsrs	r2, r2, #6
 8007936:	f3c2 0208 	ubfx	r2, r2, #0, #9
 800793a:	fb02 f303 	mul.w	r3, r2, r3
 800793e:	607b      	str	r3, [r7, #4]
            }
            
            pllp = (((RCC->PLLCFGR & (3UL << 16U)) >> 16U) + 1UL) * 2UL;
 8007940:	4b0f      	ldr	r3, [pc, #60]	; (8007980 <SystemCoreClockUpdate+0xd4>)
 8007942:	685b      	ldr	r3, [r3, #4]
 8007944:	0c1b      	lsrs	r3, r3, #16
 8007946:	f003 0303 	and.w	r3, r3, #3
 800794a:	3301      	adds	r3, #1
 800794c:	005b      	lsls	r3, r3, #1
 800794e:	617b      	str	r3, [r7, #20]
            SystemCoreClock = pllvco / pllp;
 8007950:	687a      	ldr	r2, [r7, #4]
 8007952:	697b      	ldr	r3, [r7, #20]
 8007954:	fbb2 f3f3 	udiv	r3, r2, r3
 8007958:	4a0a      	ldr	r2, [pc, #40]	; (8007984 <SystemCoreClockUpdate+0xd8>)
 800795a:	6013      	str	r3, [r2, #0]
            active_clock_source = RCC_CFGR_SWS_PLL;
 800795c:	4b0b      	ldr	r3, [pc, #44]	; (800798c <SystemCoreClockUpdate+0xe0>)
 800795e:	2208      	movs	r2, #8
 8007960:	601a      	str	r2, [r3, #0]
            break;
 8007962:	e006      	b.n	8007972 <SystemCoreClockUpdate+0xc6>
            
        default:
            SystemCoreClock = HSI_VALUE;
 8007964:	4b07      	ldr	r3, [pc, #28]	; (8007984 <SystemCoreClockUpdate+0xd8>)
 8007966:	4a08      	ldr	r2, [pc, #32]	; (8007988 <SystemCoreClockUpdate+0xdc>)
 8007968:	601a      	str	r2, [r3, #0]
            active_clock_source = RCC_CFGR_SWS_HSI;
 800796a:	4b08      	ldr	r3, [pc, #32]	; (800798c <SystemCoreClockUpdate+0xe0>)
 800796c:	2200      	movs	r2, #0
 800796e:	601a      	str	r2, [r3, #0]
            break;
 8007970:	bf00      	nop
    }
}
 8007972:	bf00      	nop
 8007974:	371c      	adds	r7, #28
 8007976:	46bd      	mov	sp, r7
 8007978:	f85d 7b04 	ldr.w	r7, [sp], #4
 800797c:	4770      	bx	lr
 800797e:	bf00      	nop
 8007980:	40023800 	.word	0x40023800
 8007984:	20000254 	.word	0x20000254
 8007988:	00f42400 	.word	0x00f42400
 800798c:	2000048c 	.word	0x2000048c
 8007990:	007a1200 	.word	0x007a1200

08007994 <configure_system_clock>:
/**
 * @brief Configure system clock to 168MHz using HSE and PLL
 * @return DSRTOS_SUCCESS on success, error code on failure
 */
static dsrtos_error_t configure_system_clock(void)
{
 8007994:	b580      	push	{r7, lr}
 8007996:	b082      	sub	sp, #8
 8007998:	af00      	add	r7, sp, #0
    dsrtos_error_t result;
    
    /* Enable HSE oscillator first */
    result = enable_hse_oscillator();
 800799a:	f000 f847 	bl	8007a2c <enable_hse_oscillator>
 800799e:	6078      	str	r0, [r7, #4]
    if (result != DSRTOS_SUCCESS) {
 80079a0:	687b      	ldr	r3, [r7, #4]
 80079a2:	2b00      	cmp	r3, #0
 80079a4:	d001      	beq.n	80079aa <configure_system_clock+0x16>
        return result;
 80079a6:	687b      	ldr	r3, [r7, #4]
 80079a8:	e00b      	b.n	80079c2 <configure_system_clock+0x2e>
    }
    
    /* Configure PLL for 168MHz output */
    result = configure_pll();
 80079aa:	f000 f871 	bl	8007a90 <configure_pll>
 80079ae:	6078      	str	r0, [r7, #4]
    if (result != DSRTOS_SUCCESS) {
 80079b0:	687b      	ldr	r3, [r7, #4]
 80079b2:	2b00      	cmp	r3, #0
 80079b4:	d001      	beq.n	80079ba <configure_system_clock+0x26>
        return result;
 80079b6:	687b      	ldr	r3, [r7, #4]
 80079b8:	e003      	b.n	80079c2 <configure_system_clock+0x2e>
    }
    
    /* Switch system clock to PLL */
    result = switch_to_pll_clock();
 80079ba:	f000 f89f 	bl	8007afc <switch_to_pll_clock>
 80079be:	6078      	str	r0, [r7, #4]
    
    return result;
 80079c0:	687b      	ldr	r3, [r7, #4]
}
 80079c2:	4618      	mov	r0, r3
 80079c4:	3708      	adds	r7, #8
 80079c6:	46bd      	mov	sp, r7
 80079c8:	bd80      	pop	{r7, pc}
	...

080079cc <configure_flash_wait_states>:
/**
 * @brief Configure Flash memory wait states for 168MHz operation
 * @return DSRTOS_SUCCESS on success, error code on failure
 */
static dsrtos_error_t configure_flash_wait_states(void)
{
 80079cc:	b480      	push	{r7}
 80079ce:	b083      	sub	sp, #12
 80079d0:	af00      	add	r7, sp, #0
    dsrtos_error_t result = DSRTOS_SUCCESS;
 80079d2:	2300      	movs	r3, #0
 80079d4:	603b      	str	r3, [r7, #0]
    uint32_t timeout = 10000UL;
 80079d6:	f242 7310 	movw	r3, #10000	; 0x2710
 80079da:	607b      	str	r3, [r7, #4]
    
    /* Configure 5 wait states for 168MHz operation (2.7-3.6V) */
    FLASH->ACR &= ~FLASH_ACR_LATENCY_MASK;
 80079dc:	4b12      	ldr	r3, [pc, #72]	; (8007a28 <configure_flash_wait_states+0x5c>)
 80079de:	681b      	ldr	r3, [r3, #0]
 80079e0:	4a11      	ldr	r2, [pc, #68]	; (8007a28 <configure_flash_wait_states+0x5c>)
 80079e2:	f023 030f 	bic.w	r3, r3, #15
 80079e6:	6013      	str	r3, [r2, #0]
    FLASH->ACR |= FLASH_ACR_LATENCY_5WS;
 80079e8:	4b0f      	ldr	r3, [pc, #60]	; (8007a28 <configure_flash_wait_states+0x5c>)
 80079ea:	681b      	ldr	r3, [r3, #0]
 80079ec:	4a0e      	ldr	r2, [pc, #56]	; (8007a28 <configure_flash_wait_states+0x5c>)
 80079ee:	f043 0305 	orr.w	r3, r3, #5
 80079f2:	6013      	str	r3, [r2, #0]
    
    /* Verify wait state configuration */
    while (((FLASH->ACR & FLASH_ACR_LATENCY_MASK) != FLASH_ACR_LATENCY_5WS) && 
 80079f4:	e002      	b.n	80079fc <configure_flash_wait_states+0x30>
           (timeout > 0UL)) {
        timeout--;
 80079f6:	687b      	ldr	r3, [r7, #4]
 80079f8:	3b01      	subs	r3, #1
 80079fa:	607b      	str	r3, [r7, #4]
    while (((FLASH->ACR & FLASH_ACR_LATENCY_MASK) != FLASH_ACR_LATENCY_5WS) && 
 80079fc:	4b0a      	ldr	r3, [pc, #40]	; (8007a28 <configure_flash_wait_states+0x5c>)
 80079fe:	681b      	ldr	r3, [r3, #0]
 8007a00:	f003 030f 	and.w	r3, r3, #15
 8007a04:	2b05      	cmp	r3, #5
 8007a06:	d002      	beq.n	8007a0e <configure_flash_wait_states+0x42>
 8007a08:	687b      	ldr	r3, [r7, #4]
 8007a0a:	2b00      	cmp	r3, #0
 8007a0c:	d1f3      	bne.n	80079f6 <configure_flash_wait_states+0x2a>
    }
    
    if (timeout == 0UL) {
 8007a0e:	687b      	ldr	r3, [r7, #4]
 8007a10:	2b00      	cmp	r3, #0
 8007a12:	d102      	bne.n	8007a1a <configure_flash_wait_states+0x4e>
        result = DSRTOS_ERR_HARDWARE_FAULT;
 8007a14:	f06f 033c 	mvn.w	r3, #60	; 0x3c
 8007a18:	603b      	str	r3, [r7, #0]
    }
    
    return result;
 8007a1a:	683b      	ldr	r3, [r7, #0]
}
 8007a1c:	4618      	mov	r0, r3
 8007a1e:	370c      	adds	r7, #12
 8007a20:	46bd      	mov	sp, r7
 8007a22:	f85d 7b04 	ldr.w	r7, [sp], #4
 8007a26:	4770      	bx	lr
 8007a28:	40023c00 	.word	0x40023c00

08007a2c <enable_hse_oscillator>:
/**
 * @brief Enable High Speed External (HSE) oscillator
 * @return DSRTOS_SUCCESS on success, error code on failure
 */
static dsrtos_error_t enable_hse_oscillator(void)
{
 8007a2c:	b480      	push	{r7}
 8007a2e:	b083      	sub	sp, #12
 8007a30:	af00      	add	r7, sp, #0
    dsrtos_error_t result = DSRTOS_SUCCESS;
 8007a32:	2300      	movs	r3, #0
 8007a34:	603b      	str	r3, [r7, #0]
    uint32_t timeout = 100000UL;  /* HSE startup timeout */
 8007a36:	4b14      	ldr	r3, [pc, #80]	; (8007a88 <enable_hse_oscillator+0x5c>)
 8007a38:	607b      	str	r3, [r7, #4]
    
    /* Enable HSE oscillator */
    RCC->CR |= RCC_CR_HSEON;
 8007a3a:	4b14      	ldr	r3, [pc, #80]	; (8007a8c <enable_hse_oscillator+0x60>)
 8007a3c:	681b      	ldr	r3, [r3, #0]
 8007a3e:	4a13      	ldr	r2, [pc, #76]	; (8007a8c <enable_hse_oscillator+0x60>)
 8007a40:	f443 3380 	orr.w	r3, r3, #65536	; 0x10000
 8007a44:	6013      	str	r3, [r2, #0]
    
    /* Wait for HSE to become ready */
    while (((RCC->CR & RCC_CR_HSERDY) == 0UL) && (timeout > 0UL)) {
 8007a46:	e002      	b.n	8007a4e <enable_hse_oscillator+0x22>
        timeout--;
 8007a48:	687b      	ldr	r3, [r7, #4]
 8007a4a:	3b01      	subs	r3, #1
 8007a4c:	607b      	str	r3, [r7, #4]
    while (((RCC->CR & RCC_CR_HSERDY) == 0UL) && (timeout > 0UL)) {
 8007a4e:	4b0f      	ldr	r3, [pc, #60]	; (8007a8c <enable_hse_oscillator+0x60>)
 8007a50:	681b      	ldr	r3, [r3, #0]
 8007a52:	f403 3300 	and.w	r3, r3, #131072	; 0x20000
 8007a56:	2b00      	cmp	r3, #0
 8007a58:	d102      	bne.n	8007a60 <enable_hse_oscillator+0x34>
 8007a5a:	687b      	ldr	r3, [r7, #4]
 8007a5c:	2b00      	cmp	r3, #0
 8007a5e:	d1f3      	bne.n	8007a48 <enable_hse_oscillator+0x1c>
    }
    
    if (timeout == 0UL) {
 8007a60:	687b      	ldr	r3, [r7, #4]
 8007a62:	2b00      	cmp	r3, #0
 8007a64:	d108      	bne.n	8007a78 <enable_hse_oscillator+0x4c>
        /* HSE failed to start - disable it */
        RCC->CR &= ~RCC_CR_HSEON;
 8007a66:	4b09      	ldr	r3, [pc, #36]	; (8007a8c <enable_hse_oscillator+0x60>)
 8007a68:	681b      	ldr	r3, [r3, #0]
 8007a6a:	4a08      	ldr	r2, [pc, #32]	; (8007a8c <enable_hse_oscillator+0x60>)
 8007a6c:	f423 3380 	bic.w	r3, r3, #65536	; 0x10000
 8007a70:	6013      	str	r3, [r2, #0]
        result = DSRTOS_ERR_CLOCK_FAULT;
 8007a72:	f06f 033e 	mvn.w	r3, #62	; 0x3e
 8007a76:	603b      	str	r3, [r7, #0]
    }
    
    return result;
 8007a78:	683b      	ldr	r3, [r7, #0]
}
 8007a7a:	4618      	mov	r0, r3
 8007a7c:	370c      	adds	r7, #12
 8007a7e:	46bd      	mov	sp, r7
 8007a80:	f85d 7b04 	ldr.w	r7, [sp], #4
 8007a84:	4770      	bx	lr
 8007a86:	bf00      	nop
 8007a88:	000186a0 	.word	0x000186a0
 8007a8c:	40023800 	.word	0x40023800

08007a90 <configure_pll>:
/**
 * @brief Configure and enable PLL for 168MHz output
 * @return DSRTOS_SUCCESS on success, error code on failure
 */
static dsrtos_error_t configure_pll(void)
{
 8007a90:	b480      	push	{r7}
 8007a92:	b083      	sub	sp, #12
 8007a94:	af00      	add	r7, sp, #0
    dsrtos_error_t result = DSRTOS_SUCCESS;
 8007a96:	2300      	movs	r3, #0
 8007a98:	603b      	str	r3, [r7, #0]
    uint32_t timeout = 100000UL;  /* PLL lock timeout */
 8007a9a:	4b15      	ldr	r3, [pc, #84]	; (8007af0 <configure_pll+0x60>)
 8007a9c:	607b      	str	r3, [r7, #4]
    
    /* Configure PLL: HSE as source, M=8, N=336, P=2, Q=7 */
    RCC->PLLCFGR = ((1UL << 22U) |           /* HSE as PLL source */
 8007a9e:	4b15      	ldr	r3, [pc, #84]	; (8007af4 <configure_pll+0x64>)
 8007aa0:	4a15      	ldr	r2, [pc, #84]	; (8007af8 <configure_pll+0x68>)
 8007aa2:	605a      	str	r2, [r3, #4]
                    ((PLL_P_VALUE/2UL - 1UL) << 16U) | /* P = 2 for 168MHz */
                    (PLL_N_VALUE << 6U) |    /* N = 336 */
                    PLL_M_VALUE);            /* M = 8 */
    
    /* Enable PLL */
    RCC->CR |= RCC_CR_PLLON;
 8007aa4:	4b13      	ldr	r3, [pc, #76]	; (8007af4 <configure_pll+0x64>)
 8007aa6:	681b      	ldr	r3, [r3, #0]
 8007aa8:	4a12      	ldr	r2, [pc, #72]	; (8007af4 <configure_pll+0x64>)
 8007aaa:	f043 7380 	orr.w	r3, r3, #16777216	; 0x1000000
 8007aae:	6013      	str	r3, [r2, #0]
    
    /* Wait for PLL to lock */
    while (((RCC->CR & RCC_CR_PLLRDY) == 0UL) && (timeout > 0UL)) {
 8007ab0:	e002      	b.n	8007ab8 <configure_pll+0x28>
        timeout--;
 8007ab2:	687b      	ldr	r3, [r7, #4]
 8007ab4:	3b01      	subs	r3, #1
 8007ab6:	607b      	str	r3, [r7, #4]
    while (((RCC->CR & RCC_CR_PLLRDY) == 0UL) && (timeout > 0UL)) {
 8007ab8:	4b0e      	ldr	r3, [pc, #56]	; (8007af4 <configure_pll+0x64>)
 8007aba:	681b      	ldr	r3, [r3, #0]
 8007abc:	f003 7300 	and.w	r3, r3, #33554432	; 0x2000000
 8007ac0:	2b00      	cmp	r3, #0
 8007ac2:	d102      	bne.n	8007aca <configure_pll+0x3a>
 8007ac4:	687b      	ldr	r3, [r7, #4]
 8007ac6:	2b00      	cmp	r3, #0
 8007ac8:	d1f3      	bne.n	8007ab2 <configure_pll+0x22>
    }
    
    if (timeout == 0UL) {
 8007aca:	687b      	ldr	r3, [r7, #4]
 8007acc:	2b00      	cmp	r3, #0
 8007ace:	d108      	bne.n	8007ae2 <configure_pll+0x52>
        /* PLL failed to lock - disable it */
        RCC->CR &= ~RCC_CR_PLLON;
 8007ad0:	4b08      	ldr	r3, [pc, #32]	; (8007af4 <configure_pll+0x64>)
 8007ad2:	681b      	ldr	r3, [r3, #0]
 8007ad4:	4a07      	ldr	r2, [pc, #28]	; (8007af4 <configure_pll+0x64>)
 8007ad6:	f023 7380 	bic.w	r3, r3, #16777216	; 0x1000000
 8007ada:	6013      	str	r3, [r2, #0]
        result = DSRTOS_ERR_CLOCK_FAULT;
 8007adc:	f06f 033e 	mvn.w	r3, #62	; 0x3e
 8007ae0:	603b      	str	r3, [r7, #0]
    }
    
    return result;
 8007ae2:	683b      	ldr	r3, [r7, #0]
}
 8007ae4:	4618      	mov	r0, r3
 8007ae6:	370c      	adds	r7, #12
 8007ae8:	46bd      	mov	sp, r7
 8007aea:	f85d 7b04 	ldr.w	r7, [sp], #4
 8007aee:	4770      	bx	lr
 8007af0:	000186a0 	.word	0x000186a0
 8007af4:	40023800 	.word	0x40023800
 8007af8:	07405408 	.word	0x07405408

08007afc <switch_to_pll_clock>:
/**
 * @brief Switch system clock source to PLL
 * @return DSRTOS_SUCCESS on success, error code on failure
 */
static dsrtos_error_t switch_to_pll_clock(void)
{
 8007afc:	b480      	push	{r7}
 8007afe:	b083      	sub	sp, #12
 8007b00:	af00      	add	r7, sp, #0
    dsrtos_error_t result = DSRTOS_SUCCESS;
 8007b02:	2300      	movs	r3, #0
 8007b04:	603b      	str	r3, [r7, #0]
    uint32_t timeout = 10000UL;  /* Clock switch timeout */
 8007b06:	f242 7310 	movw	r3, #10000	; 0x2710
 8007b0a:	607b      	str	r3, [r7, #4]
    
    /* Select PLL as system clock source */
    RCC->CFGR &= ~RCC_CFGR_SW_PLL;
 8007b0c:	4b17      	ldr	r3, [pc, #92]	; (8007b6c <switch_to_pll_clock+0x70>)
 8007b0e:	689b      	ldr	r3, [r3, #8]
 8007b10:	4a16      	ldr	r2, [pc, #88]	; (8007b6c <switch_to_pll_clock+0x70>)
 8007b12:	f023 0302 	bic.w	r3, r3, #2
 8007b16:	6093      	str	r3, [r2, #8]
    RCC->CFGR |= RCC_CFGR_SW_PLL;
 8007b18:	4b14      	ldr	r3, [pc, #80]	; (8007b6c <switch_to_pll_clock+0x70>)
 8007b1a:	689b      	ldr	r3, [r3, #8]
 8007b1c:	4a13      	ldr	r2, [pc, #76]	; (8007b6c <switch_to_pll_clock+0x70>)
 8007b1e:	f043 0302 	orr.w	r3, r3, #2
 8007b22:	6093      	str	r3, [r2, #8]
    
    /* Wait until PLL is used as system clock */
    while (((RCC->CFGR & RCC_CFGR_SWS_MASK) != RCC_CFGR_SWS_PLL) && 
 8007b24:	e002      	b.n	8007b2c <switch_to_pll_clock+0x30>
           (timeout > 0UL)) {
        timeout--;
 8007b26:	687b      	ldr	r3, [r7, #4]
 8007b28:	3b01      	subs	r3, #1
 8007b2a:	607b      	str	r3, [r7, #4]
    while (((RCC->CFGR & RCC_CFGR_SWS_MASK) != RCC_CFGR_SWS_PLL) && 
 8007b2c:	4b0f      	ldr	r3, [pc, #60]	; (8007b6c <switch_to_pll_clock+0x70>)
 8007b2e:	689b      	ldr	r3, [r3, #8]
 8007b30:	f003 030c 	and.w	r3, r3, #12
 8007b34:	2b08      	cmp	r3, #8
 8007b36:	d002      	beq.n	8007b3e <switch_to_pll_clock+0x42>
 8007b38:	687b      	ldr	r3, [r7, #4]
 8007b3a:	2b00      	cmp	r3, #0
 8007b3c:	d1f3      	bne.n	8007b26 <switch_to_pll_clock+0x2a>
    }
    
    if (timeout == 0UL) {
 8007b3e:	687b      	ldr	r3, [r7, #4]
 8007b40:	2b00      	cmp	r3, #0
 8007b42:	d10c      	bne.n	8007b5e <switch_to_pll_clock+0x62>
        /* Clock switch failed - revert to HSI */
        RCC->CFGR &= ~RCC_CFGR_SW_PLL;
 8007b44:	4b09      	ldr	r3, [pc, #36]	; (8007b6c <switch_to_pll_clock+0x70>)
 8007b46:	689b      	ldr	r3, [r3, #8]
 8007b48:	4a08      	ldr	r2, [pc, #32]	; (8007b6c <switch_to_pll_clock+0x70>)
 8007b4a:	f023 0302 	bic.w	r3, r3, #2
 8007b4e:	6093      	str	r3, [r2, #8]
        RCC->CFGR |= RCC_CFGR_SW_HSI;
 8007b50:	4b06      	ldr	r3, [pc, #24]	; (8007b6c <switch_to_pll_clock+0x70>)
 8007b52:	4a06      	ldr	r2, [pc, #24]	; (8007b6c <switch_to_pll_clock+0x70>)
 8007b54:	689b      	ldr	r3, [r3, #8]
 8007b56:	6093      	str	r3, [r2, #8]
        result = DSRTOS_ERR_CLOCK_FAULT;
 8007b58:	f06f 033e 	mvn.w	r3, #62	; 0x3e
 8007b5c:	603b      	str	r3, [r7, #0]
    }
    
    return result;
 8007b5e:	683b      	ldr	r3, [r7, #0]
}
 8007b60:	4618      	mov	r0, r3
 8007b62:	370c      	adds	r7, #12
 8007b64:	46bd      	mov	sp, r7
 8007b66:	f85d 7b04 	ldr.w	r7, [sp], #4
 8007b6a:	4770      	bx	lr
 8007b6c:	40023800 	.word	0x40023800

08007b70 <configure_bus_prescalers>:
/**
 * @brief Configure bus prescalers for optimal performance
 * @return DSRTOS_SUCCESS on success, error code on failure
 */
static dsrtos_error_t configure_bus_prescalers(void)
{
 8007b70:	b480      	push	{r7}
 8007b72:	af00      	add	r7, sp, #0
    /* Configure AHB prescaler = 1 (HCLK = SYSCLK = 168MHz) */
    RCC->CFGR &= ~(0xFUL << 4U);
 8007b74:	4b11      	ldr	r3, [pc, #68]	; (8007bbc <configure_bus_prescalers+0x4c>)
 8007b76:	689b      	ldr	r3, [r3, #8]
 8007b78:	4a10      	ldr	r2, [pc, #64]	; (8007bbc <configure_bus_prescalers+0x4c>)
 8007b7a:	f023 03f0 	bic.w	r3, r3, #240	; 0xf0
 8007b7e:	6093      	str	r3, [r2, #8]
    
    /* Configure APB1 prescaler = 4 (PCLK1 = HCLK/4 = 42MHz) */
    RCC->CFGR &= ~(0x7UL << 10U);
 8007b80:	4b0e      	ldr	r3, [pc, #56]	; (8007bbc <configure_bus_prescalers+0x4c>)
 8007b82:	689b      	ldr	r3, [r3, #8]
 8007b84:	4a0d      	ldr	r2, [pc, #52]	; (8007bbc <configure_bus_prescalers+0x4c>)
 8007b86:	f423 53e0 	bic.w	r3, r3, #7168	; 0x1c00
 8007b8a:	6093      	str	r3, [r2, #8]
    RCC->CFGR |= (0x5UL << 10U);
 8007b8c:	4b0b      	ldr	r3, [pc, #44]	; (8007bbc <configure_bus_prescalers+0x4c>)
 8007b8e:	689b      	ldr	r3, [r3, #8]
 8007b90:	4a0a      	ldr	r2, [pc, #40]	; (8007bbc <configure_bus_prescalers+0x4c>)
 8007b92:	f443 53a0 	orr.w	r3, r3, #5120	; 0x1400
 8007b96:	6093      	str	r3, [r2, #8]
    
    /* Configure APB2 prescaler = 2 (PCLK2 = HCLK/2 = 84MHz) */
    RCC->CFGR &= ~(0x7UL << 13U);
 8007b98:	4b08      	ldr	r3, [pc, #32]	; (8007bbc <configure_bus_prescalers+0x4c>)
 8007b9a:	689b      	ldr	r3, [r3, #8]
 8007b9c:	4a07      	ldr	r2, [pc, #28]	; (8007bbc <configure_bus_prescalers+0x4c>)
 8007b9e:	f423 4360 	bic.w	r3, r3, #57344	; 0xe000
 8007ba2:	6093      	str	r3, [r2, #8]
    RCC->CFGR |= (0x4UL << 13U);
 8007ba4:	4b05      	ldr	r3, [pc, #20]	; (8007bbc <configure_bus_prescalers+0x4c>)
 8007ba6:	689b      	ldr	r3, [r3, #8]
 8007ba8:	4a04      	ldr	r2, [pc, #16]	; (8007bbc <configure_bus_prescalers+0x4c>)
 8007baa:	f443 4300 	orr.w	r3, r3, #32768	; 0x8000
 8007bae:	6093      	str	r3, [r2, #8]
    
    return DSRTOS_SUCCESS;
 8007bb0:	2300      	movs	r3, #0
}
 8007bb2:	4618      	mov	r0, r3
 8007bb4:	46bd      	mov	sp, r7
 8007bb6:	f85d 7b04 	ldr.w	r7, [sp], #4
 8007bba:	4770      	bx	lr
 8007bbc:	40023800 	.word	0x40023800

08007bc0 <enable_fpu>:
/**
 * @brief Enable floating point unit (FPU)
 * @return DSRTOS_SUCCESS on success, error code on failure
 */
static dsrtos_error_t enable_fpu(void)
{
 8007bc0:	b480      	push	{r7}
 8007bc2:	af00      	add	r7, sp, #0
    /* Enable CP10 and CP11 coprocessors for FPU access */
    SCB->CPACR |= ((3UL << (10U * 2U)) | (3UL << (11U * 2U)));
 8007bc4:	4b08      	ldr	r3, [pc, #32]	; (8007be8 <enable_fpu+0x28>)
 8007bc6:	f8d3 3088 	ldr.w	r3, [r3, #136]	; 0x88
 8007bca:	4a07      	ldr	r2, [pc, #28]	; (8007be8 <enable_fpu+0x28>)
 8007bcc:	f443 0370 	orr.w	r3, r3, #15728640	; 0xf00000
 8007bd0:	f8c2 3088 	str.w	r3, [r2, #136]	; 0x88
    
    /* Data synchronization barrier */
    __asm volatile ("dsb" ::: "memory");
 8007bd4:	f3bf 8f4f 	dsb	sy
    
    /* Instruction synchronization barrier */
    __asm volatile ("isb" ::: "memory");
 8007bd8:	f3bf 8f6f 	isb	sy
    
    return DSRTOS_SUCCESS;
 8007bdc:	2300      	movs	r3, #0
}
 8007bde:	4618      	mov	r0, r3
 8007be0:	46bd      	mov	sp, r7
 8007be2:	f85d 7b04 	ldr.w	r7, [sp], #4
 8007be6:	4770      	bx	lr
 8007be8:	e000ed00 	.word	0xe000ed00

08007bec <validate_clock_frequency>:
/**
 * @brief Validate system clock frequency
 * @return DSRTOS_SUCCESS if valid, error code if out of range
 */
static dsrtos_error_t validate_clock_frequency(void)
{
 8007bec:	b580      	push	{r7, lr}
 8007bee:	b082      	sub	sp, #8
 8007bf0:	af00      	add	r7, sp, #0
    dsrtos_error_t result = DSRTOS_SUCCESS;
 8007bf2:	2300      	movs	r3, #0
 8007bf4:	607b      	str	r3, [r7, #4]
    
    /* Update system clock variable */
    SystemCoreClockUpdate();
 8007bf6:	f7ff fe59 	bl	80078ac <SystemCoreClockUpdate>
    
    /* Validate frequency is within acceptable range */
    if ((SystemCoreClock < 16000000UL) || (SystemCoreClock > 168000000UL)) {
 8007bfa:	4b09      	ldr	r3, [pc, #36]	; (8007c20 <validate_clock_frequency+0x34>)
 8007bfc:	681b      	ldr	r3, [r3, #0]
 8007bfe:	4a09      	ldr	r2, [pc, #36]	; (8007c24 <validate_clock_frequency+0x38>)
 8007c00:	4293      	cmp	r3, r2
 8007c02:	d304      	bcc.n	8007c0e <validate_clock_frequency+0x22>
 8007c04:	4b06      	ldr	r3, [pc, #24]	; (8007c20 <validate_clock_frequency+0x34>)
 8007c06:	681b      	ldr	r3, [r3, #0]
 8007c08:	4a07      	ldr	r2, [pc, #28]	; (8007c28 <validate_clock_frequency+0x3c>)
 8007c0a:	4293      	cmp	r3, r2
 8007c0c:	d902      	bls.n	8007c14 <validate_clock_frequency+0x28>
        result = DSRTOS_ERR_CLOCK_FAULT;
 8007c0e:	f06f 033e 	mvn.w	r3, #62	; 0x3e
 8007c12:	607b      	str	r3, [r7, #4]
    }
    
    return result;
 8007c14:	687b      	ldr	r3, [r7, #4]
}
 8007c16:	4618      	mov	r0, r3
 8007c18:	3708      	adds	r7, #8
 8007c1a:	46bd      	mov	sp, r7
 8007c1c:	bd80      	pop	{r7, pc}
 8007c1e:	bf00      	nop
 8007c20:	20000254 	.word	0x20000254
 8007c24:	00f42400 	.word	0x00f42400
 8007c28:	0a037a00 	.word	0x0a037a00

08007c2c <NMI_Handler>:
extern int main(void);

/* Function declarations are now available from headers */

/* Weak interrupt handlers */
__attribute__((weak)) void NMI_Handler(void) { Default_Handler(); }
 8007c2c:	b580      	push	{r7, lr}
 8007c2e:	af00      	add	r7, sp, #0
 8007c30:	f000 f84a 	bl	8007cc8 <Default_Handler>
 8007c34:	bf00      	nop
 8007c36:	bd80      	pop	{r7, pc}

08007c38 <SVC_Handler>:
__attribute__((weak)) void HardFault_Handler(void) { Default_Handler(); }
__attribute__((weak)) void MemManage_Handler(void) { Default_Handler(); }
__attribute__((weak)) void BusFault_Handler(void) { Default_Handler(); }
__attribute__((weak)) void UsageFault_Handler(void) { Default_Handler(); }
__attribute__((weak)) void SVC_Handler(void) { Default_Handler(); }
 8007c38:	b580      	push	{r7, lr}
 8007c3a:	af00      	add	r7, sp, #0
 8007c3c:	f000 f844 	bl	8007cc8 <Default_Handler>
 8007c40:	bf00      	nop
 8007c42:	bd80      	pop	{r7, pc}

08007c44 <DebugMon_Handler>:
__attribute__((weak)) void DebugMon_Handler(void) { Default_Handler(); }
 8007c44:	b580      	push	{r7, lr}
 8007c46:	af00      	add	r7, sp, #0
 8007c48:	f000 f83e 	bl	8007cc8 <Default_Handler>
 8007c4c:	bf00      	nop
 8007c4e:	bd80      	pop	{r7, pc}

08007c50 <PendSV_Handler>:
__attribute__((weak)) void PendSV_Handler(void) { Default_Handler(); }
 8007c50:	b580      	push	{r7, lr}
 8007c52:	af00      	add	r7, sp, #0
 8007c54:	f000 f838 	bl	8007cc8 <Default_Handler>
 8007c58:	bf00      	nop
 8007c5a:	bd80      	pop	{r7, pc}

08007c5c <SysTick_Handler>:
__attribute__((weak)) void SysTick_Handler(void) { Default_Handler(); }
 8007c5c:	b580      	push	{r7, lr}
 8007c5e:	af00      	add	r7, sp, #0
 8007c60:	f000 f832 	bl	8007cc8 <Default_Handler>
 8007c64:	bf00      	nop
 8007c66:	bd80      	pop	{r7, pc}

08007c68 <Reset_Handler>:
    PendSV_Handler,
    SysTick_Handler
};

void Reset_Handler(void)
{
 8007c68:	b580      	push	{r7, lr}
 8007c6a:	b082      	sub	sp, #8
 8007c6c:	af00      	add	r7, sp, #0
    uint32_t* pSrc = &_sidata;
 8007c6e:	4b11      	ldr	r3, [pc, #68]	; (8007cb4 <Reset_Handler+0x4c>)
 8007c70:	603b      	str	r3, [r7, #0]
    uint32_t* pDest = &_sdata;
 8007c72:	4b11      	ldr	r3, [pc, #68]	; (8007cb8 <Reset_Handler+0x50>)
 8007c74:	607b      	str	r3, [r7, #4]
    
    while (pDest < &_edata) {
 8007c76:	e007      	b.n	8007c88 <Reset_Handler+0x20>
        *pDest++ = *pSrc++;
 8007c78:	683a      	ldr	r2, [r7, #0]
 8007c7a:	1d13      	adds	r3, r2, #4
 8007c7c:	603b      	str	r3, [r7, #0]
 8007c7e:	687b      	ldr	r3, [r7, #4]
 8007c80:	1d19      	adds	r1, r3, #4
 8007c82:	6079      	str	r1, [r7, #4]
 8007c84:	6812      	ldr	r2, [r2, #0]
 8007c86:	601a      	str	r2, [r3, #0]
    while (pDest < &_edata) {
 8007c88:	687b      	ldr	r3, [r7, #4]
 8007c8a:	4a0c      	ldr	r2, [pc, #48]	; (8007cbc <Reset_Handler+0x54>)
 8007c8c:	4293      	cmp	r3, r2
 8007c8e:	d3f3      	bcc.n	8007c78 <Reset_Handler+0x10>
    }
    
    pDest = &_sbss;
 8007c90:	4b0b      	ldr	r3, [pc, #44]	; (8007cc0 <Reset_Handler+0x58>)
 8007c92:	607b      	str	r3, [r7, #4]
    while (pDest < &_ebss) {
 8007c94:	e004      	b.n	8007ca0 <Reset_Handler+0x38>
        *pDest++ = 0;
 8007c96:	687b      	ldr	r3, [r7, #4]
 8007c98:	1d1a      	adds	r2, r3, #4
 8007c9a:	607a      	str	r2, [r7, #4]
 8007c9c:	2200      	movs	r2, #0
 8007c9e:	601a      	str	r2, [r3, #0]
    while (pDest < &_ebss) {
 8007ca0:	687b      	ldr	r3, [r7, #4]
 8007ca2:	4a08      	ldr	r2, [pc, #32]	; (8007cc4 <Reset_Handler+0x5c>)
 8007ca4:	4293      	cmp	r3, r2
 8007ca6:	d3f6      	bcc.n	8007c96 <Reset_Handler+0x2e>
    }
    
    SystemInit();
 8007ca8:	f7ff fd92 	bl	80077d0 <SystemInit>
    
    (void)main();
 8007cac:	f7ff fd8c 	bl	80077c8 <main>
    
    while (1) {
        __asm volatile ("nop");
 8007cb0:	bf00      	nop
 8007cb2:	e7fd      	b.n	8007cb0 <Reset_Handler+0x48>
 8007cb4:	080084dc 	.word	0x080084dc
 8007cb8:	20000000 	.word	0x20000000
 8007cbc:	20000258 	.word	0x20000258
 8007cc0:	20000258 	.word	0x20000258
 8007cc4:	20000490 	.word	0x20000490

08007cc8 <Default_Handler>:
    }
}

void Default_Handler(void)
{
 8007cc8:	b480      	push	{r7}
 8007cca:	af00      	add	r7, sp, #0
    __asm volatile ("cpsid i" ::: "memory");
 8007ccc:	b672      	cpsid	i
    while (1) {
        __asm volatile ("nop");
 8007cce:	bf00      	nop
 8007cd0:	e7fd      	b.n	8007cce <Default_Handler+0x6>
	...

08007cd4 <__stack_chk_init>:
 8007cd4:	4b03      	ldr	r3, [pc, #12]	; (8007ce4 <__stack_chk_init+0x10>)
 8007cd6:	681a      	ldr	r2, [r3, #0]
 8007cd8:	b912      	cbnz	r2, 8007ce0 <__stack_chk_init+0xc>
 8007cda:	f5a2 0276 	sub.w	r2, r2, #16121856	; 0xf60000
 8007cde:	601a      	str	r2, [r3, #0]
 8007ce0:	4770      	bx	lr
 8007ce2:	bf00      	nop
 8007ce4:	20000274 	.word	0x20000274

08007ce8 <_init>:
 8007ce8:	b5f8      	push	{r3, r4, r5, r6, r7, lr}
 8007cea:	bf00      	nop
 8007cec:	bcf8      	pop	{r3, r4, r5, r6, r7}
 8007cee:	bc08      	pop	{r3}
 8007cf0:	469e      	mov	lr, r3
 8007cf2:	4770      	bx	lr

08007cf4 <_fini>:
 8007cf4:	b5f8      	push	{r3, r4, r5, r6, r7, lr}
 8007cf6:	bf00      	nop
 8007cf8:	bcf8      	pop	{r3, r4, r5, r6, r7}
 8007cfa:	bc08      	pop	{r3}
 8007cfc:	469e      	mov	lr, r3
 8007cfe:	4770      	bx	lr
